 ConEmu.x64

 Timestamp is 5f837c5f (Sun Oct 11 23:42:55 2020)

 Preferred load address is 0000000180000000

 Start         Length     Name                   Class
 0001:00000000 00000010H .text$di                CODE
 0001:00000010 0002ffa0H .text$mn                CODE
 0001:0002ffb0 00000040H .text$mn$00             CODE
 0001:0002fff0 00000680H .text$x                 CODE
 0001:00030670 0000003dH .text$yd                CODE
 0002:00000000 00000660H .idata$5                DATA
 0002:00000660 00000028H .00cfg                  DATA
 0002:00000688 00000008H .CRT$XCA                DATA
 0002:00000690 00000008H .CRT$XCU                DATA
 0002:00000698 00000008H .CRT$XCZ                DATA
 0002:000006a0 00000008H .CRT$XIA                DATA
 0002:000006a8 00000020H .CRT$XIC                DATA
 0002:000006c8 00000008H .CRT$XIZ                DATA
 0002:000006d0 00000008H .CRT$XLA                DATA
 0002:000006d8 00000008H .CRT$XLZ                DATA
 0002:000006e0 00000008H .CRT$XPA                DATA
 0002:000006e8 00000010H .CRT$XPX                DATA
 0002:000006f8 00000008H .CRT$XPXA               DATA
 0002:00000700 00000008H .CRT$XPZ                DATA
 0002:00000708 00000008H .CRT$XTA                DATA
 0002:00000710 00000010H .CRT$XTZ                DATA
 0002:00000718 00000000H .gehcont$y              DATA
 0002:00000718 00000000H .gfids$y                DATA
 0002:00000720 0000c410H .rdata                  DATA
 0002:0000cb30 00000028H .rdata$T                DATA
 0002:0000cb58 0000075cH .rdata$r                DATA
 0002:0000d2b4 000003f4H .rdata$zzzdbg           DATA
 0002:0000d6a8 00000008H .rtc$IAA                DATA
 0002:0000d6b0 00000008H .rtc$IZZ                DATA
 0002:0000d6b8 00000008H .rtc$TAA                DATA
 0002:0000d6c0 00000008H .rtc$TZZ                DATA
 0002:0000d6c8 00000004H .tls                    DATA
 0002:0000d6cc 00000004H .tls$                   DATA
 0002:0000d6d0 00000008H .tls$ZZZ                DATA
 0002:0000d6d8 00002568H .xdata                  DATA
 0002:0000fc40 00000200H .xdata$x                DATA
 0002:0000fe40 000002e4H .edata                  DATA
 0002:00010124 00000064H .idata$2                DATA
 0002:00010188 00000018H .idata$3                DATA
 0002:000101a0 00000660H .idata$4                DATA
 0002:00010800 00000e82H .idata$6                DATA
 0003:00000000 00000c90H .data                   DATA
 0003:00000c90 000002a0H .data$r                 DATA
 0003:00000f30 0000bc00H .bss                    DATA
 0004:00000000 0000279cH .pdata                  DATA
 0005:00000000 00000100H _RDATA                  DATA
 0006:00000000 000000a0H .rsrc$01                DATA
 0006:000000a0 00000490H .rsrc$02                DATA

  Address         Publics by Value              Rva+Base               Lib:Object

 0000:00000000       __arm64x_redirection_metadata_count 0000000000000000     <absolute>
 0000:00000000       __guard_fids_count         0000000000000000     <absolute>
 0000:00000000       __hybrid_code_map_count    0000000000000000     <absolute>
 0000:00000000       __x64_code_ranges_to_entry_points 0000000000000000     <absolute>
 0000:00000000       __guard_longjmp_table      0000000000000000     <absolute>
 0000:00000000       __arm64x_redirection_metadata 0000000000000000     <absolute>
 0000:00000000       __guard_iat_table          0000000000000000     <absolute>
 0000:00000000       __hybrid_code_map          0000000000000000     <absolute>
 0000:00000000       __guard_iat_count          0000000000000000     <absolute>
 0000:00000000       __guard_eh_cont_count      0000000000000000     <absolute>
 0000:00000000       __arm64x_native_entrypoint 0000000000000000     <absolute>
 0000:00000000       __volatile_metadata        0000000000000000     <absolute>
 0000:00000000       __guard_longjmp_count      0000000000000000     <absolute>
 0000:00000000       __guard_eh_cont_table      0000000000000000     <absolute>
 0000:00000000       __enclave_config           0000000000000000     <absolute>
 0000:00000000       __arm64x_extra_rfe_table   0000000000000000     <absolute>
 0000:00000000       __x64_code_ranges_to_entry_points_count 0000000000000000     <absolute>
 0000:00000000       ___safe_se_handler_count   0000000000000000     <absolute>
 0000:00000000       __AbsoluteZero             0000000000000000     <absolute>
 0000:00000000       ___safe_se_handler_table   0000000000000000     <absolute>
 0000:00000000       __arm64x_extra_rfe_table_size 0000000000000000     <absolute>
 0000:00000000       __guard_fids_table         0000000000000000     <absolute>
 0000:00000000       __dynamic_value_reloc_table 0000000000000000     <absolute>
 0000:00000000       __hybrid_auxiliary_iat     0000000000000000     <absolute>
 0000:00000100       __guard_flags              0000000000000100     <absolute>
 0000:00000000       __ImageBase                0000000180000000     <linker-defined>
 0001:00000010       ??$swprintf_c@$0EA@@@YAHAEAY0EA@_WPEB_WZZ 0000000180001010 f i ConEmuInjects.obj
 0001:0000003c       ??$swprintf_c@$0IA@@@YAHAEAY0IA@_WPEB_WZZ 000000018000103c f i ConEmuInjects.obj
 0001:00000068       ??$swprintf_c@$0PP@@@YAHAEAY0PP@_WPEB_WZZ 0000000180001068 f i ConEmuInjects.obj
 0001:00000094       ?ShutdownHooks@@YAXXZ      0000000180001094 f   ConEmuInjects.obj
 0001:00000284       ?StartupConsoleHooks@@YAXXZ 0000000180001284 f   ConEmuInjects.obj
 0001:00000310       ?StartupHooks@@YA_NPEAUHINSTANCE__@@@Z 0000000180001310 f   ConEmuInjects.obj
 0001:000006f8       ?StringCchVPrintfW@@YAJPEA_W_KPEB_WPEAD@Z 00000001800016f8 f i ConEmuInjects.obj
 0001:0000079c       __local_stdio_printf_options 000000018000179c f i ConEmuInjects.obj
 0001:000007a4       ExitFARW                   00000001800017a4 f   ConEmuPlugin.obj
 0001:000007fc       ProcessEditorEventW        00000001800017fc f   ConEmuPlugin.obj
 0001:000007fc       ?ProcessEditorEvent@@YAHHPEAX@Z 00000001800017fc f   ConEmuPlugin.obj
 0001:0000081c       ProcessSynchroEventW       000000018000181c f   ConEmuPlugin.obj
 0001:00000848       ?ProcessViewerEvent@@YAHHPEAX@Z 0000000180001848 f   ConEmuPlugin.obj
 0001:00000848       ProcessViewerEventW        0000000180001848 f   ConEmuPlugin.obj
 0001:00000868       ?ProcessSynchroEventW3@@YA_JPEAX@Z 0000000180001868 f   ConEmuPlugin.obj
 0001:00000890       ?ProcessEditorEventW3@@YA_JPEAX@Z 0000000180001890 f   ConEmuPlugin.obj
 0001:000008b8       ?ProcessViewerEventW3@@YA_JPEAX@Z 00000001800018b8 f   ConEmuPlugin.obj
 0001:000008e0       ?ExitFARW3@@YAXPEAX@Z      00000001800018e0 f   ConEmuPlugin.obj
 0001:00000938       ?ActivateConsole@@YAHXZ    0000000180001938 f   ConEmuPlugin.obj
 0001:000009c8       ?ExitFAR@@YAXXZ            00000001800019c8 f   ConEmuPlugin.obj
 0001:00000a20       ?GetFarHWND2@@YAPEAUHWND__@@H@Z 0000000180001a20 f   ConEmuPlugin.obj
 0001:00000a8c       ?GetFarHWND@@YAPEAUHWND__@@XZ 0000000180001a8c f   ConEmuPlugin.obj
 0001:00000a94       ?GetFarVersion@@YAXPEAUFarVersion@@@Z 0000000180001a94 f   ConEmuPlugin.obj
 0001:00000ab0       ?GetMinFarVersion@@YAHXZ   0000000180001ab0 f   ConEmuPlugin.obj
 0001:00000ae0       ?GetPluginInfo@@YAXPEAX@Z  0000000180001ae0 f   ConEmuPlugin.obj
 0001:00000b34       ?GetPluginInfoW@@YAXPEAX@Z 0000000180001b34 f   ConEmuPlugin.obj
 0001:00000b54       ?IsConsoleActive@@YAHXZ    0000000180001b54 f   ConEmuPlugin.obj
 0001:00000bac       ?IsTerminalMode@@YAHXZ     0000000180001bac f   ConEmuPlugin.obj
 0001:00000bb4       ?OpenPlugin@@YAPEAXH_J@Z   0000000180001bb4 f   ConEmuPlugin.obj
 0001:00000be4       ?OpenW@@YAPEAXPEBX@Z       0000000180001be4 f   ConEmuPlugin.obj
 0001:00000c08       ?ProcessEditorInput@@YAHPEBU_INPUT_RECORD@@@Z 0000000180001c08 f   ConEmuPlugin.obj
 0001:00000c2c       ?RegisterBackground@@YAHPEAURegisterBackgroundArg@@@Z 0000000180001c2c f   ConEmuPlugin.obj
 0001:00000ca8       ?RegisterPanelView@@YAHPEAUPanelViewInit@@@Z 0000000180001ca8 f   ConEmuPlugin.obj
 0001:00000e10       ?SetStartupInfo@@YAXPEAX@Z 0000000180001e10 f   ConEmuPlugin.obj
 0001:00000e74       ?SetupExportsFar3@@YAXXZ   0000000180001e74 f   ConEmuPlugin.obj
 0001:00000fe4       ?SyncExecute@@YAHPEAUHINSTANCE__@@P6AX_J@Z1@Z 0000000180001fe4 f   ConEmuPlugin.obj
 0001:00001030       DllMain                    0000000180002030 f   ConEmuPlugin.obj
 0001:00001054       GetMinFarVersionW          0000000180002054 f   ConEmuPlugin.obj
 0001:0000105c       OpenPluginW                000000018000205c f   ConEmuPlugin.obj
 0001:0000109c       ProcessEditorInputW        000000018000209c f   ConEmuPlugin.obj
 0001:000010c0       SetStartupInfoW            00000001800020c0 f   ConEmuPlugin.obj
 0001:000010f0       ??0CPluginW1900@@QEAA@XZ   00000001800020f0 f   ConEmuPlugin1900.obj
 0001:00001294       ??_GCPluginW1900@@UEAAPEAXI@Z 0000000180002294 f i ConEmuPlugin1900.obj
 0001:00001294       ??_ECPluginW1900@@UEAAPEAXI@Z 0000000180002294 f i ConEmuPlugin1900.obj
 0001:0000179c       ?CheckPanelExist@CPluginW1900@@UEAA_NXZ 000000018000279c f   ConEmuPlugin1900.obj
 0001:000017d8       ?Color2BgIndex@Far3Color@@SAXKHAEAGPEBK@Z 00000001800027d8 f i ConEmuPlugin1900.obj
 0001:000018ec       ?Color2FgIndex@Far3Color@@SAXKAEAGPEBK@Z 00000001800028ec f i ConEmuPlugin1900.obj
 0001:000019dc       ?ExecuteSynchroApi@CPluginW1900@@UEAA_NXZ 00000001800029dc f   ConEmuPlugin1900.obj
 0001:00001a10       ?ExitFar@CPluginW1900@@UEAAXXZ 0000000180002a10 f   ConEmuPlugin1900.obj
 0001:00001a98       ?FarColor_3_2@@YAEAEBUFarColor@@_N@Z 0000000180002a98 f i ConEmuPlugin1900.obj
 0001:00001b58       ?GetActiveWindowType@CPluginW1900@@UEAAHXZ 0000000180002b58 f   ConEmuPlugin1900.obj
 0001:00001c04       ?GetEditorModifiedState@CPluginW1900@@UEAAKXZ 0000000180002c04 f   ConEmuPlugin1900.obj
 0001:00001c60       ?GetFarRect@CPluginW1900@@UEAA_NAEAU_SMALL_RECT@@@Z 0000000180002c60 f   ConEmuPlugin1900.obj
 0001:00001d0c       ?GetMacroArea@CPluginW1900@@UEAAHXZ 0000000180002d0c f   ConEmuPlugin1900.obj
 0001:00001d2c       ?GetMsg@CPluginW1900@@UEAAPEB_WHPEA_W_K@Z 0000000180002d2c f   ConEmuPlugin1900.obj
 0001:00001da0       ?GetPanelDir@CPluginW1900@@UEAAPEA_WKPEA_WH@Z 0000000180002da0 f   ConEmuPlugin1900.obj
 0001:00001f00       ?GetPanelInfo@CPluginW1900@@UEAA_NKPEAUCEPanelInfo@@@Z 0000000180002f00 f   ConEmuPlugin1900.obj
 0001:000021a0       ?GetPanelItemInfo@CPluginW1900@@UEAA_NAEBUCEPanelInfo@@_N_JAEAU_WIN32_FIND_DATAW@@PEAPEA_W@Z 00000001800031a0 f   ConEmuPlugin1900.obj
 0001:0000235c       ?GetPluginInfoPtr@CPluginW1900@@UEAAXPEAX@Z 000000018000335c f   ConEmuPlugin1900.obj
 0001:000023b8       ?GetWindowCount@CPluginW1900@@UEAAHXZ 00000001800033b8 f   ConEmuPlugin1900.obj
 0001:000023e8       ?GetWindowTypeName@CPluginW2800@@UEAAPEB_WH@Z 00000001800033e8 f   ConEmuPlugin2800.obj
 0001:000023e8       ?GetWindowTypeName@CPluginW995@@UEAAPEB_WH@Z 00000001800033e8 f   ConEmuPlugin995.obj
 0001:000023e8       ?GetWindowTypeName@CPluginAnsi@@UEAAPEB_WH@Z 00000001800033e8 f   ConEmuPluginA.obj
 0001:000023e8       ?GetWindowTypeName@CPluginW1900@@UEAAPEB_WH@Z 00000001800033e8 f   ConEmuPlugin1900.obj
 0001:00002440       ?GuiMacroDlg@CPluginW1900@@UEAAXXZ 0000000180003440 f   ConEmuPlugin1900.obj
 0001:00002448       ?InputBox@CPluginW1900@@UEAA_NPEB_W000AEAPEA_W@Z 0000000180003448 f   ConEmuPlugin1900.obj
 0001:000024f8       ?IsMacroActive@CPluginW1900@@UEAA_NXZ 00000001800034f8 f   ConEmuPlugin1900.obj
 0001:0000253c       ?LoadFarColors@CPluginW1900@@UEAAXAEAY0BAA@E@Z 000000018000353c f   ConEmuPlugin1900.obj
 0001:000026d0       ?LoadFarSettings@CPluginW1900@@UEAAXPEAUCEFarInterfaceSettings@@PEAUCEFarPanelSettings@@@Z 00000001800036d0 f   ConEmuPlugin1900.obj
 0001:00002810       ?Open@CPluginW1900@@UEAAPEAXPEBX@Z 0000000180003810 f   ConEmuPlugin1900.obj
 0001:000028ec       ?OpenEditor@CPluginW1900@@UEAA_NPEB_W_N11HH@Z 00000001800038ec f   ConEmuPlugin1900.obj
 0001:00002a00       ?PanelControlApi@CPluginW1900@@UEAA_JPEAXH_J0@Z 0000000180003a00 f   ConEmuPlugin1900.obj
 0001:00002a38       ?PostMacroApi@CPluginW1900@@UEAAXPEB_WPEAU_INPUT_RECORD@@_N@Z 0000000180003a38 f   ConEmuPlugin1900.obj
 0001:00002ff0       ?ProcessEditorEventPtr@CPluginW1900@@UEAAHPEAX@Z 0000000180003ff0 f   ConEmuPlugin1900.obj
 0001:00002ff0       ?ProcessEditorEventPtr@CPluginW2800@@UEAAHPEAX@Z 0000000180003ff0 f   ConEmuPlugin2800.obj
 0001:00002ffc       ?ProcessEditorInputPtr@CPluginW1900@@UEAAHPEBX@Z 0000000180003ffc f   ConEmuPlugin1900.obj
 0001:0000301c       ?ProcessSynchroEventPtr@CPluginW1900@@UEAAHPEAX@Z 000000018000401c f   ConEmuPlugin1900.obj
 0001:0000301c       ?ProcessSynchroEventPtr@CPluginW2800@@UEAAHPEAX@Z 000000018000401c f   ConEmuPlugin2800.obj
 0001:00003040       ?ProcessViewerEventPtr@CPluginW1900@@UEAAHPEAX@Z 0000000180004040 f   ConEmuPlugin1900.obj
 0001:00003040       ?ProcessViewerEventPtr@CPluginW2800@@UEAAHPEAX@Z 0000000180004040 f   ConEmuPlugin2800.obj
 0001:0000304c       ?RedrawAll@CPluginW1900@@UEAAXXZ 000000018000404c f   ConEmuPlugin1900.obj
 0001:00003084       ?SetStartupInfoPtr@CPluginW1900@@UEAAXPEAX@Z 0000000180004084 f   ConEmuPlugin1900.obj
 0001:000031d4       ?SetWindow@CPluginW1900@@UEAAXH@Z 00000001800041d4 f   ConEmuPlugin1900.obj
 0001:0000322c       ?ShowMessage@CPluginW1900@@UEAAHPEB_WH_N@Z 000000018000422c f   ConEmuPlugin1900.obj
 0001:00003294       ?ShowPluginMenu@CPluginW1900@@UEAAHPEAUConEmuPluginMenuItem@@HH@Z 0000000180004294 f   ConEmuPlugin1900.obj
 0001:000033e4       ?ShowUserScreen@CPluginW1900@@UEAAX_N@Z 00000001800043e4 f   ConEmuPlugin1900.obj
 0001:00003410       ?ShutdownPluginStep@CPluginBase@@SAXPEB_WHHHH@Z 0000000180004410 f   ConEmuPluginBase.obj
 0001:00003410       ?StopWaitEndSynchro@CPluginW2800@@UEAAXXZ 0000000180004410 f   ConEmuPlugin2800.obj
 0001:00003410       _guard_check_icall_nop     0000000180004410 f   LIBCMT:guard_support.obj
 0001:00003410       ?StopWaitEndSynchro@CPluginW1900@@UEAAXXZ 0000000180004410 f   ConEmuPlugin1900.obj
 0001:00003410       ?WaitEndSynchro@CPluginAnsi@@UEAAXXZ 0000000180004410 f   ConEmuPluginA.obj
 0001:00003410       ?_Doraise@exception@stdext@@MEBAXXZ 0000000180004410 f   common-kernel64:CEStr.obj
 0001:00003410       ?WaitEndSynchro@CPluginW1900@@UEAAXXZ 0000000180004410 f   ConEmuPlugin1900.obj
 0001:00003410       ?PlugServerInit@@YAXXZ     0000000180004410 f   PluginSrv.obj
 0001:00003410       ?StopWaitEndSynchro@CPluginAnsi@@UEAAXXZ 0000000180004410 f   ConEmuPluginA.obj
 0001:00003410       ?WaitEndSynchro@CPluginW2800@@UEAAXXZ 0000000180004410 f   ConEmuPlugin2800.obj
 0001:00003414       ?UpdateConEmuTabsApi@CPluginW1900@@UEAA_NH@Z 0000000180004414 f   ConEmuPlugin1900.obj
 0001:000038e4       ??$_Emplace_reallocate@AEBUWindowInfo@@@?$vector@UWindowInfo@@V?$MArrayAllocator@UWindowInfo@@@@@std@@QEAAPEAUWindowInfo@@QEAU2@AEBU2@@Z 00000001800048e4 f i ConEmuPlugin2800.obj
 0001:00003a90       ??$_Uninitialized_fill_n@V?$MArrayAllocator@UWindowInfo@@@@@std@@YAPEAUWindowInfo@@PEAU1@_KAEBU1@AEAV?$MArrayAllocator@UWindowInfo@@@@@Z 0000000180004a90 f i ConEmuPlugin2800.obj
 0001:00003ad0       ??0CPluginW2800@@QEAA@XZ   0000000180004ad0 f   ConEmuPlugin2800.obj
 0001:00003c74       ??0bad_alloc@std@@QEAA@AEBV01@@Z 0000000180004c74 f i ConEmuPlugin2800.obj
 0001:00003cb0       ??0bad_alloc@std@@QEAA@XZ  0000000180004cb0 f i ConEmuPlugin2800.obj
 0001:00003cd0       ??0exception@std@@QEAA@AEBV01@@Z 0000000180004cd0 f i ConEmuPlugin2800.obj
 0001:00003d04       ??1?$MArray@UWindowInfo@@@@QEAA@XZ 0000000180004d04 f i ConEmuPlugin2800.obj
 0001:00003d30       ??1bad_exception@std@@UEAA@XZ 0000000180004d30 f i libvcruntime:frame.obj
 0001:00003d30       ??1bad_alloc@std@@UEAA@XZ  0000000180004d30 f i ConEmuPlugin2800.obj
 0001:00003d30       ??1length_error@std@@UEAA@XZ 0000000180004d30 f i libcpmt:xthrow.obj
 0001:00003d44       ??_ECPluginW2800@@UEAAPEAXI@Z 0000000180004d44 f i ConEmuPlugin2800.obj
 0001:00003d44       ??_GCPluginW2800@@UEAAPEAXI@Z 0000000180004d44 f i ConEmuPlugin2800.obj
 0001:00003d84       ??_Ebad_alloc@std@@UEAAPEAXI@Z 0000000180004d84 f i ConEmuPlugin2800.obj
 0001:00003d84       ??_Glogic_error@std@@UEAAPEAXI@Z 0000000180004d84 f i libcpmt:xthrow.obj
 0001:00003d84       ??_Elogic_error@std@@UEAAPEAXI@Z 0000000180004d84 f i libcpmt:xthrow.obj
 0001:00003d84       ??_Gexception@std@@UEAAPEAXI@Z 0000000180004d84 f i ConEmuPlugin2800.obj
 0001:00003d84       ??_Gbad_exception@std@@UEAAPEAXI@Z 0000000180004d84 f i libvcruntime:frame.obj
 0001:00003d84       ??_Ebad_exception@std@@UEAAPEAXI@Z 0000000180004d84 f i libvcruntime:frame.obj
 0001:00003d84       ??_Elength_error@std@@UEAAPEAXI@Z 0000000180004d84 f i libcpmt:xthrow.obj
 0001:00003d84       ??_Eexception@std@@UEAAPEAXI@Z 0000000180004d84 f i ConEmuPlugin2800.obj
 0001:00003d84       ??_Glength_error@std@@UEAAPEAXI@Z 0000000180004d84 f i libcpmt:xthrow.obj
 0001:00003d84       ??_Gbad_alloc@std@@UEAAPEAXI@Z 0000000180004d84 f i ConEmuPlugin2800.obj
 0001:00004314       ?CheckPanelExist@CPluginW2800@@UEAA_NXZ 0000000180005314 f   ConEmuPlugin2800.obj
 0001:00004350       ?ExecuteSynchroApi@CPluginW2800@@UEAA_NXZ 0000000180005350 f   ConEmuPlugin2800.obj
 0001:00004384       ?ExitFar@CPluginW2800@@UEAAXXZ 0000000180005384 f   ConEmuPlugin2800.obj
 0001:00004418       ?GetActiveWindowType@CPluginW2800@@UEAAHXZ 0000000180005418 f   ConEmuPlugin2800.obj
 0001:000044d0       ?GetEditorModifiedState@CPluginW2800@@UEAAKXZ 00000001800054d0 f   ConEmuPlugin2800.obj
 0001:00004530       ?GetFarRect@CPluginW2800@@UEAA_NAEAU_SMALL_RECT@@@Z 0000000180005530 f   ConEmuPlugin2800.obj
 0001:000045e4       ?GetMacroArea@CPluginW2800@@UEAAHXZ 00000001800055e4 f   ConEmuPlugin2800.obj
 0001:00004604       ?GetMsg@CPluginW2800@@UEAAPEB_WHPEA_W_K@Z 0000000180005604 f   ConEmuPlugin2800.obj
 0001:0000467c       ?GetPanelDir@CPluginW2800@@UEAAPEA_WKPEA_WH@Z 000000018000567c f   ConEmuPlugin2800.obj
 0001:000047dc       ?GetPanelInfo@CPluginW2800@@UEAA_NKPEAUCEPanelInfo@@@Z 00000001800057dc f   ConEmuPlugin2800.obj
 0001:00004a7c       ?GetPanelItemInfo@CPluginW2800@@UEAA_NAEBUCEPanelInfo@@_N_JAEAU_WIN32_FIND_DATAW@@PEAPEA_W@Z 0000000180005a7c f   ConEmuPlugin2800.obj
 0001:00004c58       ?GetPluginInfoPtr@CPluginW2800@@UEAAXPEAX@Z 0000000180005c58 f   ConEmuPlugin2800.obj
 0001:00004cb4       ?GetWindowCount@CPluginW2800@@UEAAHXZ 0000000180005cb4 f   ConEmuPlugin2800.obj
 0001:00004ce4       ?GuiMacroDlg@CPluginW2800@@UEAAXXZ 0000000180005ce4 f   ConEmuPlugin2800.obj
 0001:00004cec       ?InputBox@CPluginW2800@@UEAA_NPEB_W000AEAPEA_W@Z 0000000180005cec f   ConEmuPlugin2800.obj
 0001:00004d9c       ?IsMacroActive@CPluginW2800@@UEAA_NXZ 0000000180005d9c f   ConEmuPlugin2800.obj
 0001:00004de0       ?LoadFarColors@CPluginW2800@@UEAAXAEAY0BAA@E@Z 0000000180005de0 f   ConEmuPlugin2800.obj
 0001:00004f74       ?LoadFarSettings@CPluginW2800@@UEAAXPEAUCEFarInterfaceSettings@@PEAUCEFarPanelSettings@@@Z 0000000180005f74 f   ConEmuPlugin2800.obj
 0001:000050b4       ?Open@CPluginW2800@@UEAAPEAXPEBX@Z 00000001800060b4 f   ConEmuPlugin2800.obj
 0001:00005204       ?OpenEditor@CPluginW2800@@UEAA_NPEB_W_N11HH@Z 0000000180006204 f   ConEmuPlugin2800.obj
 0001:00005328       ?PanelControlApi@CPluginW2800@@UEAA_JPEAXH_J0@Z 0000000180006328 f   ConEmuPlugin2800.obj
 0001:00005360       ?PostMacroApi@CPluginW2800@@UEAAXPEB_WPEAU_INPUT_RECORD@@_N@Z 0000000180006360 f   ConEmuPlugin2800.obj
 0001:000056d4       ?ProcessEditorInputPtr@CPluginW2800@@UEAAHPEBX@Z 00000001800066d4 f   ConEmuPlugin2800.obj
 0001:000056f4       ?RedrawAll@CPluginW2800@@UEAAXXZ 00000001800066f4 f   ConEmuPlugin2800.obj
 0001:0000572c       ?SetStartupInfoPtr@CPluginW2800@@UEAAXPEAX@Z 000000018000672c f   ConEmuPlugin2800.obj
 0001:0000587c       ?SetWindow@CPluginW2800@@UEAAXH@Z 000000018000687c f   ConEmuPlugin2800.obj
 0001:000059b8       ?ShowMessage@CPluginW2800@@UEAAHPEB_WH_N@Z 00000001800069b8 f   ConEmuPlugin2800.obj
 0001:00005a20       ?ShowPluginMenu@CPluginW2800@@UEAAHPEAUConEmuPluginMenuItem@@HH@Z 0000000180006a20 f   ConEmuPlugin2800.obj
 0001:00005b74       ?ShowUserScreen@CPluginW2800@@UEAAX_N@Z 0000000180006b74 f   ConEmuPlugin2800.obj
 0001:00005ba0       ?UpdateConEmuTabsApi@CPluginW2800@@UEAA_NH@Z 0000000180006ba0 f   ConEmuPlugin2800.obj
 0001:0000651c       ?_Getal@?$vector@UWindowInfo@@V?$MArrayAllocator@UWindowInfo@@@@@std@@AEAAAEAV?$MArrayAllocator@UWindowInfo@@@@XZ 000000018000751c f i ConEmuPlugin2800.obj
 0001:00006520       ?_Xlength@?$vector@UtagPROCESSENTRY32W@@V?$MArrayAllocator@UtagPROCESSENTRY32W@@@@@std@@CAXXZ 0000000180007520 f i common-kernel64:MProcess.obj
 0001:00006520       ?_Xlength@?$vector@UWindowInfo@@V?$MArrayAllocator@UWindowInfo@@@@@std@@CAXXZ 0000000180007520 f i ConEmuPlugin2800.obj
 0001:00006534       ?deallocate@?$MArrayAllocator@UWindowInfo@@@@QEAAXPEAUWindowInfo@@_K@Z 0000000180007534 f i ConEmuPlugin2800.obj
 0001:0000654c       ?erase@?$MArray@UWindowInfo@@@@QEAAX_J0@Z 000000018000754c f i ConEmuPlugin2800.obj
 0001:000065e0       ?insert@?$MArray@UWindowInfo@@@@QEAA_J_JAEBUWindowInfo@@0@Z 00000001800075e0 f i ConEmuPlugin2800.obj
 0001:00006688       ?insert@?$vector@UWindowInfo@@V?$MArrayAllocator@UWindowInfo@@@@@std@@QEAA?AV?$_Vector_iterator@V?$_Vector_val@U?$_Simple_types@UWindowInfo@@@std@@@std@@@2@V?$_Vector_const_iterator@V?$_Vector_val@U?$_Simple_types@UWindowInfo@@@std@@@std@@@2@_KAEBUWindowInfo@@@Z 0000000180007688 f i ConEmuPlugin2800.obj
 0001:00006a94       ?push_back@?$MArray@UWindowInfo@@@@QEAA_JAEBUWindowInfo@@@Z 0000000180007a94 f i ConEmuPlugin2800.obj
 0001:00006b18       ?what@exception@std@@UEBAPEBDXZ 0000000180007b18 f i ConEmuPlugin2800.obj
 0001:00006b2c       GetGlobalInfoW             0000000180007b2c f   ConEmuPlugin2800.obj
 0001:00006bc4       ??0CPluginW995@@QEAA@XZ    0000000180007bc4 f   ConEmuPlugin995.obj
 0001:00006d5c       ??_ECPluginW995@@UEAAPEAXI@Z 0000000180007d5c f i ConEmuPlugin995.obj
 0001:00006d5c       ??_GCPluginW995@@UEAAPEAXI@Z 0000000180007d5c f i ConEmuPlugin995.obj
 0001:000071dc       ?CheckPanelExist@CPluginW995@@UEAA_NXZ 00000001800081dc f   ConEmuPlugin995.obj
 0001:00007214       ?ExecuteSynchroApi@CPluginW995@@UEAA_NXZ 0000000180008214 f   ConEmuPlugin995.obj
 0001:00007244       ?ExitFar@CPluginW995@@UEAAXXZ 0000000180008244 f   ConEmuPlugin995.obj
 0001:000072cc       ?GetActiveWindowType@CPluginW995@@UEAAHXZ 00000001800082cc f   ConEmuPlugin995.obj
 0001:000073ac       ?GetEditorModifiedState@CPluginW995@@UEAAKXZ 00000001800083ac f   ConEmuPlugin995.obj
 0001:00007404       ?GetFarRect@CPluginW995@@UEAA_NAEAU_SMALL_RECT@@@Z 0000000180008404 f   ConEmuPlugin995.obj
 0001:0000745c       ?GetMacroArea@CPluginW995@@UEAAHXZ 000000018000845c f   ConEmuPlugin995.obj
 0001:000074b4       ?GetMsg@CPluginW995@@UEAAPEB_WHPEA_W_K@Z 00000001800084b4 f   ConEmuPlugin995.obj
 0001:00007524       ?GetPanelDir@CPluginW995@@UEAAPEA_WKPEA_WH@Z 0000000180008524 f   ConEmuPlugin995.obj
 0001:00007648       ?GetPanelInfo@CPluginW995@@UEAA_NKPEAUCEPanelInfo@@@Z 0000000180008648 f   ConEmuPlugin995.obj
 0001:00007888       ?GetPanelItemInfo@CPluginW995@@UEAA_NAEBUCEPanelInfo@@_N_JAEAU_WIN32_FIND_DATAW@@PEAPEA_W@Z 0000000180008888 f   ConEmuPlugin995.obj
 0001:00007a30       ?GetPluginInfoPtr@CPluginW995@@UEAAXPEAX@Z 0000000180008a30 f   ConEmuPlugin995.obj
 0001:00007a9c       ?GetWindowCount@CPluginW995@@UEAAHXZ 0000000180008a9c f   ConEmuPlugin995.obj
 0001:00007ac8       ?GuiMacroDlg@CPluginW995@@UEAAXXZ 0000000180008ac8 f   ConEmuPlugin995.obj
 0001:00007ad0       ?InputBox@CPluginW995@@UEAA_NPEB_W000AEAPEA_W@Z 0000000180008ad0 f   ConEmuPlugin995.obj
 0001:00007b80       ?IsMacroActive@CPluginW995@@UEAA_NXZ 0000000180008b80 f   ConEmuPlugin995.obj
 0001:00007bf0       ?LoadFarColors@CPluginW995@@UEAAXAEAY0BAA@E@Z 0000000180008bf0 f   ConEmuPlugin995.obj
 0001:00007cac       ?LoadFarSettings@CPluginW995@@UEAAXPEAUCEFarInterfaceSettings@@PEAUCEFarPanelSettings@@@Z 0000000180008cac f   ConEmuPlugin995.obj
 0001:00007d08       ?Open@CPluginAnsi@@UEAAPEAXPEBX@Z 0000000180008d08 f i ConEmuPluginA.obj
 0001:00007d08       ?Open@CPluginW995@@UEAAPEAXPEBX@Z 0000000180008d08 f i ConEmuPlugin995.obj
 0001:00007d10       ?OpenEditor@CPluginW995@@UEAA_NPEB_W_N11HH@Z 0000000180008d10 f   ConEmuPlugin995.obj
 0001:00007e18       ?PanelControlApi@CPluginW995@@UEAA_JPEAXH_J0@Z 0000000180008e18 f   ConEmuPlugin995.obj
 0001:00007e5c       ?PostMacroApi@CPluginW995@@UEAAXPEB_WPEAU_INPUT_RECORD@@_N@Z 0000000180008e5c f   ConEmuPlugin995.obj
 0001:00007f04       ?ProcessEditorInputPtr@CPluginAnsi@@UEAAHPEBX@Z 0000000180008f04 f i ConEmuPluginA.obj
 0001:00007f04       ?ProcessSynchroEventPtr@CPluginW995@@UEAAHPEAX@Z 0000000180008f04 f i ConEmuPlugin995.obj
 0001:00007f04       ?ProcessViewerEventPtr@CPluginAnsi@@UEAAHPEAX@Z 0000000180008f04 f i ConEmuPluginA.obj
 0001:00007f04       ?ProcessSynchroEventPtr@CPluginAnsi@@UEAAHPEAX@Z 0000000180008f04 f i ConEmuPluginA.obj
 0001:00007f04       ?ProcessEditorEventPtr@CPluginAnsi@@UEAAHPEAX@Z 0000000180008f04 f i ConEmuPluginA.obj
 0001:00007f04       ?ProcessEditorEventPtr@CPluginW995@@UEAAHPEAX@Z 0000000180008f04 f i ConEmuPlugin995.obj
 0001:00007f04       ?ProcessViewerEventPtr@CPluginW995@@UEAAHPEAX@Z 0000000180008f04 f i ConEmuPlugin995.obj
 0001:00007f08       ?ProcessEditorInputPtr@CPluginW995@@UEAAHPEBX@Z 0000000180008f08 f   ConEmuPlugin995.obj
 0001:00007f24       ?RedrawAll@CPluginW995@@UEAAXXZ 0000000180008f24 f   ConEmuPlugin995.obj
 0001:00007f54       ?SetStartupInfoPtr@CPluginW995@@UEAAXPEAX@Z 0000000180008f54 f   ConEmuPlugin995.obj
 0001:00008094       ?SetWindow@CPluginW995@@UEAAXH@Z 0000000180009094 f   ConEmuPlugin995.obj
 0001:000080e0       ?ShowMessage@CPluginW995@@UEAAHPEB_WH_N@Z 00000001800090e0 f   ConEmuPlugin995.obj
 0001:00008140       ?ShowPluginMenu@CPluginW995@@UEAAHPEAUConEmuPluginMenuItem@@HH@Z 0000000180009140 f   ConEmuPlugin995.obj
 0001:0000827c       ?ShowUserScreen@CPluginW995@@UEAAX_N@Z 000000018000927c f   ConEmuPlugin995.obj
 0001:000082a8       ?StopWaitEndSynchro@CPluginW995@@UEAAXXZ 00000001800092a8 f   ConEmuPlugin995.obj
 0001:000082d8       ?UpdateConEmuTabsApi@CPluginW995@@UEAA_NH@Z 00000001800092d8 f   ConEmuPlugin995.obj
 0001:00008550       ?WaitEndSynchro@CPluginW995@@UEAAXXZ 0000000180009550 f   ConEmuPlugin995.obj
 0001:000086e4       ??0CPluginAnsi@@QEAA@XZ    00000001800096e4 f   ConEmuPluginA.obj
 0001:00008848       ??_ECPluginAnsi@@UEAAPEAXI@Z 0000000180009848 f i ConEmuPluginA.obj
 0001:00008848       ??_GCPluginAnsi@@UEAAPEAXI@Z 0000000180009848 f i ConEmuPluginA.obj
 0001:00008e00       ?CheckPanelExist@CPluginAnsi@@UEAA_NXZ 0000000180009e00 f   ConEmuPluginA.obj
 0001:00008e38       ?ExecuteSynchroApi@CPluginAnsi@@UEAA_NXZ 0000000180009e38 f i ConEmuPluginA.obj
 0001:00008e38       ?GetFarRect@CPluginAnsi@@UEAA_NAEAU_SMALL_RECT@@@Z 0000000180009e38 f i ConEmuPluginA.obj
 0001:00008e3c       ?ExitFar@CPluginAnsi@@UEAAXXZ 0000000180009e3c f   ConEmuPluginA.obj
 0001:00008e80       ?GetActiveWindowType@CPluginAnsi@@UEAAHXZ 0000000180009e80 f   ConEmuPluginA.obj
 0001:00008f04       ?GetEditorModifiedState@CPluginAnsi@@UEAAKXZ 0000000180009f04 f   ConEmuPluginA.obj
 0001:00008f5c       ?GetMacroArea@CPluginAnsi@@UEAAHXZ 0000000180009f5c f   ConEmuPluginA.obj
 0001:00008f5c       _get_startup_argv_mode     0000000180009f5c f   LIBCMT:argv_mode.obj
 0001:00008f64       ?GetMsg@CPluginAnsi@@UEAAPEB_WHPEA_W_K@Z 0000000180009f64 f   ConEmuPluginA.obj
 0001:00009004       ?GetPanelDir@CPluginAnsi@@UEAAPEA_WKPEA_WH@Z 000000018000a004 f   ConEmuPluginA.obj
 0001:000090fc       ?GetPanelInfo@CPluginAnsi@@UEAA_NKPEAUCEPanelInfo@@@Z 000000018000a0fc f   ConEmuPluginA.obj
 0001:00009350       ?GetPanelItemInfo@CPluginAnsi@@UEAA_NAEBUCEPanelInfo@@_N_JAEAU_WIN32_FIND_DATAW@@PEAPEA_W@Z 000000018000a350 f   ConEmuPluginA.obj
 0001:00009474       ?GetPluginInfoPtr@CPluginAnsi@@UEAAXPEAX@Z 000000018000a474 f   ConEmuPluginA.obj
 0001:00009500       ?GetWindowCount@CPluginAnsi@@UEAAHXZ 000000018000a500 f   ConEmuPluginA.obj
 0001:0000952c       ?GuiMacroDlg@CPluginAnsi@@UEAAXXZ 000000018000a52c f   ConEmuPluginA.obj
 0001:00009534       ?InputBox@CPluginAnsi@@UEAA_NPEB_W000AEAPEA_W@Z 000000018000a534 f   ConEmuPluginA.obj
 0001:00009694       ?IsMacroActive@CPluginAnsi@@UEAA_NXZ 000000018000a694 f   ConEmuPluginA.obj
 0001:00009708       ?LoadFarColors@CPluginAnsi@@UEAAXAEAY0BAA@E@Z 000000018000a708 f   ConEmuPluginA.obj
 0001:000097c8       ?LoadFarSettings@CPluginAnsi@@UEAAXPEAUCEFarInterfaceSettings@@PEAUCEFarPanelSettings@@@Z 000000018000a7c8 f   ConEmuPluginA.obj
 0001:00009828       ?OpenEditor@CPluginAnsi@@UEAA_NPEB_W_N11HH@Z 000000018000a828 f   ConEmuPluginA.obj
 0001:00009964       ?PanelControlApi@CPluginAnsi@@UEAA_JPEAXH_J0@Z 000000018000a964 f   ConEmuPluginA.obj
 0001:000099a0       ?PostMacroApi@CPluginAnsi@@UEAAXPEB_WPEAU_INPUT_RECORD@@_N@Z 000000018000a9a0 f   ConEmuPluginA.obj
 0001:00009a64       ?RedrawAll@CPluginAnsi@@UEAAXXZ 000000018000aa64 f   ConEmuPluginA.obj
 0001:00009a98       ?SetStartupInfoPtr@CPluginAnsi@@UEAAXPEAX@Z 000000018000aa98 f   ConEmuPluginA.obj
 0001:00009bdc       ?SetWindow@CPluginAnsi@@UEAAXH@Z 000000018000abdc f   ConEmuPluginA.obj
 0001:00009c30       ?ShowMessage@CPluginAnsi@@UEAAHPEB_WH_N@Z 000000018000ac30 f   ConEmuPluginA.obj
 0001:00009d0c       ?ShowPluginMenu@CPluginAnsi@@UEAAHPEAUConEmuPluginMenuItem@@HH@Z 000000018000ad0c f   ConEmuPluginA.obj
 0001:00009eac       ?ShowUserScreen@CPluginAnsi@@UEAAX_N@Z 000000018000aeac f   ConEmuPluginA.obj
 0001:00009ed8       ?UpdateConEmuTabsApi@CPluginAnsi@@UEAA_NH@Z 000000018000aed8 f   ConEmuPluginA.obj
 0001:0000a194       ??$swprintf_c@$0BAE@@@YAHAEAY0BAE@_WPEB_WZZ 000000018000b194 f i ConEmuPluginBase.obj
 0001:0000a1c0       ??$swprintf_c@$0DAM@@@YAHAEAY0DAM@_WPEB_WZZ 000000018000b1c0 f i ConEmuPluginBase.obj
 0001:0000a1ec       ??$swprintf_c@$0EAA@@@YAHAEAY0EAA@_WPEB_WZZ 000000018000b1ec f i ConEmuPluginBase.obj
 0001:0000a218       ??$swprintf_c@$0MI@@@YAHAEAY0MI@_WPEB_WZZ 000000018000b218 f i ConEmuPluginBase.obj
 0001:0000a244       ??$wcscpy_c@$0BBE@@@YAHAEAY0BBE@_WPEB_W@Z 000000018000b244 f i ConEmuPluginBase.obj
 0001:0000a290       ??$wcscpy_c@$0CAI@@@YAHAEAY0CAI@_WPEB_W@Z 000000018000b290 f i ConEmuPluginBase.obj
 0001:0000a2dc       ??0CPluginBase@@QEAA@XZ    000000018000b2dc f   ConEmuPluginBase.obj
 0001:0000a404       ??0MWow64Disable@@QEAA@XZ  000000018000b404 f i ConEmuPluginBase.obj
 0001:0000a478       ??1?$MFileMapping@UPanelViewSetMapping@@@@QEAA@XZ 000000018000b478 f i PluginBackground.obj
 0001:0000a478       ??1?$MFileMapping@UConEmuGuiMapping@@@@QEAA@XZ 000000018000b478 f i common-user64:ConEmuCheckEx.obj
 0001:0000a478       ??1?$MFileMapping@UCESERVER_CONSOLE_MAPPING_HDR@@@@QEAA@XZ 000000018000b478 f i ConEmuPluginBase.obj
 0001:0000a4cc       ??1CPluginBase@@UEAA@XZ    000000018000b4cc f   ConEmuPluginBase.obj
 0001:0000a4d8       ??1MWow64Disable@@QEAA@XZ  000000018000b4d8 f i ConEmuPluginBase.obj
 0001:0000a4fc       ??_ECPluginBase@@UEAAPEAXI@Z 000000018000b4fc f i ConEmuPluginBase.obj
 0001:0000a4fc       ??_GCPluginBase@@UEAAPEAXI@Z 000000018000b4fc f i ConEmuPluginBase.obj
 0001:0000a528       ?ActivatePlugin@CPluginBase@@QEAA_NKPEAXK@Z 000000018000b528 f   ConEmuPluginBase.obj
 0001:0000a6f4       ?AddTab@CPluginBase@@QEAA_NAEAHH_N1HPEB_W2HHHH@Z 000000018000b6f4 f   ConEmuPluginBase.obj
 0001:0000aa58       ?AddTabFinish@CPluginBase@@QEAAXH@Z 000000018000ba58 f   ConEmuPluginBase.obj
 0001:0000aa64       ?Attach2Gui@CPluginBase@@QEAA_N_N@Z 000000018000ba64 f   ConEmuPluginBase.obj
 0001:0000ae8c       ?BackgroundMacroError@CPluginBase@@SAKPEAX@Z 000000018000be8c f   ConEmuPluginBase.obj
 0001:0000aeb4       ?CheckBufferEnabled@CPluginBase@@QEAA_NXZ 000000018000beb4 f   ConEmuPluginBase.obj
 0001:0000af18       ?CheckConEmuDetached@CPluginBase@@SAXXZ 000000018000bf18 f   ConEmuPluginBase.obj
 0001:0000b14c       ?CheckResources@CPluginBase@@QEAAX_N@Z 000000018000c14c f   ConEmuPluginBase.obj
 0001:0000b32c       ?CloseMapHeader@CPluginBase@@SAXXZ 000000018000c32c f   ConEmuPluginBase.obj
 0001:0000b388       ?CloseTabs@CPluginBase@@SAXXZ 000000018000c388 f   ConEmuPluginBase.obj
 0001:0000b428       ?CommonPluginStartup@CPluginBase@@QEAAXXZ 000000018000c428 f   ConEmuPluginBase.obj
 0001:0000b534       ?CreateTabs@CPluginBase@@SA_NH@Z 000000018000c534 f   ConEmuPluginBase.obj
 0001:0000b5f4       ?DllCheckUnique@CPluginBase@@KA_N_N@Z 000000018000c5f4 f   ConEmuPluginBase.obj
 0001:0000b830       ?DllMain_ProcessAttach@CPluginBase@@KAXPEAUHINSTANCE__@@@Z 000000018000c830 f   ConEmuPluginBase.obj
 0001:0000b918       ?DllMain_ProcessDetach@CPluginBase@@KAXXZ 000000018000c918 f   ConEmuPluginBase.obj
 0001:0000ba00       ?EditViewConsoleOutput@CPluginBase@@QEAAX_N@Z 000000018000ca00 f   ConEmuPluginBase.obj
 0001:0000bad8       ?EmergencyShow@CPluginBase@@KAXXZ 000000018000cad8 f   ConEmuPluginBase.obj
 0001:0000bb34       ?ExecuteSynchro@CPluginBase@@QEAAXXZ 000000018000cb34 f   ConEmuPluginBase.obj
 0001:0000bbb8       ?ExitFarCommon@CPluginBase@@QEAAX_N@Z 000000018000cbb8 f   ConEmuPluginBase.obj
 0001:0000bbe4       ?FarSetConsoleSize@CPluginBase@@SA_NFF@Z 000000018000cbe4 f   ConEmuPluginBase.obj
 0001:0000bcf0       ?FillLoadedParm@CPluginBase@@SAXPEAUConEmuLoadedArg@@PEAUHINSTANCE__@@H@Z 000000018000ccf0 f   ConEmuPluginBase.obj
 0001:0000bdc8       ?FillUpdateBackground@CPluginBase@@QEAAXPEAUPaintBackgroundArg@@@Z 000000018000cdc8 f   ConEmuPluginBase.obj
 0001:0000bf44       ?FindServerCmd@CPluginBase@@QEAA_NKAEAK_N@Z 000000018000cf44 f   ConEmuPluginBase.obj
 0001:0000c040       ?GetMainThreadId@CPluginBase@@SAKXZ 000000018000d040 f   ConEmuPluginBase.obj
 0001:0000c0f0       ?GetPanelInfo@CPluginBase@@QEAA_NKPEAUBkPanelInfo@@@Z 000000018000d0f0 f   ConEmuPluginBase.obj
 0001:0000c194       ?InitHWND@CPluginBase@@SAXXZ 000000018000d194 f   ConEmuPluginBase.obj
 0001:0000c434       ?InitResources@CPluginBase@@QEAAXXZ 000000018000d434 f   ConEmuPluginBase.obj
 0001:0000c658       ?InitRootRegKey@CPluginBase@@IEAAXXZ 000000018000d658 f   ConEmuPluginBase.obj
 0001:0000c754       ?IsCurrentTabModal@CPluginBase@@QEAA_NXZ 000000018000d754 f   ConEmuPluginBase.obj
 0001:0000c910       ?LoadFarVersion@CPluginBase@@SA_NXZ 000000018000d910 f   ConEmuPluginBase.obj
 0001:0000cbc4       ?LoadPanelTabsFromRegistry@CPluginBase@@IEAAXXZ 000000018000dbc4 f   ConEmuPluginBase.obj
 0001:0000ccf0       ?MonitorThreadProcW@CPluginBase@@SAKPEAX@Z 000000018000dcf0 f   ConEmuPluginBase.obj
 0001:0000d0f4       ?NotifyConEmuUnloaded@CPluginBase@@SAXXZ 000000018000e0f4 f   ConEmuPluginBase.obj
 0001:0000d218       ?OnConsoleDetaching@CPluginBase@@SAHPEAUHookCallbackArg@@@Z 000000018000e218 f   ConEmuPluginBase.obj
 0001:0000d344       ?OnConsolePeekInput@CPluginBase@@SAHPEAUHookCallbackArg@@@Z 000000018000e344 f   ConEmuPluginBase.obj
 0001:0000d3ac       ?OnConsolePeekInputPost@CPluginBase@@SAHPEAUHookCallbackArg@@@Z 000000018000e3ac f   ConEmuPluginBase.obj
 0001:0000d3dc       ?OnConsolePeekReadInput@CPluginBase@@SAX_N@Z 000000018000e3dc f   ConEmuPluginBase.obj
 0001:0000d5d4       ?OnConsoleReadInput@CPluginBase@@SAHPEAUHookCallbackArg@@@Z 000000018000e5d4 f   ConEmuPluginBase.obj
 0001:0000d5dc       ?OnConsoleReadInputPost@CPluginBase@@SAHPEAUHookCallbackArg@@@Z 000000018000e5dc f   ConEmuPluginBase.obj
 0001:0000d78c       ?OnConsoleReadInputWork@CPluginBase@@SAHPEAUHookCallbackArg@@@Z 000000018000e78c f   ConEmuPluginBase.obj
 0001:0000d800       ?OnConsoleWasAttached@CPluginBase@@SAHPEAUHookCallbackArg@@@Z 000000018000e800 f   ConEmuPluginBase.obj
 0001:0000d868       ?OnCurDirChanged@CPluginBase@@SAXXZ 000000018000e868 f   ConEmuPluginBase.obj
 0001:0000d8cc       ?OnGetNumberOfConsoleInputEventsPost@CPluginBase@@SAHPEAUHookCallbackArg@@@Z 000000018000e8cc f   ConEmuPluginBase.obj
 0001:0000d900       ?OnLibraryLoaded@CPluginBase@@SAXPEAUHINSTANCE__@@@Z 000000018000e900 f   ConEmuPluginBase.obj
 0001:0000d9a0       ?OnMainThreadActivated@CPluginBase@@QEAAXXZ 000000018000e9a0 f   ConEmuPluginBase.obj
 0001:0000db44       ?OnPanelViewCallbacks@CPluginBase@@SA_NPEAUHookCallbackArg@@P6AHPEAXPEAU_INPUT_RECORD@@KPEAKPEAH@Z5@Z 000000018000eb44 f   ConEmuPluginBase.obj
 0001:0000dc1c       ?OnPostWriteConsoleOutput@CPluginBase@@SAHPEAUHookCallbackArg@@@Z 000000018000ec1c f   ConEmuPluginBase.obj
 0001:0000dc28       ?OnShellExecuteExW_Except@CPluginBase@@SAHPEAUHookCallbackArg@@@Z 000000018000ec28 f   ConEmuPluginBase.obj
 0001:0000dc68       ?OnWriteConsoleOutput@CPluginBase@@SAHPEAUHookCallbackArg@@@Z 000000018000ec68 f   ConEmuPluginBase.obj
 0001:0000dd3c       ?OpenMapHeader@CPluginBase@@SAHXZ 000000018000ed3c f   ConEmuPluginBase.obj
 0001:0000df98       ?OpenPluginCommon@CPluginBase@@QEAAPEAXH_J_N@Z 000000018000ef98 f   ConEmuPluginBase.obj
 0001:0000e278       ?OutDataAlloc@CPluginBase@@SA_NK@Z 000000018000f278 f   ConEmuPluginBase.obj
 0001:0000e2d8       ?OutDataRealloc@CPluginBase@@SA_NK@Z 000000018000f2d8 f   ConEmuPluginBase.obj
 0001:0000e3a4       ?OutDataWrite@CPluginBase@@SA_NPEAXK@Z 000000018000f3a4 f   ConEmuPluginBase.obj
 0001:0000e444       ?PanelControl@CPluginBase@@QEAA_JPEAXH_J0@Z 000000018000f444 f   ConEmuPluginBase.obj
 0001:0000e4dc       ?Plugin@@YAPEAVCPluginBase@@XZ 000000018000f4dc f   ConEmuPluginBase.obj
 0001:0000e5a4       ?PrintText@CPluginBase@@QEAA_NPEB_W@Z 000000018000f5a4 f   ConEmuPluginBase.obj
 0001:0000e6d0       ?ProcessCommand@CPluginBase@@QEAA_NKHPEAXPEAPEAUCESERVER_REQ@@_N@Z 000000018000f6d0 f   ConEmuPluginBase.obj
 0001:0000eb58       ?ProcessCommandLine@CPluginBase@@QEAA_NPEA_W@Z 000000018000fb58 f   ConEmuPluginBase.obj
 0001:0000eba4       ?ProcessDragFrom@CPluginBase@@QEAAXXZ 000000018000fba4 f   ConEmuPluginBase.obj
 0001:0000f028       ?ProcessDragTo@CPluginBase@@QEAAXXZ 0000000180010028 f   ConEmuPluginBase.obj
 0001:0000f338       ?ProcessEditorInputInternal@CPluginBase@@QEAAXAEBU_INPUT_RECORD@@@Z 0000000180010338 f   ConEmuPluginBase.obj
 0001:0000f364       ?ProcessEditorViewerEvent@CPluginBase@@QEAAHHH@Z 0000000180010364 f   ConEmuPluginBase.obj
 0001:0000f418       ?ProcessSetWindowCommand@CPluginBase@@QEAAXXZ 0000000180010418 f   ConEmuPluginBase.obj
 0001:0000f53c       ?ProcessSynchroEvent@CPluginBase@@QEAAHHPEAX@Z 000000018001053c f   ConEmuPluginBase.obj
 0001:0000f5c0       ?ReloadFarInfo@CPluginBase@@QEAA_N_N@Z 00000001800105c0 f   ConEmuPluginBase.obj
 0001:0000f840       ?ReloadFarInfoApi@CPluginBase@@IEAA_NXZ 0000000180010840 f   ConEmuPluginBase.obj
 0001:0000fa14       ?RunExternalProgram@CPluginBase@@QEAA_NPEA_W@Z 0000000180010a14 f   ConEmuPluginBase.obj
 0001:0000fb90       ?RunExternalProgramW@CPluginBase@@SA_NPEA_W0_N@Z 0000000180010b90 f   ConEmuPluginBase.obj
 0001:0000fdf4       ?SendTabs@CPluginBase@@SAXH_N@Z 0000000180010df4 f   ConEmuPluginBase.obj
 0001:0000ffb0       ?SetRootRegKey@CPluginBase@@IEAAXPEA_W@Z 0000000180010fb0 f   ConEmuPluginBase.obj
 0001:0001004c       ?ShowConsoleInfo@CPluginBase@@QEAAXXZ 000000018001104c f   ConEmuPluginBase.obj
 0001:00010250       ?ShowMessage@CPluginBase@@QEAAHHH@Z 0000000180011250 f   ConEmuPluginBase.obj
 0001:000102cc       ?ShowMessageBox@CPluginBase@@KAHPEB_WI@Z 00000001800112cc f   ConEmuPluginBase.obj
 0001:000103b0       ?ShowMessageGui@CPluginBase@@QEAAHHH@Z 00000001800113b0 f   ConEmuPluginBase.obj
 0001:00010438       ?ShowPanelsList@CPluginBase@@QEAAXXZ 0000000180011438 f   ConEmuPluginBase.obj
 0001:0001058c       ?ShowPluginMenu@CPluginBase@@QEAAXW4PluginCallCommands@@@Z 000000018001158c f   ConEmuPluginBase.obj
 0001:000107a0       ?ShowProtocolWarning@CPluginBase@@KAXXZ 00000001800117a0 f   ConEmuPluginBase.obj
 0001:00010918       ?ShowTabsList@CPluginBase@@QEAAXXZ 0000000180011918 f   ConEmuPluginBase.obj
 0001:00010ba4       ?StartDebugger@CPluginBase@@QEAA_NXZ 0000000180011ba4 f   ConEmuPluginBase.obj
 0001:00010e58       ?StopThread@CPluginBase@@QEAAX_N@Z 0000000180011e58 f   ConEmuPluginBase.obj
 0001:00011120       ?StorePanelDirs@CPluginBase@@QEAA_NPEB_W0@Z 0000000180012120 f   ConEmuPluginBase.obj
 0001:00011290       ?StringCchCatW@@YAJPEA_W_KPEB_W@Z 0000000180012290 f i ConEmuPluginBase.obj
 0001:00011350       ?StringCchCopyW@@YAJPEA_W_KPEB_W@Z 0000000180012350 f i ConEmuPluginBase.obj
 0001:000113bc       ?SwitchTabCommand@CPluginBase@@QEAAXW4PluginMenuCommands@@@Z 00000001800123bc f   ConEmuPluginBase.obj
 0001:00011440       ?ToOem@CPluginBase@@SAPEADPEB_W@Z 0000000180012440 f   ConEmuPluginBase.obj
 0001:0001149c       ?ToOem@CPluginBase@@SAXPEB_WPEAD_J@Z 000000018001249c f   ConEmuPluginBase.obj
 0001:000114dc       ?ToUnicode@CPluginBase@@SAPEA_WPEBD@Z 00000001800124dc f   ConEmuPluginBase.obj
 0001:0001155c       ?TouchReadPeekConsoleInputs@CPluginBase@@SAXH@Z 000000018001255c f   ConEmuPluginBase.obj
 0001:000115a8       ?UngetDummyMouseEvent@CPluginBase@@SA_N_NPEAUHookCallbackArg@@@Z 00000001800125a8 f   ConEmuPluginBase.obj
 0001:00011754       ?UpdateConEmuTabs@CPluginBase@@QEAA_N_N@Z 0000000180012754 f   ConEmuPluginBase.obj
 0001:000119d4       ?UpdatePanelDirs@CPluginBase@@QEAAXXZ 00000001800129d4 f   ConEmuPluginBase.obj
 0001:00011b98       ?WaitPluginActivation@CPluginBase@@SAKKPEAPEAXHK@Z 0000000180012b98 f   ConEmuPluginBase.obj
 0001:00011ca8       ?cmd_CloseQSearch@CPluginBase@@QEAAXXZ 0000000180012ca8 f   ConEmuPluginBase.obj
 0001:00011ce4       ?cmd_ConSetFont@CPluginBase@@QEAAXPEAX@Z 0000000180012ce4 f   ConEmuPluginBase.obj
 0001:00011d38       ?cmd_EMenu@CPluginBase@@QEAAXPEAX@Z 0000000180012d38 f   ConEmuPluginBase.obj
 0001:00011e54       ?cmd_ExternalCallback@CPluginBase@@QEAA_NPEAX@Z 0000000180012e54 f   ConEmuPluginBase.obj
 0001:00011eb8       ?cmd_GuiChanged@CPluginBase@@QEAAXPEAX@Z 0000000180012eb8 f   ConEmuPluginBase.obj
 0001:00011f44       ?cmd_LeftClickSync@CPluginBase@@QEAAXPEAX@Z 0000000180012f44 f   ConEmuPluginBase.obj
 0001:00012030       ?cmd_OpenEditorLine@CPluginBase@@QEAA_NPEAUCESERVER_REQ_FAREDITOR@@@Z 0000000180013030 f   ConEmuPluginBase.obj
 0001:000120fc       ?cmd_RedrawFarCall@CPluginBase@@QEAA_NAEAPEAUCESERVER_REQ@@PEAPEAU2@@Z 00000001800130fc f   ConEmuPluginBase.obj
 0001:000121d0       ?cmd_SetWindow@CPluginBase@@QEAA_NPEAX_N@Z 00000001800131d0 f   ConEmuPluginBase.obj
 0001:0001225c       ?isMacroActive@CPluginBase@@QEAA_NAEAH@Z 000000018001325c f   ConEmuPluginBase.obj
 0001:00012298       ?isModalEditorViewer@CPluginBase@@QEAA_NXZ 0000000180013298 f   ConEmuPluginBase.obj
 0001:000122c4       ?pcc_Disabled@CPluginBase@@SA_NW4PluginMenuCommands@@@Z 00000001800132c4 f   ConEmuPluginBase.obj
 0001:00012338       ?pcc_Selected@CPluginBase@@SA_NW4PluginMenuCommands@@@Z 0000000180013338 f   ConEmuPluginBase.obj
 0001:00012394       ??0CPluginBackground@@QEAA@XZ 0000000180013394 f   PluginBackground.obj
 0001:0001254c       ??1CPluginBackground@@QEAA@XZ 000000018001354c f   PluginBackground.obj
 0001:000126b4       ?CheckPanelFolders@CPluginBackground@@IEAAXH@Z 00000001800136b4 f   PluginBackground.obj
 0001:00012784       ?IsParmChanged@CPluginBackground@@IEAA_NPEAUPaintBackgroundArg@@0@Z 0000000180013784 f   PluginBackground.obj
 0001:000129fc       ?LoadThSet@CPluginBackground@@IEAAHH@Z 00000001800139fc f   PluginBackground.obj
 0001:00012df8       ?MonitorBackground@CPluginBackground@@QEAAXXZ 0000000180013df8 f   PluginBackground.obj
 0001:00012e60       ?OnMainThreadActivated@CPluginBackground@@QEAAXHH@Z 0000000180013e60 f   PluginBackground.obj
 0001:00012f24       ?ReallocItems@CPluginBackground@@IEAAXH@Z 0000000180013f24 f   PluginBackground.obj
 0001:00012f8c       ?RegisterSubplugin@CPluginBackground@@QEAAHPEAURegisterBackgroundArg@@@Z 0000000180013f8c f   PluginBackground.obj
 0001:00013214       ?SetDcPanelRect@CPluginBackground@@IEAAXPEAUtagRECT@@PEAUBkPanelInfo@@PEAUPaintBackgroundArg@@@Z 0000000180014214 f   PluginBackground.obj
 0001:000132e8       ?SetForceThLoad@CPluginBackground@@QEAAXXZ 00000001800142e8 f   PluginBackground.obj
 0001:00013300       ?SetForceUpdate@CPluginBackground@@QEAAX_N@Z 0000000180014300 f   PluginBackground.obj
 0001:00013320       ?UpdateBackground@CPluginBackground@@IEAAXXZ 0000000180014320 f   PluginBackground.obj
 0001:00013b94       ?UpdateBackground_Exec@CPluginBackground@@KAXPEAURegisterBackgroundArg@@PEAUPaintBackgroundArg@@@Z 0000000180014b94 f   PluginBackground.obj
 0001:00013bd8       ??$swprintf_c@$09@@YAHAEAY09_WPEB_WZZ 0000000180014bd8 f i PluginSrv.obj
 0001:00013c04       ??$wcscpy_c@$0BAE@@@YAHAEAY0BAE@_WPEB_W@Z 0000000180014c04 f i PluginSrv.obj
 0001:00013c50       ?DumpError@?$PipeServer@UCESERVER_REQ@@@@IEAAXPEAUPipeInst@1@PEB_WH@Z 0000000180014c50 f i PluginSrv.obj
 0001:00013d64       ?PipeServerRead@?$PipeServer@UCESERVER_REQ@@@@IEAAHPEAUPipeInst@1@@Z 0000000180014d64 f i PluginSrv.obj
 0001:00014000       ?PipeServerThread@?$PipeServer@UCESERVER_REQ@@@@IEAAKPEAUPipeInst@1@@Z 0000000180015000 f i PluginSrv.obj
 0001:000142d0       ?PipeServerWrite@?$PipeServer@UCESERVER_REQ@@@@IEAAHPEAUPipeInst@1@PEBXKPEAKH@Z 00000001800152d0 f i PluginSrv.obj
 0001:000143fc       ?PlugServerCommand@@YAHPEAXPEAUCESERVER_REQ@@AEAPEAU1@AEAK3_J@Z 00000001800153fc f   PluginSrv.obj
 0001:0001493c       ?PlugServerFree@@YAXPEAUCESERVER_REQ@@_J@Z 000000018001593c f   PluginSrv.obj
 0001:00014954       ?PlugServerStart@@YA_NXZ   0000000180015954 f   PluginSrv.obj
 0001:00014a68       ?PlugServerStop@@YAX_N@Z   0000000180015a68 f   PluginSrv.obj
 0001:00014ab0       ?StartPipeInstance@?$PipeServer@UCESERVER_REQ@@@@IEAA_NPEAUPipeInst@1@@Z 0000000180015ab0 f i PluginSrv.obj
 0001:00014c40       ?StartPipeServer@?$PipeServer@UCESERVER_REQ@@@@QEAA_N_NPEB_W_JPEAU_SECURITY_ATTRIBUTES@@P6AHPEAXPEAUCESERVER_REQ@@AEAPEAU3@AEAK72@ZP6AX52@ZP6AH42@ZP6AH42@ZP6AH42@Z@Z 0000000180015c40 f i PluginSrv.obj
 0001:00014dc4       ?StopPipeServer@?$PipeServer@UCESERVER_REQ@@@@QEAAX_NAEA_N@Z 0000000180015dc4 f i PluginSrv.obj
 0001:0001514c       ?WaitForClient@?$PipeServer@UCESERVER_REQ@@@@IEAA_NPEAUPipeInst@1@AEAH1@Z 000000018001614c f i PluginSrv.obj
 0001:00015464       ?WaitOverlapped@?$PipeServer@UCESERVER_REQ@@@@IEAAHPEAUPipeInst@1@PEAK@Z 0000000180016464 f i PluginSrv.obj
 0001:00015638       ?WriteDummyAnswer@?$PipeServer@UCESERVER_REQ@@@@IEAAHPEAUPipeInst@1@@Z 0000000180016638 f i PluginSrv.obj
 0001:000156b8       ?_PipeServerThread@?$PipeServer@UCESERVER_REQ@@@@KAKPEAX@Z 00000001800166b8 f i PluginSrv.obj
 0001:00015714       ?cmd_FarSetChanged@@YAXPEAUFAR_REQ_FARSETCHANGED@@@Z 0000000180016714 f   PluginSrv.obj
 0001:0001576e       GetFileVersionInfoSizeW    000000018001676e f   version:VERSION.dll
 0001:00015774       GetFileVersionInfoW        0000000180016774 f   version:VERSION.dll
 0001:0001577a       VerQueryValueW             000000018001677a f   version:VERSION.dll
 0001:00015780       CreateToolhelp32Snapshot   0000000180016780 f   kernel32:KERNEL32.dll
 0001:00015786       Thread32First              0000000180016786 f   kernel32:KERNEL32.dll
 0001:0001578c       Thread32Next               000000018001678c f   kernel32:KERNEL32.dll
 0001:00015792       Module32FirstW             0000000180016792 f   kernel32:KERNEL32.dll
 0001:00015798       Module32NextW              0000000180016798 f   kernel32:KERNEL32.dll
 0001:000157a0       ??2@YAPEAX_K@Z             00000001800167a0 f   common-kernel64:Memory.obj
 0001:000157c8       ??_V@YAXPEAX@Z             00000001800167c8 f   common-kernel64:Memory.obj
 0001:000157c8       ??3@YAXPEAX@Z              00000001800167c8 f   common-kernel64:Memory.obj
 0001:000157d0       ??_U@YAPEAX_K@Z            00000001800167d0 f   common-kernel64:Memory.obj
 0001:000157d8       ?HeapDeinitialize@@YAXXZ   00000001800167d8 f   common-kernel64:Memory.obj
 0001:00015838       ?HeapInitialize@@YA_NXZ    0000000180016838 f   common-kernel64:Memory.obj
 0001:00015874       ?xf_calloc@@YAPEAX_K0@Z    0000000180016874 f   common-kernel64:Memory.obj
 0001:000158a4       ?xf_free@@YAXPEAX@Z        00000001800168a4 f   common-kernel64:Memory.obj
 0001:00015918       ?xf_malloc@@YAPEAX_K@Z     0000000180016918 f   common-kernel64:Memory.obj
 0001:00015940       ?xf_realloc@@YAPEAXPEAX_K@Z 0000000180016940 f   common-kernel64:Memory.obj
 0001:00015968       ??$wcscpy_c@$0CA@@@YAHAEAY0CA@_WPEB_W@Z 0000000180016968 f i common-kernel64:ConEmuCheck.obj
 0001:000159b4       ?ExecuteCmd@@YAPEAUCESERVER_REQ@@PEB_WPEAU1@KPEAUHWND__@@HKH@Z 00000001800169b4 f   common-kernel64:ConEmuCheck.obj
 0001:00015b9c       ?ExecuteFreeResult@@YAXAEAPEAUCESERVER_REQ@@@Z 0000000180016b9c f   common-kernel64:ConEmuCheck.obj
 0001:00015bbc       ?ExecuteGuiCmd@@YAPEAUCESERVER_REQ@@PEAUHWND__@@PEAU1@0H@Z 0000000180016bbc f   common-kernel64:ConEmuCheck.obj
 0001:00015c7c       ?ExecuteNewCmd@@YAPEAUCESERVER_REQ@@K_K@Z 0000000180016c7c f   common-kernel64:ConEmuCheck.obj
 0001:00015ce0       ?ExecuteNewCmd@@YA_NAEAPEAUCESERVER_REQ@@AEAKK_K@Z 0000000180016ce0 f   common-kernel64:ConEmuCheck.obj
 0001:00015dd4       ?ExecuteOpenPipe@@YAPEAXPEB_WAEAY0CAI@_W0KKHPEAXH@Z 0000000180016dd4 f   common-kernel64:ConEmuCheck.obj
 0001:00015f84       ?ExecutePrepareCmd@@YAXPEAUCESERVER_REQ@@K_K@Z 0000000180016f84 f   common-kernel64:ConEmuCheck.obj
 0001:00015fc0       ?ExecutePrepareCmd@@YAXPEAUCESERVER_REQ_HDR@@K_K@Z 0000000180016fc0 f   common-kernel64:ConEmuCheck.obj
 0001:00016030       ?ExecuteSrvCmd@@YAPEAUCESERVER_REQ@@KPEAU1@PEAUHWND__@@HKH@Z 0000000180017030 f   common-kernel64:ConEmuCheck.obj
 0001:00016104       ?GetConEmuHWND@@YAPEAUHWND__@@H@Z 0000000180017104 f   common-kernel64:ConEmuCheck.obj
 0001:00016248       ?GuiMessageBox@@YAHPEAUHWND__@@PEB_W1H@Z 0000000180017248 f   common-kernel64:ConEmuCheck.obj
 0001:000163b0       ?LoadSrvMapping@@YAHPEAUHWND__@@AEAUCESERVER_CONSOLE_MAPPING_HDR@@@Z 00000001800173b0 f   common-kernel64:ConEmuCheck.obj
 0001:00016618       ?ModuleName@@YAPEB_WPEB_W@Z 0000000180017618 f   common-kernel64:ConEmuCheck.obj
 0001:000166d8       ?isConsoleClass@@YA_NPEB_W@Z 00000001800176d8 f   common-kernel64:ConEmuCheck.obj
 0001:00016728       ?isConsoleWindow@@YA_NPEAUHWND__@@@Z 0000000180017728 f   common-kernel64:ConEmuCheck.obj
 0001:00016818       ?myGetConsoleWindow@@YAPEAUHWND__@@XZ 0000000180017818 f   common-kernel64:ConEmuCheck.obj
 0001:000168b4       ?StringCchVPrintfA@@YAJPEAD_KPEBD0@Z 00000001800178b4 f i common-kernel64:MStrSafe.obj
 0001:0001695c       ?lstrcmpni@@YAHPEB_W0H@Z   000000018001795c f   common-kernel64:MStrSafe.obj
 0001:00016a70       ?msprintf@@YAPEB_WPEA_W_KPEB_WZZ 0000000180017a70 f   common-kernel64:MStrSafe.obj
 0001:00016e80       ?sprintf_c@@YAHPEAD_JPEBDZZ 0000000180017e80 f   common-kernel64:MStrSafe.obj
 0001:00016ec0       ?swprintf_c@@YAHPEA_W_JPEB_WZZ 0000000180017ec0 f   common-kernel64:MStrSafe.obj
 0001:00016f00       ?IsFilePath@@YA_NPEB_W_N@Z 0000000180017f00 f   common-kernel64:CmdLine.obj
 0001:00017050       ?PointToExt@@YAPEB_WPEB_W@Z 0000000180018050 f   common-kernel64:CmdLine.obj
 0001:00017074       ?PointToName@@YAPEB_WPEB_W@Z 0000000180018074 f   common-kernel64:CmdLine.obj
 0001:000170d0       ?Unquote@@YAPEB_WPEA_W_N@Z 00000001800180d0 f   common-kernel64:CmdLine.obj
 0001:00017138       ??$sprintf_c@$0CI@@@YAHAEAY0CI@DPEBDZZ 0000000180018138 f i common-kernel64:WThreads.obj
 0001:00017164       ?SetThreadName@@YAXKPEAD@Z 0000000180018164 f   common-kernel64:WThreads.obj
 0001:0001719c       ?apiCreateThread@@YAPEAXP6AKPEAX@Z0PEAKPEBDH@Z 000000018001819c f   common-kernel64:WThreads.obj
 0001:000172e4       ?apiTerminateThreadEx@@YAHPEAXKPEBDH@Z 00000001800182e4 f   common-kernel64:WThreads.obj
 0001:000173ec       ?apiThreadHelper@@YAKPEAX@Z 00000001800183ec f   common-kernel64:WThreads.obj
 0001:000175f8       ?lstrdup@@YAPEA_WPEB_W_K@Z 00000001800185f8 f   common-kernel64:MStrDup.obj
 0001:0001766c       ?lstrmerge@@YAPEA_WPEB_W00000000@Z 000000018001866c f   common-kernel64:MStrDup.obj
 0001:000177b0       ?lstrmerge@@YA_NPEAPEA_WPEB_W1111111@Z 00000001800187b0 f   common-kernel64:MStrDup.obj
 0001:00017828       ??0CEnvStrings@@QEAA@PEA_W@Z 0000000180018828 f   common-kernel64:EnvVar.obj
 0001:0001789c       ??1CEnvStrings@@QEAA@XZ    000000018001889c f   common-kernel64:EnvVar.obj
 0001:000178c0       ?Clear@CEnvRestorer@@QEAAXXZ 00000001800188c0 f   common-kernel64:EnvVar.obj
 0001:000178e8       ?ExpandEnvStr@@YAPEA_WPEB_W@Z 00000001800188e8 f   common-kernel64:EnvVar.obj
 0001:00017994       ?GetEnvVar@@YAPEA_WPEB_W@Z 0000000180018994 f   common-kernel64:EnvVar.obj
 0001:00017a38       ?SavePathVar@CEnvRestorer@@QEAAXPEB_W@Z 0000000180018a38 f   common-kernel64:EnvVar.obj
 0001:00017a6c       ?CommonShutdown@@YAXXZ     0000000180018a6c f   common-kernel64:Common.obj
 0001:00017a7c       ?IsEnvBlockVariableValid@@YA_NPEB_W@Z 0000000180018a7c f   common-kernel64:Common.obj
 0001:00017ab0       ?IsEnvBlockVariableValid@@YA_NPEB_WAEAPEB_W@Z 0000000180018ab0 f   common-kernel64:Common.obj
 0001:00017b04       ?SetCommand@CESERVER_REQ_NEWCMD@@QEAAXPEB_W@Z 0000000180018b04 f   common-kernel64:Common.obj
 0001:00017b6c       ?SetEnvStrings@CESERVER_REQ_NEWCMD@@QEAAXPEB_WK@Z 0000000180018b6c f   common-kernel64:Common.obj
 0001:00017c84       ??_GMNullDesc@@QEAAPEAXI@Z 0000000180018c84 f i common-kernel64:MSecurity.obj
 0001:00017cf8       ?LoadAdvApi@MNullDesc@@IEAAHXZ 0000000180018cf8 f i common-kernel64:MSecurity.obj
 0001:00017eac       ?LocalSecurity@@YAPEAU_SECURITY_ATTRIBUTES@@XZ 0000000180018eac f   common-kernel64:MSecurity.obj
 0001:00017f04       ?LocalSecurity@MNullDesc@@QEAAPEAU_SECURITY_ATTRIBUTES@@XZ 0000000180018f04 f i common-kernel64:MSecurity.obj
 0001:00018080       ?ShutdownSecurity@@YAXXZ   0000000180019080 f   common-kernel64:MSecurity.obj
 0001:000180a8       ??0CEStr@@QEAA@$$QEAPEA_W@Z 00000001800190a8 f   common-kernel64:CEStr.obj
 0001:000180c8       ??0CEStr@@QEAA@PEB_W00000000@Z 00000001800190c8 f   common-kernel64:CEStr.obj
 0001:00018160       ??0CEStr@@QEAA@XZ          0000000180019160 f   common-kernel64:CEStr.obj
 0001:00018170       ??0bad_alloc@stdext@@QEAA@AEBV01@@Z 0000000180019170 f i common-kernel64:CEStr.obj
 0001:00018190       ??0bad_alloc@stdext@@QEAA@XZ 0000000180019190 f i common-kernel64:CEStr.obj
 0001:000181ac       ??0exception@stdext@@QEAA@AEBV01@@Z 00000001800191ac f i common-kernel64:CEStr.obj
 0001:000181c4       ??1CEStr@@QEAA@XZ          00000001800191c4 f   common-kernel64:CEStr.obj
 0001:000181e4       ??1bad_alloc@stdext@@UEAA@XZ 00000001800191e4 f i common-kernel64:CEStr.obj
 0001:000181f0       ??4CEStr@@QEAAAEAU0@PEB_W@Z 00000001800191f0 f   common-kernel64:CEStr.obj
 0001:00018210       ??BCEStr@@QEBAPEB_WXZ      0000000180019210 f   common-kernel64:CEStr.obj
 0001:00018214       ??_Gexception@stdext@@UEAAPEAXI@Z 0000000180019214 f i common-kernel64:CEStr.obj
 0001:00018214       ??_Eexception@stdext@@UEAAPEAXI@Z 0000000180019214 f i common-kernel64:CEStr.obj
 0001:00018214       ??_Ebad_alloc@stdext@@UEAAPEAXI@Z 0000000180019214 f i common-kernel64:CEStr.obj
 0001:00018214       ??_Gbad_alloc@stdext@@UEAAPEAXI@Z 0000000180019214 f i common-kernel64:CEStr.obj
 0001:00018240       ?AttachInt@CEStr@@AEAAPEB_WAEAPEA_W@Z 0000000180019240 f   common-kernel64:CEStr.obj
 0001:000182b8       ?Clear@CEStr@@QEAAXW4StrClearFlags@@@Z 00000001800192b8 f   common-kernel64:CEStr.obj
 0001:000182e0       ?GetBuffer@CEStr@@QEAAPEA_W_J@Z 00000001800192e0 f   common-kernel64:CEStr.obj
 0001:000183a0       ?GetLen@CEStr@@QEBA_JXZ    00000001800193a0 f   common-kernel64:CEStr.obj
 0001:000183c8       ?GetMaxCount@CEStr@@QEAA_JXZ 00000001800193c8 f   common-kernel64:CEStr.obj
 0001:000183f4       ?Set@CEStr@@QEAAPEB_WPEB_W_J@Z 00000001800193f4 f   common-kernel64:CEStr.obj
 0001:000184dc       ?StringCchCopyNW@@YAJPEA_W_KPEB_W1@Z 00000001800194dc f i common-kernel64:CEStr.obj
 0001:00018550       ?_Doraise@bad_alloc@stdext@@MEBAXXZ 0000000180019550 f i common-kernel64:CEStr.obj
 0001:0001856c       ?what@exception@stdext@@UEBAPEBDXZ 000000018001956c f i common-kernel64:CEStr.obj
 0001:00018580       ?FileExists@@YA_NPEB_WPEAK@Z 0000000180019580 f   common-kernel64:WObjects.obj
 0001:00018700       ?IsWin6@@YA_NXZ            0000000180019700 f   common-kernel64:WObjects.obj
 0001:00018734       ?IsWinVerOrHigher@@YA_NG@Z 0000000180019734 f   common-kernel64:WObjects.obj
 0001:000187c8       ?IsWindows64@@YA_NXZ       00000001800197c8 f   common-kernel64:WObjects.obj
 0001:000187ec       ?_VerifyVersionInfo@@YA_NPEAU_OSVERSIONINFOEXW@@K_K@Z 00000001800197ec f   common-kernel64:WObjects.obj
 0001:0001889c       ?Init@HkFunc@@QEAA_NPEB_WPEAUHINSTANCE__@@@Z 000000018001989c f   common-kernel64:HkFunc.obj
 0001:0001892c       ?isConEmuHk@HkFunc@@QEAA_NXZ 000000018001992c f   common-kernel64:HkFunc.obj
 0001:00018934       ??$_Emplace_reallocate@AEBUtagPROCESSENTRY32W@@@?$vector@UtagPROCESSENTRY32W@@V?$MArrayAllocator@UtagPROCESSENTRY32W@@@@@std@@QEAAPEAUtagPROCESSENTRY32W@@QEAU2@AEBU2@@Z 0000000180019934 f i common-kernel64:MProcess.obj
 0001:00018b24       ??$emplace_back@AEBUtagPROCESSENTRY32W@@@?$vector@UtagPROCESSENTRY32W@@V?$MArrayAllocator@UtagPROCESSENTRY32W@@@@@std@@QEAAXAEBUtagPROCESSENTRY32W@@@Z 0000000180019b24 f i common-kernel64:MProcess.obj
 0001:00018bc0       ??0?$MToolHelp@UtagPROCESSENTRY32W@@$1?Process32FirstW@@YAHPEAXPEAU1@@Z$1?Process32NextW@@YAH01@Z@@QEAA@KK@Z 0000000180019bc0 f i common-kernel64:MProcess.obj
 0001:00018c2c       ??_EMToolHelpProcess@@UEAAPEAXI@Z 0000000180019c2c f i common-kernel64:MProcess.obj
 0001:00018c2c       ??_G?$MToolHelp@UtagPROCESSENTRY32W@@$1?Process32FirstW@@YAHPEAXPEAU1@@Z$1?Process32NextW@@YAH01@Z@@UEAAPEAXI@Z 0000000180019c2c f i common-kernel64:MProcess.obj
 0001:00018c2c       ??_GMToolHelpProcess@@UEAAPEAXI@Z 0000000180019c2c f i common-kernel64:MProcess.obj
 0001:00018c2c       ??_E?$MToolHelp@UtagPROCESSENTRY32W@@$1?Process32FirstW@@YAHPEAXPEAU1@@Z$1?Process32NextW@@YAH01@Z@@UEAAPEAXI@Z 0000000180019c2c f i common-kernel64:MProcess.obj
 0001:00018c98       ?Close@?$MToolHelp@UtagPROCESSENTRY32W@@$1?Process32FirstW@@YAHPEAXPEAU1@@Z$1?Process32NextW@@YAH01@Z@@QEAAX_N@Z 0000000180019c98 f i common-kernel64:MProcess.obj
 0001:00018d18       __acrt_uninitialize_command_line 0000000180019d18 f i libucrt:argv_data.obj
 0001:00018d18       ?Filter@?$MToolHelp@UtagPROCESSENTRY32W@@$1?Process32FirstW@@YAHPEAXPEAU1@@Z$1?Process32NextW@@YAH01@Z@@MEAA_NPEAUtagPROCESSENTRY32W@@@Z 0000000180019d18 f i common-kernel64:MProcess.obj
 0001:00018d1c       ?Find@?$MToolHelp@UtagPROCESSENTRY32W@@$1?Process32FirstW@@YAHPEAXPEAU1@@Z$1?Process32NextW@@YAH01@Z@@QEAA_NP6A_NPEAUtagPROCESSENTRY32W@@_J@Z10@Z 0000000180019d1c f i common-kernel64:MProcess.obj
 0001:00018e24       ?Next@?$MToolHelp@UtagPROCESSENTRY32W@@$1?Process32FirstW@@YAHPEAXPEAU1@@Z$1?Process32NextW@@YAH01@Z@@QEAA_NPEAUtagPROCESSENTRY32W@@@Z 0000000180019e24 f i common-kernel64:MProcess.obj
 0001:00018ea4       ?compare@cmp@?1??Find@MToolHelpProcess@@QEAA_NKPEAUtagPROCESSENTRY32W@@@Z@SA_N0_J@Z 0000000180019ea4 f i common-kernel64:MProcess.obj
 0001:00018eac       ?getNext@?$MToolHelp@UtagPROCESSENTRY32W@@$1?Process32FirstW@@YAHPEAXPEAU1@@Z$1?Process32NextW@@YAH01@Z@@IEAA_NXZ 0000000180019eac f i common-kernel64:MProcess.obj
 0001:00018f70       ?isTerminalMode@@YA_NXZ    0000000180019f70 f   common-kernel64:MProcess.obj
 0001:000190c8       ??0MSection@@QEAA@XZ       000000018001a0c8 f   common-kernel64:MSection.obj
 0001:00019150       ??0MSectionLock@@QEAA@XZ   000000018001a150 f   common-kernel64:MSection.obj
 0001:00019160       ??0MSectionThread@@QEAA@PEAVMSection@@@Z 000000018001a160 f   common-kernel64:MSection.obj
 0001:00019180       ??1MSection@@QEAA@XZ       000000018001a180 f   common-kernel64:MSection.obj
 0001:000191e8       ??1MSectionLock@@QEAA@XZ   000000018001a1e8 f   common-kernel64:MSection.obj
 0001:0001920c       ??1MSectionThread@@QEAA@XZ 000000018001a20c f   common-kernel64:MSection.obj
 0001:00019248       ?AddRef@MSection@@IEAAXK@Z 000000018001a248 f   common-kernel64:MSection.obj
 0001:000192dc       ?Lock@MSection@@IEAAHHK@Z  000000018001a2dc f   common-kernel64:MSection.obj
 0001:000193d8       ?Lock@MSectionLock@@QEAAHPEAVMSection@@HK@Z 000000018001a3d8 f   common-kernel64:MSection.obj
 0001:0001942c       ?MyEnterCriticalSection@MSection@@IEAA_NK@Z 000000018001a42c f   common-kernel64:MSection.obj
 0001:00019558       ?ReleaseRef@MSection@@IEAAHK@Z 000000018001a558 f   common-kernel64:MSection.obj
 0001:000195f8       ?Unlock@MSection@@IEAAXH@Z 000000018001a5f8 f   common-kernel64:MSection.obj
 0001:00019650       ?Unlock@MSectionLock@@QEAAXXZ 000000018001a650 f   common-kernel64:MSection.obj
 0001:0001967c       ?WaitUnlocked@MSection@@IEAAXKK@Z 000000018001a67c f   common-kernel64:MSection.obj
 0001:00019710       ?CheckCallbackPtr@@YA_NPEAUHINSTANCE__@@_KPEAP6A_JXZHHH@Z 000000018001a710 f   common-kernel64:WModuleCheck.obj
 0001:00019818       ?IsModuleValid@@YA_NPEAUHINSTANCE__@@H@Z 000000018001a818 f   common-kernel64:WModuleCheck.obj
 0001:00019920       ??0MModule@@QEAA@PEAUHINSTANCE__@@@Z 000000018001a920 f   common-kernel64:MModule.obj
 0001:0001992c       ??1MModule@@QEAA@XZ        000000018001a92c f   common-kernel64:MModule.obj
 0001:00019934       ?Free@MModule@@QEAAXXZ     000000018001a934 f   common-kernel64:MModule.obj
 0001:00019964       ??0MSectionSimple@@QEAA@_N@Z 000000018001a964 f   common-kernel64:MSectionSimple.obj
 0001:000199a0       ?Close@MSectionSimple@@QEAAXXZ 000000018001a9a0 f   common-kernel64:MSectionSimple.obj
 0001:000199a0       ??1MSectionSimple@@QEAA@XZ 000000018001a9a0 f   common-kernel64:MSectionSimple.obj
 0001:000199c0       ?Enter@MSectionSimple@@QEAAXXZ 000000018001a9c0 f   common-kernel64:MSectionSimple.obj
 0001:000199c8       ?Init@MSectionSimple@@QEAAXXZ 000000018001a9c8 f   common-kernel64:MSectionSimple.obj
 0001:000199e8       ?Leave@MSectionSimple@@QEAAXXZ 000000018001a9e8 f   common-kernel64:MSectionSimple.obj
 0001:000199f0       ?RecreateAndLock@MSectionSimple@@QEAA_NXZ 000000018001a9f0 f   common-kernel64:MSectionSimple.obj
 0001:00019a60       ?TryEnter@MSectionSimple@@QEAA_NXZ 000000018001aa60 f   common-kernel64:MSectionSimple.obj
 0001:00019a88       ?SetConEmuEnvHWND@@YAXPEB_WPEAUHWND__@@@Z 000000018001aa88 f   common-user64:SetEnvVar.obj
 0001:00019ae0       ?SetConEmuEnvVar@@YAXPEAUHWND__@@@Z 000000018001aae0 f   common-user64:SetEnvVar.obj
 0001:00019b64       ?SetConEmuEnvVarChild@@YAXPEAUHWND__@@0@Z 000000018001ab64 f   common-user64:SetEnvVar.obj
 0001:00019b90       ??$wcscpy_c@$0BAF@@@YAHAEAY0BAF@_WPEB_W@Z 000000018001ab90 f i common-user64:ConEmuCheckEx.obj
 0001:00019bdc       ?FindConEmuBaseDir@@YAHAEAY0BAF@_W0PEAUHINSTANCE__@@@Z 000000018001abdc f   common-user64:ConEmuCheckEx.obj
 0001:0001a408       ?IsConEmuExeExist@@YAHPEB_WAEAY0BAF@_W@Z 000000018001b408 f   common-user64:ConEmuCheckEx.obj
 0001:0001a4b4       ??$swprintf_c@$0FA@@@YAHAEAY0FA@_WPEB_WZZ 000000018001b4b4 f i common-user64:EmergencyShow.obj
 0001:0001a4e0       ?CorrectConsolePos@@YAXPEAUHWND__@@@Z 000000018001b4e0 f   common-user64:EmergencyShow.obj
 0001:0001a5fc       ?EmergencyShow@@YAXPEAUHWND__@@HH@Z 000000018001b5fc f   common-user64:EmergencyShow.obj
 0001:0001a73c       ?EvaluateDefaultFontWidth@@YAHHPEB_W@Z 000000018001b73c f   common-user64:EmergencyShow.obj
 0001:0001a860       ?SetUserFriendlyFont@@YAXPEAUHWND__@@HH@Z 000000018001b860 f   common-user64:EmergencyShow.obj
 0001:0001ac40       ??0MSetter@@QEAA@PEAJ@Z    000000018001bc40 f   common-user64:MSetter.obj
 0001:0001ac58       ??1MSetter@@QEAA@XZ        000000018001bc58 f   common-user64:MSetter.obj
 0001:0001ac60       ?Unlock@MSetter@@QEAAXXZ   000000018001bc60 f   common-user64:MSetter.obj
 0001:0001acc0       ?IsDotsName@@YA_NPEB_W@Z   000000018001bcc0 f   common-user64:WFiles.obj
 0001:0001ace4       ?SearchAppPaths@@YA_NPEB_WAEAUCEStr@@_NPEAVCEnvRestorer@@@Z 000000018001bce4 f   common-user64:WFiles.obj
 0001:0001b0e4       ?GetConsoleSizeInfo@@YAXPEAUCONSOLE_INFO@@@Z 000000018001c0e4 f   common-user64:WConsoleEx.obj
 0001:0001b170       ?SetConsoleFontSizeTo@@YAXPEAUHWND__@@HHPEB_WGG@Z 000000018001c170 f   common-user64:WConsoleEx.obj
 0001:0001b558       ?SetConsoleInfo@@YAHPEAUHWND__@@PEAUCONSOLE_INFO@@@Z 000000018001c558 f   common-user64:WConsoleEx.obj
 0001:0001b750       ?SetEnvVarExpanded@@YAXPEB_W0@Z 000000018001c750 f   common-user64:WUser.obj
 0001:0001b838       ?UpdateComspec@@YAXPEAUConEmuComspec@@_N@Z 000000018001c838 f   common-user64:WUser.obj
 0001:0001badc       ?apiShowWindow@@YA_NPEAUHWND__@@H@Z 000000018001cadc f   common-user64:WUser.obj
 0001:0001baf0       ?apiShowWindowAsync@@YA_NPEAUHWND__@@H@Z 000000018001caf0 f   common-user64:WUser.obj
 0001:0001bb04       ?FindMonitorsWorkspace@@YAHPEAUHMONITOR__@@PEAUHDC__@@PEAUtagRECT@@_J@Z 000000018001cb04 f   common-user64:Monitors.obj
 0001:0001bb40       ?GetAllMonitorsWorkspace@@YA?AUtagRECT@@XZ 000000018001cb40 f   common-user64:Monitors.obj
 0001:0001bba0       ??0length_error@std@@QEAA@AEBV01@@Z 000000018001cba0 f i libcpmt:xthrow.obj
 0001:0001bbdc       ??0length_error@std@@QEAA@PEBD@Z 000000018001cbdc f i libcpmt:xthrow.obj
 0001:0001bc24       ??0logic_error@std@@QEAA@AEBV01@@Z 000000018001cc24 f i libcpmt:xthrow.obj
 0001:0001bc60       ?_Xlength_error@std@@YAXPEBD@Z 000000018001cc60 f   libcpmt:xthrow.obj
 0001:0001bc84       __GSHandlerCheck           000000018001cc84 f   LIBCMT:gshandler.obj
 0001:0001bca4       __GSHandlerCheckCommon     000000018001cca4 f   LIBCMT:gshandler.obj
 0001:0001bd10       __security_check_cookie    000000018001cd10 f   LIBCMT:amdsecgs.obj
 0001:0001bd34       ??3@YAXPEAX_K@Z            000000018001cd34 f   LIBCMT:delete_scalar_size.obj
 0001:0001bd50       __chkstk                   000000018001cd50 f   LIBCMT:chkstk.obj
 0001:0001bd50       _alloca_probe              000000018001cd50 f   LIBCMT:chkstk.obj
 0001:0001bda4       ??_Etype_info@@UEAAPEAXI@Z 000000018001cda4 f i LIBCMT:std_type_info_static.obj
 0001:0001bda4       ??_Gtype_info@@UEAAPEAXI@Z 000000018001cda4 f i LIBCMT:std_type_info_static.obj
 0001:0001bdd0       __GSHandlerCheck_EH4       000000018001cdd0 f   LIBCMT:gshandlereh4.obj
 0001:0001bf48       _Init_thread_footer        000000018001cf48 f   LIBCMT:thread_safe_statics.obj
 0001:0001bfa8       _Init_thread_header        000000018001cfa8 f   LIBCMT:thread_safe_statics.obj
 0001:0001c010       _Init_thread_notify        000000018001d010 f   LIBCMT:thread_safe_statics.obj
 0001:0001c054       _Init_thread_wait          000000018001d054 f   LIBCMT:thread_safe_statics.obj
 0001:0001c3d8       _DllMainCRTStartup         000000018001d3d8 f   LIBCMT:dll_dllmain.obj
 0001:0001c418       __scrt_acquire_startup_lock 000000018001d418 f   LIBCMT:utility.obj
 0001:0001c454       __scrt_dllmain_after_initialize_c 000000018001d454 f   LIBCMT:utility.obj
 0001:0001c488       __scrt_dllmain_before_initialize_c 000000018001d488 f   LIBCMT:utility.obj
 0001:0001c4a0       __scrt_dllmain_crt_thread_attach 000000018001d4a0 f   LIBCMT:utility.obj
 0001:0001c4c8       __scrt_dllmain_crt_thread_detach 000000018001d4c8 f   LIBCMT:utility.obj
 0001:0001c4e0       __scrt_dllmain_exception_filter 000000018001d4e0 f   LIBCMT:utility.obj
 0001:0001c540       __scrt_dllmain_uninitialize_c 000000018001d540 f   LIBCMT:utility.obj
 0001:0001c570       __scrt_dllmain_uninitialize_critical 000000018001d570 f   LIBCMT:utility.obj
 0001:0001c584       __scrt_initialize_crt      000000018001d584 f   LIBCMT:utility.obj
 0001:0001c5d0       __scrt_initialize_onexit_tables 000000018001d5d0 f   LIBCMT:utility.obj
 0001:0001c65c       __scrt_is_nonwritable_in_current_image 000000018001d65c f   LIBCMT:utility.obj
 0001:0001c6f4       __scrt_release_startup_lock 000000018001d6f4 f   LIBCMT:utility.obj
 0001:0001c718       __scrt_uninitialize_crt    000000018001d718 f   LIBCMT:utility.obj
 0001:0001c744       _onexit                    000000018001d744 f   LIBCMT:utility.obj
 0001:0001c780       atexit                     000000018001d780 f   LIBCMT:utility.obj
 0001:0001c798       __raise_securityfailure    000000018001d798 f   LIBCMT:gs_report.obj
 0001:0001c7cc       __report_gsfailure         000000018001d7cc f   LIBCMT:gs_report.obj
 0001:0001c8a0       __report_rangecheckfailure 000000018001d8a0 f   LIBCMT:gs_report.obj
 0001:0001c8b4       __report_securityfailure   000000018001d8b4 f   LIBCMT:gs_report.obj
 0001:0001ca34       __crt_debugger_hook        000000018001da34 f   LIBCMT:utility_desktop.obj
 0001:0001ca3c       __scrt_fastfail            000000018001da3c f   LIBCMT:utility_desktop.obj
 0001:0001cb88       __security_init_cookie     000000018001db88 f   LIBCMT:gs_support.obj
 0001:0001cc34       ?__scrt_initialize_type_info@@YAXXZ 000000018001dc34 f   LIBCMT:tncleanup.obj
 0001:0001cc44       ?__scrt_uninitialize_type_info@@YAXXZ 000000018001dc44 f   LIBCMT:tncleanup.obj
 0001:0001cc50       __local_stdio_scanf_options 000000018001dc50 f i LIBCMT:default_local_stdio_options.obj
 0001:0001cc58       __scrt_initialize_default_local_stdio_options 000000018001dc58 f   LIBCMT:default_local_stdio_options.obj
 0001:0001cc74       __scrt_get_dyn_tls_init_callback 000000018001dc74 f   LIBCMT:dyn_tls_init.obj
 0001:0001cc7c       _RTC_Initialize            000000018001dc7c f   LIBCMT:initsect.obj
 0001:0001ccb8       _RTC_Terminate             000000018001dcb8 f   LIBCMT:initsect.obj
 0001:0001ccf4       __isa_available_init       000000018001dcf4 f   LIBCMT:cpu_disp.obj
 0001:0001ce98       __scrt_is_ucrt_dll_in_use  000000018001de98 f   LIBCMT:ucrt_detection.obj
 0001:0001ceb0       ??$_CallSETranslator@V__FrameHandler4@@@@YAHPEAUEHExceptionRecord@@PEA_KPEAU_CONTEXT@@PEAU_xDISPATCHER_CONTEXT@@PEAUFuncInfo4@FH4@@K1H@Z 000000018001deb0 f i libvcruntime:risctrnsctrl.obj
 0001:0001cf04       ?DecompFuncInfo@FH4@@YA_JPEAEAEAUFuncInfo4@1@_KH_N@Z 000000018001df04 f i libvcruntime:risctrnsctrl.obj
 0001:0001d028       ?ExecutionInCatch@__FrameHandler4@@SA_NPEAU_xDISPATCHER_CONTEXT@@PEAUFuncInfo4@FH4@@@Z 000000018001e028 f   libvcruntime:risctrnsctrl.obj
 0001:0001d030       ?FrameUnwindToEmptyState@__FrameHandler4@@SAXPEA_KPEAU_xDISPATCHER_CONTEXT@@PEAUFuncInfo4@FH4@@@Z 000000018001e030 f   libvcruntime:risctrnsctrl.obj
 0001:0001d064       ?GetEstablisherFrame@__FrameHandler4@@SAPEA_KPEA_KPEAU_xDISPATCHER_CONTEXT@@PEAUFuncInfo4@FH4@@0@Z 000000018001e064 f   libvcruntime:risctrnsctrl.obj
 0001:0001d088       ?GetRangeOfTrysToCheck@__FrameHandler4@@SA?AU?$pair@Viterator@TryBlockMap4@FH4@@V123@@std@@AEAVTryBlockMap4@FH4@@HPEAU_xDISPATCHER_CONTEXT@@PEAUFuncInfo4@5@H@Z 000000018001e088 f   libvcruntime:risctrnsctrl.obj
 0001:0001d1e4       ?UnwindNestedFrames@__FrameHandler4@@SAXPEA_KPEAUEHExceptionRecord@@PEAU_CONTEXT@@0PEAXPEAUFuncInfo4@FH4@@HHPEAUHandlerType4@5@PEAU_xDISPATCHER_CONTEXT@@E@Z 000000018001e1e4 f   libvcruntime:risctrnsctrl.obj
 0001:0001d304       ?setBuffer@TryBlockMap4@FH4@@QEAAXViterator@12@@Z 000000018001e304 f i libvcruntime:risctrnsctrl.obj
 0001:0001d4c4       _CreateFrameInfo           000000018001e4c4 f   libvcruntime:risctrnsctrl.obj
 0001:0001d500       _FindAndUnlinkFrame        000000018001e500 f   libvcruntime:risctrnsctrl.obj
 0001:0001d554       _GetImageBase              000000018001e554 f   libvcruntime:risctrnsctrl.obj
 0001:0001d568       _GetThrowImageBase         000000018001e568 f   libvcruntime:risctrnsctrl.obj
 0001:0001d57c       _SetImageBase              000000018001e57c f   libvcruntime:risctrnsctrl.obj
 0001:0001d594       _SetThrowImageBase         000000018001e594 f   libvcruntime:risctrnsctrl.obj
 0001:0001d5ac       __CxxFrameHandler4         000000018001e5ac f   libvcruntime:risctrnsctrl.obj
 0001:0001d680       memcpy_repmovs             000000018001e680 f   libvcruntime:memcpy.obj
 0001:0001d6a0       memcpy                     000000018001e6a0 f   libvcruntime:memcpy.obj
 0001:0001d6a0       memmove                    000000018001e6a0 f   libvcruntime:memcpy.obj
 0001:0001da78       wcschr                     000000018001ea78 f   libvcruntime:wcschr.obj
 0001:0001daf4       wcsstr                     000000018001eaf4 f   libvcruntime:wcsstr.obj
 0001:0001dd20       memset_repmovs             000000018001ed20 f   libvcruntime:memset.obj
 0001:0001dd40       memset                     000000018001ed40 f   libvcruntime:memset.obj
 0001:0001dee0       __DestructExceptionObject  000000018001eee0 f   libvcruntime:ehhelpers.obj
 0001:0001df50       ?_CallMemberFunction0@@YAXQEAX0@Z 000000018001ef50 f i libvcruntime:ehhelpers.obj
 0001:0001df54       _IsExceptionObjectToBeDestroyed 000000018001ef54 f   libvcruntime:ehhelpers.obj
 0001:0001df84       __AdjustPointer            000000018001ef84 f   libvcruntime:ehhelpers.obj
 0001:0001dfa8       __FrameUnwindFilter        000000018001efa8 f   libvcruntime:ehhelpers.obj
 0001:0001e010       __std_terminate            000000018001f010 f   libvcruntime:ehhelpers.obj
 0001:0001e01c       __std_exception_copy       000000018001f01c f   libvcruntime:std_exception.obj
 0001:0001e0ac       __std_exception_destroy    000000018001f0ac f   libvcruntime:std_exception.obj
 0001:0001e0d4       _CxxThrowException         000000018001f0d4 f   libvcruntime:throw.obj
 0001:0001e174       _get_purecall_handler      000000018001f174 f   libvcruntime:purevirt.obj
 0001:0001e17c       _purecall                  000000018001f17c f   libvcruntime:purevirt.obj
 0001:0001e198       wcsrchr                    000000018001f198 f   libvcruntime:wcsrchr.obj
 0001:0001e260       memcmp                     000000018001f260 f   libvcruntime:memcmp.obj
 0001:0001e328       strrchr                    000000018001f328 f   libvcruntime:strrchr.obj
 0001:0001e458       strchr                     000000018001f458 f   libvcruntime:strchr.obj
 0001:0001e4d8       __C_specific_handler       000000018001f4d8 f   libvcruntime:riscchandler.obj
 0001:0001e6ec       __vcrt_initialize          000000018001f6ec f   libvcruntime:initialization.obj
 0001:0001e714       __vcrt_thread_attach       000000018001f714 f   libvcruntime:initialization.obj
 0001:0001e728       __vcrt_thread_detach       000000018001f728 f   libvcruntime:initialization.obj
 0001:0001e73c       __vcrt_uninitialize        000000018001f73c f   libvcruntime:initialization.obj
 0001:0001e758       __vcrt_uninitialize_critical 000000018001f758 f   libvcruntime:initialization.obj
 0001:0001e768       __std_type_info_compare    000000018001f768 f   libvcruntime:std_type_info.obj
 0001:0001e790       __std_type_info_destroy_list 000000018001f790 f   libvcruntime:std_type_info.obj
 0001:0001e7bc       __vcrt_freefls             000000018001f7bc f   libvcruntime:per_thread_data.obj
 0001:0001e7dc       __vcrt_freeptd             000000018001f7dc f   libvcruntime:per_thread_data.obj
 0001:0001e82c       __vcrt_getptd              000000018001f82c f   libvcruntime:per_thread_data.obj
 0001:0001e848       __vcrt_getptd_noexit       000000018001f848 f   libvcruntime:per_thread_data.obj
 0001:0001e908       __vcrt_initialize_ptd      000000018001f908 f   libvcruntime:per_thread_data.obj
 0001:0001e950       __vcrt_uninitialize_ptd    000000018001f950 f   libvcruntime:per_thread_data.obj
 0001:0001e974       ?StateFromControlPc@__FrameHandler4@@SAHPEAUFuncInfo4@FH4@@PEAU_xDISPATCHER_CONTEXT@@@Z 000000018001f974 f   libvcruntime:ehstate.obj
 0001:0001e97c       ?StateFromIp@__FrameHandler4@@SAHPEAUFuncInfo4@FH4@@PEAU_xDISPATCHER_CONTEXT@@_K@Z 000000018001f97c f   libvcruntime:ehstate.obj
 0001:0001f61c       ??$TypeMatchHelper@V__FrameHandler3@@@@YAHPEBU_s_HandlerType@@PEBU_s_CatchableType@@PEBU_s_ThrowInfo@@@Z 000000018002061c f i libvcruntime:frame.obj
 0001:0001f75c       ??$TypeMatchHelper@V__FrameHandler4@@@@YAHPEAUHandlerType4@FH4@@PEBU_s_CatchableType@@PEBU_s_ThrowInfo@@@Z 000000018002075c f i libvcruntime:frame.obj
 0001:0001f8a0       ??$__InternalCxxFrameHandler@V__FrameHandler4@@@@YA?AW4_EXCEPTION_DISPOSITION@@PEAUEHExceptionRecord@@PEA_KPEAU_CONTEXT@@PEAU_xDISPATCHER_CONTEXT@@PEAUFuncInfo4@FH4@@H1E@Z 00000001800208a0 f i libvcruntime:frame.obj
 0001:0001fb40       ??0HandlerMap4@FH4@@QEAA@PEBUTryBlockMapEntry4@1@_KH@Z 0000000180020b40 f i libvcruntime:frame.obj
 0001:0001fbbc       ??0TryBlockMap4@FH4@@QEAA@PEBUFuncInfo4@1@_K@Z 0000000180020bbc f i libvcruntime:frame.obj
 0001:0001fc94       ??0bad_exception@std@@QEAA@AEBV01@@Z 0000000180020c94 f i libvcruntime:frame.obj
 0001:0001fcd0       ??0bad_exception@std@@QEAA@XZ 0000000180020cd0 f i libvcruntime:frame.obj
 0001:0001fcf0       ?CxxCallCatchBlock@__FrameHandler4@@SAPEAXPEAU_EXCEPTION_RECORD@@@Z 0000000180020cf0 f   libvcruntime:frame.obj
 0001:0001ff4c       ?DecompHandler@HandlerMap4@FH4@@AEAAXXZ 0000000180020f4c f i libvcruntime:frame.obj
 0001:0002018c       ?FrameUnwindToState@__FrameHandler4@@SAXPEA_KPEAU_xDISPATCHER_CONTEXT@@PEAUFuncInfo4@FH4@@H@Z 000000018002118c f   libvcruntime:frame.obj
 0001:000205ec       ?ReadEntry@UWMap4@FH4@@AEAAXPEAPEAE@Z 00000001800215ec f i libvcruntime:frame.obj
 0001:0002068c       ?_CallMemberFunction1@@YAXQEAX00@Z 000000018002168c f i libvcruntime:frame.obj
 0001:00020698       ?_CallMemberFunction2@@YAXQEAX00H@Z 0000000180021698 f i libvcruntime:frame.obj
 0001:000206a8       ?getStartStop@UWMap4@FH4@@QEAAXHHAEAViterator@12@0@Z 00000001800216a8 f i libvcruntime:frame.obj
 0001:00020778       ?getStateFromIterators@UWMap4@FH4@@SAHAEBViterator@12@H0H0@Z 0000000180021778 f i libvcruntime:frame.obj
 0001:00020850       _NLG_Notify                0000000180021850 f   libvcruntime:notify.obj
 0001:00020870       __NLG_Dispatch2            0000000180021870 f   libvcruntime:notify.obj
 0001:00020880       __NLG_Return2              0000000180021880 f   libvcruntime:notify.obj
 0001:00020884       __except_validate_context_record 0000000180021884 f   libvcruntime:jbcxrval.obj
 0001:000208bc       __vcrt_initialize_locks    00000001800218bc f   libvcruntime:locks.obj
 0001:000208f0       __vcrt_uninitialize_locks  00000001800218f0 f   libvcruntime:locks.obj
 0001:00020a74       __vcrt_FlsAlloc            0000000180021a74 f   libvcruntime:winapi_downlevel.obj
 0001:00020abc       __vcrt_FlsFree             0000000180021abc f   libvcruntime:winapi_downlevel.obj
 0001:00020b04       __vcrt_FlsGetValue         0000000180021b04 f   libvcruntime:winapi_downlevel.obj
 0001:00020b4c       __vcrt_FlsSetValue         0000000180021b4c f   libvcruntime:winapi_downlevel.obj
 0001:00020ba0       __vcrt_InitializeCriticalSectionEx 0000000180021ba0 f   libvcruntime:winapi_downlevel.obj
 0001:00020c20       _CallSettingFrame          0000000180021c20 f   libvcruntime:handlers.obj
 0001:00020c70       _CallSettingFrame_LookupContinuationIndex 0000000180021c70 f   libvcruntime:handlers.obj
 0001:00020ca0       _CallSettingFrame_NotifyContinuationAddr 0000000180021ca0 f   libvcruntime:handlers.obj
 0001:00020cd0       _CallSettingFrameEncoded   0000000180021cd0 f   libvcruntime:handlers.obj
 0001:000210b8       ??$ensure_buffer_is_big_enough@D@formatting_buffer@__crt_stdio_output@@QEAA_N_K@Z 00000001800220b8 f i libucrt:output.obj
 0001:00021160       ??$ensure_buffer_is_big_enough@_W@formatting_buffer@__crt_stdio_output@@QEAA_N_K@Z 0000000180022160 f i libucrt:output.obj
 0001:0002120c       ??$is_wide_character_specifier@_W@__crt_stdio_output@@YA_N_K_WW4length_modifier@0@@Z 000000018002220c f i libucrt:output.obj
 0001:0002124c       ??$type_case_integer_parse_into_buffer@I@?$output_processor@DV?$string_output_adapter@D@__crt_stdio_output@@V?$standard_base@DV?$string_output_adapter@D@__crt_stdio_output@@@2@@__crt_stdio_output@@AEAAXII_N@Z 000000018002224c f i libucrt:output.obj
 0001:000212d4       ??$type_case_integer_parse_into_buffer@I@?$output_processor@_WV?$string_output_adapter@_W@__crt_stdio_output@@V?$standard_base@_WV?$string_output_adapter@_W@__crt_stdio_output@@@2@@__crt_stdio_output@@AEAAXII_N@Z 00000001800222d4 f i libucrt:output.obj
 0001:00021378       ??$type_case_integer_parse_into_buffer@_K@?$output_processor@DV?$string_output_adapter@D@__crt_stdio_output@@V?$standard_base@DV?$string_output_adapter@D@__crt_stdio_output@@@2@@__crt_stdio_output@@AEAAX_KI_N@Z 0000000180022378 f i libucrt:output.obj
 0001:00021408       ??$type_case_integer_parse_into_buffer@_K@?$output_processor@_WV?$string_output_adapter@_W@__crt_stdio_output@@V?$standard_base@_WV?$string_output_adapter@_W@__crt_stdio_output@@@2@@__crt_stdio_output@@AEAAX_KI_N@Z 0000000180022408 f i libucrt:output.obj
 0001:000214ac       ??$write_multiple_characters@V?$string_output_adapter@D@__crt_stdio_output@@D@__crt_stdio_output@@YAXAEBV?$string_output_adapter@D@0@DHQEAH@Z 00000001800224ac f i libucrt:output.obj
 0001:00021524       ??$write_multiple_characters@V?$string_output_adapter@_W@__crt_stdio_output@@D@__crt_stdio_output@@YAXAEBV?$string_output_adapter@_W@0@DHQEAH@Z 0000000180022524 f i libucrt:output.obj
 0001:000215a0       ??0_LocaleUpdate@@QEAA@QEAU__crt_locale_pointers@@@Z 00000001800225a0 f i libucrt:output.obj
 0001:0002163c       ?crop_zeroes@__crt_stdio_output@@YAXPEADQEAU__crt_locale_pointers@@@Z 000000018002263c f i libucrt:output.obj
 0001:000216a8       ?parse_int_from_format_string@?$output_processor@DV?$string_output_adapter@D@__crt_stdio_output@@V?$standard_base@DV?$string_output_adapter@D@__crt_stdio_output@@@2@@__crt_stdio_output@@AEAA_NQEAH@Z 00000001800226a8 f i libucrt:output.obj
 0001:0002174c       ?parse_int_from_format_string@?$output_processor@_WV?$string_output_adapter@_W@__crt_stdio_output@@V?$standard_base@_WV?$string_output_adapter@_W@__crt_stdio_output@@@2@@__crt_stdio_output@@AEAA_NQEAH@Z 000000018002274c f i libucrt:output.obj
 0001:000217f0       ?process@?$output_processor@DV?$string_output_adapter@D@__crt_stdio_output@@V?$standard_base@DV?$string_output_adapter@D@__crt_stdio_output@@@2@@__crt_stdio_output@@QEAAHXZ 00000001800227f0 f i libucrt:output.obj
 0001:000219fc       ?process@?$output_processor@_WV?$string_output_adapter@_W@__crt_stdio_output@@V?$standard_base@_WV?$string_output_adapter@_W@__crt_stdio_output@@@2@@__crt_stdio_output@@QEAAHXZ 00000001800229fc f i libucrt:output.obj
 0001:00021c78       ?state_case_normal@?$output_processor@DV?$string_output_adapter@D@__crt_stdio_output@@V?$standard_base@DV?$string_output_adapter@D@__crt_stdio_output@@@2@@__crt_stdio_output@@AEAA_NXZ 0000000180022c78 f i libucrt:output.obj
 0001:00021cec       ?state_case_normal_tchar@?$output_processor@DV?$string_output_adapter@D@__crt_stdio_output@@V?$standard_base@DV?$string_output_adapter@D@__crt_stdio_output@@@2@@__crt_stdio_output@@AEAA_ND@Z 0000000180022cec f i libucrt:output.obj
 0001:00021d94       ?state_case_size@?$output_processor@DV?$string_output_adapter@D@__crt_stdio_output@@V?$standard_base@DV?$string_output_adapter@D@__crt_stdio_output@@@2@@__crt_stdio_output@@AEAA_NXZ 0000000180022d94 f i libucrt:output.obj
 0001:00021f08       ?state_case_size@?$output_processor@_WV?$string_output_adapter@_W@__crt_stdio_output@@V?$standard_base@_WV?$string_output_adapter@_W@__crt_stdio_output@@@2@@__crt_stdio_output@@AEAA_NXZ 0000000180022f08 f i libucrt:output.obj
 0001:000220a0       ?state_case_type@?$output_processor@DV?$string_output_adapter@D@__crt_stdio_output@@V?$standard_base@DV?$string_output_adapter@D@__crt_stdio_output@@@2@@__crt_stdio_output@@AEAA_NXZ 00000001800230a0 f i libucrt:output.obj
 0001:00022308       ?state_case_type@?$output_processor@_WV?$string_output_adapter@_W@__crt_stdio_output@@V?$standard_base@_WV?$string_output_adapter@_W@__crt_stdio_output@@@2@@__crt_stdio_output@@AEAA_NXZ 0000000180023308 f i libucrt:output.obj
 0001:000225d4       ?type_case_Z@?$output_processor@DV?$string_output_adapter@D@__crt_stdio_output@@V?$standard_base@DV?$string_output_adapter@D@__crt_stdio_output@@@2@@__crt_stdio_output@@AEAA_NXZ 00000001800235d4 f i libucrt:output.obj
 0001:00022648       ?type_case_Z@?$output_processor@_WV?$string_output_adapter@_W@__crt_stdio_output@@V?$standard_base@_WV?$string_output_adapter@_W@__crt_stdio_output@@@2@@__crt_stdio_output@@AEAA_NXZ 0000000180023648 f i libucrt:output.obj
 0001:000226c4       ?type_case_a@?$output_processor@DV?$string_output_adapter@D@__crt_stdio_output@@V?$standard_base@DV?$string_output_adapter@D@__crt_stdio_output@@@2@@__crt_stdio_output@@AEAA_NXZ 00000001800236c4 f i libucrt:output.obj
 0001:000228dc       ?type_case_a@?$output_processor@_WV?$string_output_adapter@_W@__crt_stdio_output@@V?$standard_base@_WV?$string_output_adapter@_W@__crt_stdio_output@@@2@@__crt_stdio_output@@AEAA_NXZ 00000001800238dc f i libucrt:output.obj
 0001:00022b18       ?type_case_c_tchar@?$output_processor@DV?$string_output_adapter@D@__crt_stdio_output@@V?$standard_base@DV?$string_output_adapter@D@__crt_stdio_output@@@2@@__crt_stdio_output@@AEAA_ND@Z 0000000180023b18 f i libucrt:output.obj
 0001:00022bd4       ?type_case_c_tchar@?$output_processor@_WV?$string_output_adapter@_W@__crt_stdio_output@@V?$standard_base@_WV?$string_output_adapter@_W@__crt_stdio_output@@@2@@__crt_stdio_output@@AEAA_N_W@Z 0000000180023bd4 f i libucrt:output.obj
 0001:00022c7c       ?type_case_integer@?$output_processor@DV?$string_output_adapter@D@__crt_stdio_output@@V?$standard_base@DV?$string_output_adapter@D@__crt_stdio_output@@@2@@__crt_stdio_output@@AEAA_NI_N@Z 0000000180023c7c f i libucrt:output.obj
 0001:00022e44       ?type_case_integer@?$output_processor@_WV?$string_output_adapter@_W@__crt_stdio_output@@V?$standard_base@_WV?$string_output_adapter@_W@__crt_stdio_output@@@2@@__crt_stdio_output@@AEAA_NI_N@Z 0000000180023e44 f i libucrt:output.obj
 0001:00023010       ?type_case_n@?$output_processor@_WV?$string_output_adapter@_W@__crt_stdio_output@@V?$standard_base@_WV?$string_output_adapter@_W@__crt_stdio_output@@@2@@__crt_stdio_output@@AEAA_NXZ 0000000180024010 f i libucrt:output.obj
 0001:00023010       ?type_case_n@?$output_processor@DV?$string_output_adapter@D@__crt_stdio_output@@V?$standard_base@DV?$string_output_adapter@D@__crt_stdio_output@@@2@@__crt_stdio_output@@AEAA_NXZ 0000000180024010 f i libucrt:output.obj
 0001:000230ec       ?type_case_s@?$output_processor@DV?$string_output_adapter@D@__crt_stdio_output@@V?$standard_base@DV?$string_output_adapter@D@__crt_stdio_output@@@2@@__crt_stdio_output@@AEAA_NXZ 00000001800240ec f i libucrt:output.obj
 0001:00023184       ?type_case_s@?$output_processor@_WV?$string_output_adapter@_W@__crt_stdio_output@@V?$standard_base@_WV?$string_output_adapter@_W@__crt_stdio_output@@@2@@__crt_stdio_output@@AEAA_NXZ 0000000180024184 f i libucrt:output.obj
 0001:0002324c       ?write_stored_string_tchar@?$output_processor@DV?$string_output_adapter@D@__crt_stdio_output@@V?$standard_base@DV?$string_output_adapter@D@__crt_stdio_output@@@2@@__crt_stdio_output@@AEAA_ND@Z 000000018002424c f i libucrt:output.obj
 0001:00023324       ?write_stored_string_tchar@?$output_processor@_WV?$string_output_adapter@_W@__crt_stdio_output@@V?$standard_base@_WV?$string_output_adapter@_W@__crt_stdio_output@@@2@@__crt_stdio_output@@AEAA_N_W@Z 0000000180024324 f i libucrt:output.obj
 0001:00023410       ?write_string@?$string_output_adapter@D@__crt_stdio_output@@QEBAXQEBDHQEAHAEAV__crt_deferred_errno_cache@@@Z 0000000180024410 f i libucrt:output.obj
 0001:000234b4       ?write_string@?$string_output_adapter@_W@__crt_stdio_output@@QEBAXQEB_WHQEAHAEAV__crt_deferred_errno_cache@@@Z 00000001800244b4 f i libucrt:output.obj
 0001:0002355c       __stdio_common_vsprintf    000000018002455c f   libucrt:output.obj
 0001:00023564       __stdio_common_vswprintf   0000000180024564 f   libucrt:output.obj
 0001:0002356c       ??$parse_integer@KV?$c_string_character_source@D@__crt_strtox@@@__crt_strtox@@YAKQEAU__crt_locale_pointers@@V?$c_string_character_source@D@0@H_N@Z 000000018002456c f i libucrt:strtox.obj
 0001:00023874       ??$parse_integer@KV?$c_string_character_source@_W@__crt_strtox@@@__crt_strtox@@YAKQEAU__crt_locale_pointers@@V?$c_string_character_source@_W@0@H_N@Z 0000000180024874 f i libucrt:strtox.obj
 0001:00023f1c       _ischartype_l              0000000180024f1c f i libucrt:strtox.obj
 0001:00023f94       strtol                     0000000180024f94 f   libucrt:strtox.obj
 0001:00023fc0       wcstol                     0000000180024fc0 f   libucrt:strtox.obj
 0001:00023fec       wcsncmp                    0000000180024fec f   libucrt:wcsncmp.obj
 0001:00024018       __acrt_call_reportfault    0000000180025018 f   libucrt:invalid_parameter.obj
 0001:00024174       __acrt_initialize_invalid_parameter_handler 0000000180025174 f   libucrt:invalid_parameter.obj
 0001:0002417c       _invalid_parameter         000000018002517c f   libucrt:invalid_parameter.obj
 0001:0002422c       _invalid_parameter_noinfo  000000018002522c f   libucrt:invalid_parameter.obj
 0001:0002424c       _invoke_watson             000000018002524c f   libucrt:invalid_parameter.obj
 0001:00024294       __acrt_errno_from_os_error 0000000180025294 f   libucrt:errno.obj
 0001:000242dc       __acrt_errno_map_os_error  00000001800252dc f   libucrt:errno.obj
 0001:0002432c       __doserrno                 000000018002532c f   libucrt:errno.obj
 0001:0002434c       _errno                     000000018002534c f   libucrt:errno.obj
 0001:0002436c       _initterm                  000000018002536c f   libucrt:initterm.obj
 0001:000243d0       _initterm_e                00000001800253d0 f   libucrt:initterm.obj
 0001:00024410       _seh_filter_dll            0000000180025410 f   libucrt:exception_filter.obj
 0001:00024424       _seh_filter_exe            0000000180025424 f   libucrt:exception_filter.obj
 0001:00024814       __acrt_initialize_thread_local_exit_callback 0000000180025814 f   libucrt:exit.obj
 0001:0002481c       _cexit                     000000018002581c f   libucrt:exit.obj
 0001:0002482c       _exit                      000000018002582c f   libucrt:exit.obj
 0001:00024838       _is_c_termination_complete 0000000180025838 f   libucrt:exit.obj
 0001:00024a04       __acrt_allocate_buffer_for_argv 0000000180025a04 f   libucrt:argv_parsing.obj
 0001:00024a64       _configure_narrow_argv     0000000180025a64 f   libucrt:argv_parsing.obj
 0001:00024ddc       __dcrt_uninitialize_environments_nolock 0000000180025ddc f   libucrt:environment_initialization.obj
 0001:00024e14       _initialize_narrow_environment 0000000180025e14 f   libucrt:environment_initialization.obj
 0001:0002515c       _crt_atexit                000000018002615c f   libucrt:onexit.obj
 0001:0002516c       _execute_onexit_table      000000018002616c f   libucrt:onexit.obj
 0001:000251a8       _initialize_onexit_table   00000001800261a8 f   libucrt:onexit.obj
 0001:000251d0       _register_onexit_function  00000001800261d0 f   libucrt:onexit.obj
 0001:00025344       __acrt_initialize          0000000180026344 f   libucrt:initialization.obj
 0001:00025358       __acrt_thread_attach       0000000180026358 f   libucrt:initialization.obj
 0001:0002536c       __acrt_thread_detach       000000018002636c f   libucrt:initialization.obj
 0001:0002537c       __acrt_uninitialize        000000018002637c f   libucrt:initialization.obj
 0001:000253b4       __acrt_uninitialize_critical 00000001800263b4 f   libucrt:initialization.obj
 0001:000253c4       terminate                  00000001800263c4 f   libucrt:terminate.obj
 0001:000253e4       abort                      00000001800263e4 f   libucrt:abort.obj
 0001:0002543c       free                       000000018002643c f   libucrt:free.obj
 0001:00025450       malloc                     0000000180026450 f   libucrt:malloc.obj
 0001:00025458       strcpy_s                   0000000180026458 f   libucrt:strcpy_s.obj
 0001:000254b8       calloc                     00000001800264b8 f   libucrt:calloc.obj
 0001:000254d0       strncmp                    00000001800264d0 f   libucrt:strncmp.obj
 0001:00025550       _free_base                 0000000180026550 f   libucrt:free_base.obj
 0001:00025590       _malloc_base               0000000180026590 f   libucrt:malloc_base.obj
 0001:000255f0       _mbtowc_l                  00000001800265f0 f   libucrt:mbtowc.obj
 0001:00025770       mbtowc                     0000000180026770 f   libucrt:mbtowc.obj
 0001:00025778       _wctomb_s_l                0000000180026778 f   libucrt:wctomb.obj
 0001:00025914       wctomb_s                   0000000180026914 f   libucrt:wctomb.obj
 0001:00025928       strnlen                    0000000180026928 f   libucrt:strnlen.obj
 0001:00025a78       wcsnlen                    0000000180026a78 f   libucrt:strnlen.obj
 0001:00025fc8       __acrt_freeptd             0000000180026fc8 f   libucrt:per_thread_data.obj
 0001:0002600c       __acrt_getptd              000000018002700c f   libucrt:per_thread_data.obj
 0001:000260e0       __acrt_getptd_head         00000001800270e0 f   libucrt:per_thread_data.obj
 0001:00026188       __acrt_getptd_noexit       0000000180027188 f   libucrt:per_thread_data.obj
 0001:00026254       __acrt_initialize_ptd      0000000180027254 f   libucrt:per_thread_data.obj
 0001:00026290       __acrt_uninitialize_ptd    0000000180027290 f   libucrt:per_thread_data.obj
 0001:000262b4       __acrt_update_locale_info  00000001800272b4 f   libucrt:locale_update.obj
 0001:000262e8       __acrt_update_multibyte_info 00000001800272e8 f   libucrt:locale_update.obj
 0001:00026bb4       __acrt_fp_format           0000000180027bb4 f   libucrt:cvt.obj
 0001:00026eb8       _fileno                    0000000180027eb8 f   libucrt:fileno.obj
 0001:00026ee0       __acrt_initialize_stdio    0000000180027ee0 f   libucrt:_file.obj
 0001:00027000       __acrt_uninitialize_stdio  0000000180028000 f   libucrt:_file.obj
 0001:0002705c       _lock_file                 000000018002805c f   libucrt:_file.obj
 0001:00027068       _unlock_file               0000000180028068 f   libucrt:_file.obj
 0001:00027074       _get_printf_count_output   0000000180028074 f   libucrt:printf_count_output.obj
 0001:000270fc       __acrt_set_locale_changed  00000001800280fc f   libucrt:wsetlocale.obj
 0001:00027108       __acrt_uninitialize_locale 0000000180028108 f   libucrt:wsetlocale.obj
 0001:00027334       __acrt_initialize_lowio    0000000180028334 f   libucrt:ioinit.obj
 0001:00027370       __acrt_uninitialize_lowio  0000000180028370 f   libucrt:ioinit.obj
 0001:000273b0       __pctype_func              00000001800283b0 f   libucrt:ctype.obj
 0001:000273e0       iswctype                   00000001800283e0 f   libucrt:iswctype.obj
 0001:00027450       _isctype_l                 0000000180028450 f   libucrt:isctype.obj
 0001:00027558       __acrt_initialize_locks    0000000180028558 f   libucrt:locks.obj
 0001:000275a0       __acrt_lock                00000001800285a0 f   libucrt:locks.obj
 0001:000275bc       __acrt_uninitialize_locks  00000001800285bc f   libucrt:locks.obj
 0001:000275f4       __acrt_unlock              00000001800285f4 f   libucrt:locks.obj
 0001:00027610       __acrt_get_process_end_policy 0000000180028610 f   libucrt:win_policies.obj
 0001:0002764c       _calloc_base               000000018002864c f   libucrt:calloc_base.obj
 0001:000276d8       ??$__acrt_mbs_to_wcs_cp@U__crt_win32_buffer_internal_dynamic_resizing@@@@YAHQEBDAEAV?$__crt_win32_buffer@_WU__crt_win32_buffer_internal_dynamic_resizing@@@@I@Z 00000001800286d8 f i libucrt:argv_wildcards.obj
 0001:00027850       ??$__acrt_wcs_to_mbs_cp@U__crt_win32_buffer_internal_dynamic_resizing@@@@YAHQEB_WAEAV?$__crt_win32_buffer@DU__crt_win32_buffer_internal_dynamic_resizing@@@@I@Z 0000000180028850 f i libucrt:argv_wildcards.obj
 0001:00028080       __acrt_expand_narrow_argv_wildcards 0000000180029080 f   libucrt:argv_wildcards.obj
 0001:00028088       ??$__acrt_wcs_to_mbs_cp@U__crt_win32_buffer_no_resizing@@@@YAHQEB_WAEAV?$__crt_win32_buffer@DU__crt_win32_buffer_no_resizing@@@@I@Z 0000000180029088 f i libucrt:getmodulefilenamea.obj
 0001:0002819c       __acrt_GetModuleFileNameA  000000018002919c f   libucrt:getmodulefilenamea.obj
 0001:000289e8       __acrt_initialize_multibyte 00000001800299e8 f   libucrt:mbctype.obj
 0001:00028a48       __acrt_update_thread_multibyte_data 0000000180029a48 f   libucrt:mbctype.obj
 0001:00028a64       _setmbcp_nolock            0000000180029a64 f   libucrt:mbctype.obj
 0001:00028d98       _ismbblead                 0000000180029d98 f   libucrt:ismbbyte.obj
 0001:00028dac       __acrt_initialize_command_line 0000000180029dac f   libucrt:argv_data.obj
 0001:00028dd4       __acrt_MultiByteToWideChar 0000000180029dd4 f   libucrt:multibytetowidechar.obj
 0001:00028e30       __acrt_WideCharToMultiByte 0000000180029e30 f   libucrt:widechartomultibyte.obj
 0001:00028ec8       __dcrt_get_narrow_environment_from_os 0000000180029ec8 f   libucrt:get_environment_from_os.obj
 0001:00028fcc       _recalloc_base             0000000180029fcc f   libucrt:recalloc.obj
 0001:0002923c       __acrt_AppPolicyGetProcessTerminationMethodInternal 000000018002a23c f   libucrt:winapi_thunks.obj
 0001:0002928c       __acrt_AreFileApisANSI     000000018002a28c f   libucrt:winapi_thunks.obj
 0001:000292c8       __acrt_FlsAlloc            000000018002a2c8 f   libucrt:winapi_thunks.obj
 0001:00029310       __acrt_FlsFree             000000018002a310 f   libucrt:winapi_thunks.obj
 0001:00029358       __acrt_FlsGetValue         000000018002a358 f   libucrt:winapi_thunks.obj
 0001:000293a0       __acrt_FlsSetValue         000000018002a3a0 f   libucrt:winapi_thunks.obj
 0001:000293f4       __acrt_InitializeCriticalSectionEx 000000018002a3f4 f   libucrt:winapi_thunks.obj
 0001:00029458       __acrt_LCMapStringEx       000000018002a458 f   libucrt:winapi_thunks.obj
 0001:00029534       __acrt_LocaleNameToLCID    000000018002a534 f   libucrt:winapi_thunks.obj
 0001:00029584       __acrt_initialize_winapi_thunks 000000018002a584 f   libucrt:winapi_thunks.obj
 0001:000295b8       __acrt_uninitialize_winapi_thunks 000000018002a5b8 f   libucrt:winapi_thunks.obj
 0001:000295fc       __acrt_initialize_heap     000000018002a5fc f   libucrt:heap_handle.obj
 0001:00029618       __acrt_uninitialize_heap   000000018002a618 f   libucrt:heap_handle.obj
 0001:00029624       __acrt_execute_initializers 000000018002a624 f   libucrt:shared_initialization.obj
 0001:000296a4       __acrt_execute_uninitializers 000000018002a6a4 f   libucrt:shared_initialization.obj
 0001:000296e0       __acrt_initialize_new_handler 000000018002a6e0 f   libucrt:new_handler.obj
 0001:000296e8       _callnewh                  000000018002a6e8 f   libucrt:new_handler.obj
 0001:00029718       _query_new_handler         000000018002a718 f   libucrt:new_handler.obj
 0001:00029794       __acrt_get_sigabrt_handler 000000018002a794 f   libucrt:signal.obj
 0001:000297c4       __acrt_initialize_signal_handlers 000000018002a7c4 f   libucrt:signal.obj
 0001:000297e4       raise                      000000018002a7e4 f   libucrt:signal.obj
 0001:00029a50       __acrt_has_user_matherr    000000018002aa50 f   libucrt:matherr.obj
 0001:00029a70       __acrt_initialize_user_matherr 000000018002aa70 f   libucrt:matherr.obj
 0001:00029a78       __acrt_invoke_user_matherr 000000018002aa78 f   libucrt:matherr.obj
 0001:00029c84       __acrt_stdio_flush_nolock  000000018002ac84 f   libucrt:fflush.obj
 0001:00029d00       _fflush_nolock             000000018002ad00 f   libucrt:fflush.obj
 0001:00029d4c       _flushall                  000000018002ad4c f   libucrt:fflush.obj
 0001:00029d54       _query_new_mode            000000018002ad54 f   libucrt:new_mode.obj
 0001:00029d5c       _isleadbyte_l              000000018002ad5c f i libucrt:_wctype.obj
 0001:00029da8       ?__mbrtowc_utf8@__crt_mbstring@@YA_KPEA_WPEBD_KPEAU_Mbstatet@@@Z 000000018002ada8 f   libucrt:mbrtowc.obj
 0001:00029de4       ?__mbsrtowcs_utf8@__crt_mbstring@@YA_KPEA_WPEAPEBD_KPEAU_Mbstatet@@@Z 000000018002ade4 f   libucrt:mbrtowc.obj
 0001:00029f5c       ?__c32rtomb_utf8@__crt_mbstring@@YA_KPEAD_UPEAU_Mbstatet@@@Z 000000018002af5c f   libucrt:c32rtomb.obj
 0001:0002a010       __acrt_add_locale_ref      000000018002b010 f   libucrt:locale_refcounting.obj
 0001:0002a09c       __acrt_free_locale         000000018002b09c f   libucrt:locale_refcounting.obj
 0001:0002a214       __acrt_locale_add_lc_time_reference 000000018002b214 f   libucrt:locale_refcounting.obj
 0001:0002a23c       __acrt_locale_free_lc_time_if_unreferenced 000000018002b23c f   libucrt:locale_refcounting.obj
 0001:0002a274       __acrt_locale_release_lc_time_reference 000000018002b274 f   libucrt:locale_refcounting.obj
 0001:0002a29c       __acrt_release_locale_ref  000000018002b29c f   libucrt:locale_refcounting.obj
 0001:0002a344       __acrt_update_thread_locale_data 000000018002b344 f   libucrt:locale_refcounting.obj
 0001:0002a3b0       _updatetlocinfoEx_nolock   000000018002b3b0 f   libucrt:locale_refcounting.obj
 0001:0002a418       __acrt_fp_strflt_to_string 000000018002b418 f   libucrt:_fptostr.obj
 0001:0002a500       ?divide@__crt_strtox@@YA_KAEAUbig_integer@1@AEBU21@@Z 000000018002b500 f i libucrt:cfout.obj
 0001:0002a92c       __acrt_fltout              000000018002b92c f   libucrt:cfout.obj
 0001:0002bbe8       _fcloseall                 000000018002cbe8 f   libucrt:closeall.obj
 0001:0002bc9c       __acrt_stdio_free_buffer_nolock 000000018002cc9c f   libucrt:_freebuf.obj
 0001:0002bcdc       _isatty                    000000018002ccdc f   libucrt:isatty.obj
 0001:0002bd3c       __acrt_locale_free_monetary 000000018002cd3c f   libucrt:initmon.obj
 0001:0002be48       __acrt_locale_free_numeric 000000018002ce48 f   libucrt:initnum.obj
 0001:0002bf0c       __acrt_locale_free_time    000000018002cf0c f   libucrt:inittime.obj
 0001:0002c014       __acrt_GetStringTypeA      000000018002d014 f   libucrt:getstringtypea.obj
 0001:0002c1a4       __acrt_lowio_create_handle_array 000000018002d1a4 f   libucrt:osfinfo.obj
 0001:0002c24c       __acrt_lowio_destroy_handle_array 000000018002d24c f   libucrt:osfinfo.obj
 0001:0002c29c       __acrt_lowio_ensure_fh_exists 000000018002d29c f   libucrt:osfinfo.obj
 0001:0002c344       __acrt_lowio_lock_fh       000000018002d344 f   libucrt:osfinfo.obj
 0001:0002c36c       __acrt_lowio_unlock_fh     000000018002d36c f   libucrt:osfinfo.obj
 0001:0002c394       _free_osfhnd               000000018002d394 f   libucrt:osfinfo.obj
 0001:0002c450       _get_osfhandle             000000018002d450 f   libucrt:osfinfo.obj
 0001:0002c4c8       __acrt_GetStringTypeW      000000018002d4c8 f   libucrt:getstringtypew.obj
 0001:0002c4d0       qsort                      000000018002d4d0 f   libucrt:qsort.obj
 0001:0002c880       strncpy_s                  000000018002d880 f   libucrt:strncpy_s.obj
 0001:0002ca00       strpbrk                    000000018002da00 f   libucrt:strpbrk.obj
 0001:0002cde0       _mbsdec                    000000018002dde0 f   libucrt:mbsdec.obj
 0001:0002cde8       _mbsdec_l                  000000018002dde8 f   libucrt:mbsdec.obj
 0001:0002d194       __acrt_LCMapStringA        000000018002e194 f   libucrt:lcmapstringa.obj
 0001:0002d244       _msize_base                000000018002e244 f   libucrt:msize.obj
 0001:0002d280       _realloc_base              000000018002e280 f   libucrt:realloc_base.obj
 0001:0002d2fc       __acrt_DownlevelLocaleNameToLCID 000000018002e2fc f   libucrt:lcidtoname_downlevel.obj
 0001:0002d438       _commit                    000000018002e438 f   libucrt:commit.obj
 0001:0002dd2c       _write                     000000018002ed2c f   libucrt:write.obj
 0001:0002de18       _write_nolock              000000018002ee18 f   libucrt:write.obj
 0001:0002e0f4       ?__mbrtoc32_utf8@__crt_mbstring@@YA_KPEA_UPEBD_KPEAU_Mbstatet@@@Z 000000018002f0f4 f   libucrt:mbrtoc32.obj
 0001:0002e2d0       fegetenv                   000000018002f2d0 f   libucrt:fegetenv.obj
 0001:0002e2f0       fesetenv                   000000018002f2f0 f   libucrt:fesetenv.obj
 0001:0002e33c       feholdexcept               000000018002f33c f   libucrt:feholdexcept.obj
 0001:0002e38c       ceil                       000000018002f38c f   libucrt:ceil.obj
 0001:0002e450       log10                      000000018002f450 f   libucrt:log10.obj
 0001:0002ea98       _lseeki64_nolock           000000018002fa98 f   libucrt:lseek.obj
 0001:0002eaa0       _fclose_nolock             000000018002faa0 f   libucrt:fclose.obj
 0001:0002eb24       fclose                     000000018002fb24 f   libucrt:fclose.obj
 0001:0002eb88       __ascii_wcsnicmp           000000018002fb88 f   libucrt:wcsnicmp.obj
 0001:0002ebd4       _query_app_type            000000018002fbd4 f   libucrt:report_runtime_error.obj
 0001:0002ebdc       __strncnt                  000000018002fbdc f   libucrt:strncnt.obj
 0001:0002ebf4       _putwch_nolock             000000018002fbf4 f   libucrt:putwch.obj
 0001:0002ec30       __acrt_fenv_get_control    000000018002fc30 f   libucrt:_fenvutils.obj
 0001:0002ed24       __acrt_fenv_get_status     000000018002fd24 f   libucrt:_fenvutils.obj
 0001:0002ed78       __acrt_fenv_set_control    000000018002fd78 f   libucrt:_fenvutils.obj
 0001:0002eec0       __acrt_fenv_set_status     000000018002fec0 f   libucrt:_fenvutils.obj
 0001:0002ef44       _clearfp                   000000018002ff44 f   libucrt:ieee.obj
 0001:0002f0d8       _handle_error              00000001800300d8 f   libucrt:libm_error.obj
 0001:0002f200       _handle_nan                0000000180030200 f   libucrt:libm_error.obj
 0001:0002f220       __acrt_initialize_fma3     0000000180030220 f   libucrt:fma3_available.obj
 0001:0002f290       _log10_special             0000000180030290 f   libucrt:log_special.obj
 0001:0002f3bc       _close                     00000001800303bc f   libucrt:close.obj
 0001:0002f460       _close_nolock              0000000180030460 f   libucrt:close.obj
 0001:0002f520       ?__acrt_stdio_free_stream@@YAXV__crt_stdio_stream@@@Z 0000000180030520 f   libucrt:stream.obj
 0001:0002f53c       __dcrt_lowio_ensure_console_output_initialized 000000018003053c f   libucrt:initcon.obj
 0001:0002f590       __dcrt_terminate_console_output 0000000180030590 f   libucrt:initcon.obj
 0001:0002f5ac       __dcrt_write_console       00000001800305ac f   libucrt:initcon.obj
 0001:0002f680       _get_fpsr                  0000000180030680 f   libucrt:fpsr.obj
 0001:0002f690       _set_fpsr                  0000000180030690 f   libucrt:fpsr.obj
 0001:0002f69a       _fclrf                     000000018003069a f   libucrt:fpsr.obj
 0001:0002f6ae       _frnd                      00000001800306ae f   libucrt:fpsr.obj
 0001:0002f6d0       _raise_exc                 00000001800306d0 f   libucrt:fpexcept.obj
 0001:0002f6f8       _raise_exc_ex              00000001800306f8 f   libucrt:fpexcept.obj
 0001:0002fa08       _set_errno_from_matherr    0000000180030a08 f   libucrt:fpexcept.obj
 0001:0002fa38       _clrfp                     0000000180030a38 f   libucrt:fpctrl.obj
 0001:0002fa58       _ctrlfp                    0000000180030a58 f   libucrt:fpctrl.obj
 0001:0002fad4       _set_statfp                0000000180030ad4 f   libucrt:fpctrl.obj
 0001:0002faf4       _statfp                    0000000180030af4 f   libucrt:fpctrl.obj
 0001:0002fb05       Process32FirstW            0000000180030b05 f   kernel32:KERNEL32.dll
 0001:0002fb0b       Process32NextW             0000000180030b0b f   kernel32:KERNEL32.dll
 0001:0002fb11       IsProcessorFeaturePresent  0000000180030b11 f   kernel32:KERNEL32.dll
 0001:0002fb18       ?apiGetConsoleFontSize@@YAHPEAXAEAH1AEAY0CA@_W@Z 0000000180030b18 f   common-kernel64:WConsole.obj
 0001:0002fbe0       ?apiGetCurrentConsoleFontEx@@YAHPEAXHPEAUMY_CONSOLE_FONT_INFOEX@@@Z 0000000180030be0 f   common-kernel64:WConsole.obj
 0001:0002fc5c       ?apiSetConsoleFontSize@@YAHPEAXHHPEB_W@Z 0000000180030c5c f   common-kernel64:WConsole.obj
 0001:0002fdc8       ?apiSetCurrentConsoleFontEx@@YAHPEAXHPEAUMY_CONSOLE_FONT_INFOEX@@@Z 0000000180030dc8 f   common-kernel64:WConsole.obj
 0001:0002fe50       _FindPESection             0000000180030e50 f   LIBCMT:pesect.obj
 0001:0002fea0       _IsNonwritableInCurrentImage 0000000180030ea0 f   LIBCMT:pesect.obj
 0001:0002fef0       _ValidateImageBase         0000000180030ef0 f   LIBCMT:pesect.obj
 0001:0002ff20       __GSHandlerCheck_SEH       0000000180030f20 f   LIBCMT:gshandlerseh.obj
 0001:0002ffc0       _guard_dispatch_icall_nop  0000000180030fc0 f   LIBCMT:guard_dispatch.obj
 0001:0002ffe0       _guard_xfg_dispatch_icall_nop 0000000180030fe0 f   LIBCMT:guard_xfg_dispatch.obj
 0002:00000000       __imp_RegQueryValueExW     0000000180032000     advapi32:ADVAPI32.dll
 0002:00000008       __imp_RegOpenKeyExW        0000000180032008     advapi32:ADVAPI32.dll
 0002:00000010       __imp_RegCloseKey          0000000180032010     advapi32:ADVAPI32.dll
 0002:00000018       __imp_RegCreateKeyExW      0000000180032018     advapi32:ADVAPI32.dll
 0002:00000020       \177ADVAPI32_NULL_THUNK_DATA 0000000180032020     advapi32:ADVAPI32.dll
 0002:00000028       __imp_GdiFlush             0000000180032028     gdi32:GDI32.dll
 0002:00000030       __imp_GetEnhMetaFileBits   0000000180032030     gdi32:GDI32.dll
 0002:00000038       __imp_DeleteEnhMetaFile    0000000180032038     gdi32:GDI32.dll
 0002:00000040       __imp_CreateEnhMetaFileW   0000000180032040     gdi32:GDI32.dll
 0002:00000048       __imp_CloseEnhMetaFile     0000000180032048     gdi32:GDI32.dll
 0002:00000050       __imp_GetDeviceCaps        0000000180032050     gdi32:GDI32.dll
 0002:00000058       __imp_DeleteObject         0000000180032058     gdi32:GDI32.dll
 0002:00000060       __imp_CreateSolidBrush     0000000180032060     gdi32:GDI32.dll
 0002:00000068       __imp_CreateCompatibleDC   0000000180032068     gdi32:GDI32.dll
 0002:00000070       __imp_CreateFontIndirectW  0000000180032070     gdi32:GDI32.dll
 0002:00000078       __imp_DeleteDC             0000000180032078     gdi32:GDI32.dll
 0002:00000080       __imp_SelectObject         0000000180032080     gdi32:GDI32.dll
 0002:00000088       __imp_GetTextMetricsW      0000000180032088     gdi32:GDI32.dll
 0002:00000090       \177GDI32_NULL_THUNK_DATA  0000000180032090     gdi32:GDI32.dll
 0002:00000098       __imp_SetEvent             0000000180032098     kernel32:KERNEL32.dll
 0002:000000a0       __imp_ResetEvent           00000001800320a0     kernel32:KERNEL32.dll
 0002:000000a8       __imp_ReleaseSemaphore     00000001800320a8     kernel32:KERNEL32.dll
 0002:000000b0       __imp_WaitForSingleObject  00000001800320b0     kernel32:KERNEL32.dll
 0002:000000b8       __imp_CreateEventW         00000001800320b8     kernel32:KERNEL32.dll
 0002:000000c0       __imp_Sleep                00000001800320c0     kernel32:KERNEL32.dll
 0002:000000c8       __imp_WaitForMultipleObjects 00000001800320c8     kernel32:KERNEL32.dll
 0002:000000d0       __imp_CreateSemaphoreW     00000001800320d0     kernel32:KERNEL32.dll
 0002:000000d8       __imp_GetCurrentProcess    00000001800320d8     kernel32:KERNEL32.dll
 0002:000000e0       __imp_TerminateProcess     00000001800320e0     kernel32:KERNEL32.dll
 0002:000000e8       __imp_GetExitCodeProcess   00000001800320e8     kernel32:KERNEL32.dll
 0002:000000f0       __imp_GetCurrentThreadId   00000001800320f0     kernel32:KERNEL32.dll
 0002:000000f8       __imp_SuspendThread        00000001800320f8     kernel32:KERNEL32.dll
 0002:00000100       __imp_ResumeThread         0000000180032100     kernel32:KERNEL32.dll
 0002:00000108       __imp_CreateProcessW       0000000180032108     kernel32:KERNEL32.dll
 0002:00000110       __imp_GetTickCount         0000000180032110     kernel32:KERNEL32.dll
 0002:00000118       __imp_CreateFileMappingW   0000000180032118     kernel32:KERNEL32.dll
 0002:00000120       __imp_OpenFileMappingW     0000000180032120     kernel32:KERNEL32.dll
 0002:00000128       __imp_MapViewOfFile        0000000180032128     kernel32:KERNEL32.dll
 0002:00000130       __imp_UnmapViewOfFile      0000000180032130     kernel32:KERNEL32.dll
 0002:00000138       __imp_GetModuleFileNameW   0000000180032138     kernel32:KERNEL32.dll
 0002:00000140       __imp_lstrcmpW             0000000180032140     kernel32:KERNEL32.dll
 0002:00000148       __imp_lstrcmpiW            0000000180032148     kernel32:KERNEL32.dll
 0002:00000150       __imp_lstrcatW             0000000180032150     kernel32:KERNEL32.dll
 0002:00000158       __imp_IsBadStringPtrW      0000000180032158     kernel32:KERNEL32.dll
 0002:00000160       __imp_GetConsoleMode       0000000180032160     kernel32:KERNEL32.dll
 0002:00000168       __imp_SetConsoleMode       0000000180032168     kernel32:KERNEL32.dll
 0002:00000170       __imp_GetNumberOfConsoleInputEvents 0000000180032170     kernel32:KERNEL32.dll
 0002:00000178       __imp_ReadConsoleInputW    0000000180032178     kernel32:KERNEL32.dll
 0002:00000180       __imp_CloseHandle          0000000180032180     kernel32:KERNEL32.dll
 0002:00000188       __imp_GetConsoleCursorInfo 0000000180032188     kernel32:KERNEL32.dll
 0002:00000190       __imp_GetConsoleScreenBufferInfo 0000000180032190     kernel32:KERNEL32.dll
 0002:00000198       __imp_WriteConsoleInputW   0000000180032198     kernel32:KERNEL32.dll
 0002:000001a0       __imp_SetLastError         00000001800321a0     kernel32:KERNEL32.dll
 0002:000001a8       __imp_SetConsoleTitleW     00000001800321a8     kernel32:KERNEL32.dll
 0002:000001b0       __imp_CreateToolhelp32Snapshot 00000001800321b0     kernel32:KERNEL32.dll
 0002:000001b8       __imp_Thread32First        00000001800321b8     kernel32:KERNEL32.dll
 0002:000001c0       __imp_Thread32Next         00000001800321c0     kernel32:KERNEL32.dll
 0002:000001c8       __imp_Module32FirstW       00000001800321c8     kernel32:KERNEL32.dll
 0002:000001d0       __imp_Module32NextW        00000001800321d0     kernel32:KERNEL32.dll
 0002:000001d8       __imp_FlushFileBuffers     00000001800321d8     kernel32:KERNEL32.dll
 0002:000001e0       __imp_ReadFile             00000001800321e0     kernel32:KERNEL32.dll
 0002:000001e8       __imp_WriteFile            00000001800321e8     kernel32:KERNEL32.dll
 0002:000001f0       __imp_ConnectNamedPipe     00000001800321f0     kernel32:KERNEL32.dll
 0002:000001f8       __imp_DisconnectNamedPipe  00000001800321f8     kernel32:KERNEL32.dll
 0002:00000200       __imp_CreateNamedPipeW     0000000180032200     kernel32:KERNEL32.dll
 0002:00000208       __imp_GetOverlappedResult  0000000180032208     kernel32:KERNEL32.dll
 0002:00000210       __imp_SetThreadPriority    0000000180032210     kernel32:KERNEL32.dll
 0002:00000218       __imp_GetExitCodeThread    0000000180032218     kernel32:KERNEL32.dll
 0002:00000220       __imp_SetEnvironmentVariableW 0000000180032220     kernel32:KERNEL32.dll
 0002:00000228       __imp_VirtualProtect       0000000180032228     kernel32:KERNEL32.dll
 0002:00000230       __imp_LoadLibraryW         0000000180032230     kernel32:KERNEL32.dll
 0002:00000238       __imp_GetProcAddress       0000000180032238     kernel32:KERNEL32.dll
 0002:00000240       __imp_GetModuleHandleW     0000000180032240     kernel32:KERNEL32.dll
 0002:00000248       __imp_GetCurrentProcessId  0000000180032248     kernel32:KERNEL32.dll
 0002:00000250       __imp_GetLastError         0000000180032250     kernel32:KERNEL32.dll
 0002:00000258       __imp_IsDebuggerPresent    0000000180032258     kernel32:KERNEL32.dll
 0002:00000260       __imp_DeleteFileW          0000000180032260     kernel32:KERNEL32.dll
 0002:00000268       __imp_GetEnvironmentVariableW 0000000180032268     kernel32:KERNEL32.dll
 0002:00000270       __imp_GetEnvironmentStringsW 0000000180032270     kernel32:KERNEL32.dll
 0002:00000278       __imp_GetStdHandle         0000000180032278     kernel32:KERNEL32.dll
 0002:00000280       __imp_WriteConsoleW        0000000180032280     kernel32:KERNEL32.dll
 0002:00000288       __imp_GetConsoleCP         0000000180032288     kernel32:KERNEL32.dll
 0002:00000290       __imp_WideCharToMultiByte  0000000180032290     kernel32:KERNEL32.dll
 0002:00000298       __imp_MultiByteToWideChar  0000000180032298     kernel32:KERNEL32.dll
 0002:000002a0       __imp_lstrlenA             00000001800322a0     kernel32:KERNEL32.dll
 0002:000002a8       __imp_lstrcpyA             00000001800322a8     kernel32:KERNEL32.dll
 0002:000002b0       __imp_lstrcpynA            00000001800322b0     kernel32:KERNEL32.dll
 0002:000002b8       __imp_lstrlenW             00000001800322b8     kernel32:KERNEL32.dll
 0002:000002c0       __imp_lstrcpyW             00000001800322c0     kernel32:KERNEL32.dll
 0002:000002c8       __imp_GetConsoleTitleW     00000001800322c8     kernel32:KERNEL32.dll
 0002:000002d0       __imp_lstrcpynW            00000001800322d0     kernel32:KERNEL32.dll
 0002:000002d8       __imp_PeekConsoleInputW    00000001800322d8     kernel32:KERNEL32.dll
 0002:000002e0       __imp_VerSetConditionMask  00000001800322e0     kernel32:KERNEL32.dll
 0002:000002e8       __imp_HeapCreate           00000001800322e8     kernel32:KERNEL32.dll
 0002:000002f0       __imp_HeapDestroy          00000001800322f0     kernel32:KERNEL32.dll
 0002:000002f8       __imp_HeapAlloc            00000001800322f8     kernel32:KERNEL32.dll
 0002:00000300       __imp_HeapReAlloc          0000000180032300     kernel32:KERNEL32.dll
 0002:00000308       __imp_HeapFree             0000000180032308     kernel32:KERNEL32.dll
 0002:00000310       __imp_CreateFileW          0000000180032310     kernel32:KERNEL32.dll
 0002:00000318       __imp_SetNamedPipeHandleState 0000000180032318     kernel32:KERNEL32.dll
 0002:00000320       __imp_TransactNamedPipe    0000000180032320     kernel32:KERNEL32.dll
 0002:00000328       __imp_WaitNamedPipeW       0000000180032328     kernel32:KERNEL32.dll
 0002:00000330       __imp_GetConsoleWindow     0000000180032330     kernel32:KERNEL32.dll
 0002:00000338       __imp_DebugBreak           0000000180032338     kernel32:KERNEL32.dll
 0002:00000340       __imp_RaiseException       0000000180032340     kernel32:KERNEL32.dll
 0002:00000348       __imp_CreateThread         0000000180032348     kernel32:KERNEL32.dll
 0002:00000350       __imp_TerminateThread      0000000180032350     kernel32:KERNEL32.dll
 0002:00000358       __imp_FreeEnvironmentStringsW 0000000180032358     kernel32:KERNEL32.dll
 0002:00000360       __imp_ExpandEnvironmentStringsW 0000000180032360     kernel32:KERNEL32.dll
 0002:00000368       __imp_HeapSize             0000000180032368     kernel32:KERNEL32.dll
 0002:00000370       __imp_FreeLibrary          0000000180032370     kernel32:KERNEL32.dll
 0002:00000378       __imp_LocalAlloc           0000000180032378     kernel32:KERNEL32.dll
 0002:00000380       __imp_LocalFree            0000000180032380     kernel32:KERNEL32.dll
 0002:00000388       __imp_FindClose            0000000180032388     kernel32:KERNEL32.dll
 0002:00000390       __imp_FindFirstFileW       0000000180032390     kernel32:KERNEL32.dll
 0002:00000398       __imp_FindNextFileW        0000000180032398     kernel32:KERNEL32.dll
 0002:000003a0       __imp_GetFileInformationByHandle 00000001800323a0     kernel32:KERNEL32.dll
 0002:000003a8       __imp_VerifyVersionInfoW   00000001800323a8     kernel32:KERNEL32.dll
 0002:000003b0       __imp_Process32FirstW      00000001800323b0     kernel32:KERNEL32.dll
 0002:000003b8       __imp_Process32NextW       00000001800323b8     kernel32:KERNEL32.dll
 0002:000003c0       __imp_OpenThread           00000001800323c0     kernel32:KERNEL32.dll
 0002:000003c8       __imp_GetSystemInfo        00000001800323c8     kernel32:KERNEL32.dll
 0002:000003d0       __imp_VirtualAlloc         00000001800323d0     kernel32:KERNEL32.dll
 0002:000003d8       __imp_VirtualFree          00000001800323d8     kernel32:KERNEL32.dll
 0002:000003e0       __imp_IsBadReadPtr         00000001800323e0     kernel32:KERNEL32.dll
 0002:000003e8       __imp_InitializeCriticalSection 00000001800323e8     kernel32:KERNEL32.dll
 0002:000003f0       __imp_EnterCriticalSection 00000001800323f0     kernel32:KERNEL32.dll
 0002:000003f8       __imp_LeaveCriticalSection 00000001800323f8     kernel32:KERNEL32.dll
 0002:00000400       __imp_TryEnterCriticalSection 0000000180032400     kernel32:KERNEL32.dll
 0002:00000408       __imp_DeleteCriticalSection 0000000180032408     kernel32:KERNEL32.dll
 0002:00000410       __imp_ReleaseMutex         0000000180032410     kernel32:KERNEL32.dll
 0002:00000418       __imp_CreateMutexW         0000000180032418     kernel32:KERNEL32.dll
 0002:00000420       __imp_GetConsoleOutputCP   0000000180032420     kernel32:KERNEL32.dll
 0002:00000428       __imp_GetStartupInfoW      0000000180032428     kernel32:KERNEL32.dll
 0002:00000430       __imp_InitializeCriticalSectionAndSpinCount 0000000180032430     kernel32:KERNEL32.dll
 0002:00000438       __imp_WaitForSingleObjectEx 0000000180032438     kernel32:KERNEL32.dll
 0002:00000440       __imp_RtlCaptureContext    0000000180032440     kernel32:KERNEL32.dll
 0002:00000448       __imp_RtlLookupFunctionEntry 0000000180032448     kernel32:KERNEL32.dll
 0002:00000450       __imp_RtlVirtualUnwind     0000000180032450     kernel32:KERNEL32.dll
 0002:00000458       __imp_UnhandledExceptionFilter 0000000180032458     kernel32:KERNEL32.dll
 0002:00000460       __imp_SetUnhandledExceptionFilter 0000000180032460     kernel32:KERNEL32.dll
 0002:00000468       __imp_IsProcessorFeaturePresent 0000000180032468     kernel32:KERNEL32.dll
 0002:00000470       __imp_QueryPerformanceCounter 0000000180032470     kernel32:KERNEL32.dll
 0002:00000478       __imp_GetSystemTimeAsFileTime 0000000180032478     kernel32:KERNEL32.dll
 0002:00000480       __imp_InitializeSListHead  0000000180032480     kernel32:KERNEL32.dll
 0002:00000488       __imp_RtlUnwindEx          0000000180032488     kernel32:KERNEL32.dll
 0002:00000490       __imp_RtlPcToFileHeader    0000000180032490     kernel32:KERNEL32.dll
 0002:00000498       __imp_InterlockedFlushSList 0000000180032498     kernel32:KERNEL32.dll
 0002:000004a0       __imp_EncodePointer        00000001800324a0     kernel32:KERNEL32.dll
 0002:000004a8       __imp_TlsAlloc             00000001800324a8     kernel32:KERNEL32.dll
 0002:000004b0       __imp_TlsGetValue          00000001800324b0     kernel32:KERNEL32.dll
 0002:000004b8       __imp_TlsSetValue          00000001800324b8     kernel32:KERNEL32.dll
 0002:000004c0       __imp_TlsFree              00000001800324c0     kernel32:KERNEL32.dll
 0002:000004c8       __imp_LoadLibraryExW       00000001800324c8     kernel32:KERNEL32.dll
 0002:000004d0       __imp_ExitProcess          00000001800324d0     kernel32:KERNEL32.dll
 0002:000004d8       __imp_GetModuleHandleExW   00000001800324d8     kernel32:KERNEL32.dll
 0002:000004e0       __imp_GetFileType          00000001800324e0     kernel32:KERNEL32.dll
 0002:000004e8       __imp_FindFirstFileExW     00000001800324e8     kernel32:KERNEL32.dll
 0002:000004f0       __imp_IsValidCodePage      00000001800324f0     kernel32:KERNEL32.dll
 0002:000004f8       __imp_GetACP               00000001800324f8     kernel32:KERNEL32.dll
 0002:00000500       __imp_GetOEMCP             0000000180032500     kernel32:KERNEL32.dll
 0002:00000508       __imp_GetCPInfo            0000000180032508     kernel32:KERNEL32.dll
 0002:00000510       __imp_GetCommandLineA      0000000180032510     kernel32:KERNEL32.dll
 0002:00000518       __imp_GetCommandLineW      0000000180032518     kernel32:KERNEL32.dll
 0002:00000520       __imp_LCMapStringW         0000000180032520     kernel32:KERNEL32.dll
 0002:00000528       __imp_GetProcessHeap       0000000180032528     kernel32:KERNEL32.dll
 0002:00000530       __imp_SetFilePointerEx     0000000180032530     kernel32:KERNEL32.dll
 0002:00000538       __imp_GetStringTypeW       0000000180032538     kernel32:KERNEL32.dll
 0002:00000540       __imp_SetStdHandle         0000000180032540     kernel32:KERNEL32.dll
 0002:00000548       \177KERNEL32_NULL_THUNK_DATA 0000000180032548     kernel32:KERNEL32.dll
 0002:00000550       __imp_FillRect             0000000180032550     user32:USER32.dll
 0002:00000558       __imp_ReleaseDC            0000000180032558     user32:USER32.dll
 0002:00000560       __imp_GetClassNameW        0000000180032560     user32:USER32.dll
 0002:00000568       __imp_GetSystemMetrics     0000000180032568     user32:USER32.dll
 0002:00000570       __imp_FindWindowW          0000000180032570     user32:USER32.dll
 0002:00000578       __imp_SetWindowPos         0000000180032578     user32:USER32.dll
 0002:00000580       __imp_EnableWindow         0000000180032580     user32:USER32.dll
 0002:00000588       __imp_IsWindowEnabled      0000000180032588     user32:USER32.dll
 0002:00000590       __imp_GetWindowRect        0000000180032590     user32:USER32.dll
 0002:00000598       __imp_MonitorFromWindow    0000000180032598     user32:USER32.dll
 0002:000005a0       __imp_GetMonitorInfoW      00000001800325a0     user32:USER32.dll
 0002:000005a8       __imp_SendMessageW         00000001800325a8     user32:USER32.dll
 0002:000005b0       __imp_ShowWindow           00000001800325b0     user32:USER32.dll
 0002:000005b8       __imp_ShowWindowAsync      00000001800325b8     user32:USER32.dll
 0002:000005c0       __imp_LoadKeyboardLayoutW  00000001800325c0     user32:USER32.dll
 0002:000005c8       __imp_IsRectEmpty          00000001800325c8     user32:USER32.dll
 0002:000005d0       __imp_EnumDisplayMonitors  00000001800325d0     user32:USER32.dll
 0002:000005d8       __imp_GetDC                00000001800325d8     user32:USER32.dll
 0002:000005e0       __imp_GetWindowThreadProcessId 00000001800325e0     user32:USER32.dll
 0002:000005e8       __imp_IsWindowVisible      00000001800325e8     user32:USER32.dll
 0002:000005f0       __imp_PostMessageW         00000001800325f0     user32:USER32.dll
 0002:000005f8       __imp_RegisterWindowMessageW 00000001800325f8     user32:USER32.dll
 0002:00000600       __imp_wsprintfW            0000000180032600     user32:USER32.dll
 0002:00000608       __imp_CharUpperBuffW       0000000180032608     user32:USER32.dll
 0002:00000610       __imp_GetParent            0000000180032610     user32:USER32.dll
 0002:00000618       __imp_GetWindowLongPtrW    0000000180032618     user32:USER32.dll
 0002:00000620       __imp_IsWindow             0000000180032620     user32:USER32.dll
 0002:00000628       __imp_MessageBoxW          0000000180032628     user32:USER32.dll
 0002:00000630       __imp_ActivateKeyboardLayout 0000000180032630     user32:USER32.dll
 0002:00000638       \177USER32_NULL_THUNK_DATA 0000000180032638     user32:USER32.dll
 0002:00000640       __imp_VerQueryValueW       0000000180032640     version:VERSION.dll
 0002:00000648       __imp_GetFileVersionInfoW  0000000180032648     version:VERSION.dll
 0002:00000650       __imp_GetFileVersionInfoSizeW 0000000180032650     version:VERSION.dll
 0002:00000658       \177VERSION_NULL_THUNK_DATA 0000000180032658     version:VERSION.dll
 0002:00000660       __guard_check_icall_fptr   0000000180032660     LIBCMT:guard_support.obj
 0002:00000668       __guard_xfg_check_icall_fptr 0000000180032668     LIBCMT:guard_support.obj
 0002:00000670       __guard_dispatch_icall_fptr 0000000180032670     LIBCMT:guard_support.obj
 0002:00000678       __guard_xfg_dispatch_icall_fptr 0000000180032678     LIBCMT:guard_support.obj
 0002:00000680       __guard_xfg_table_dispatch_icall_fptr 0000000180032680     LIBCMT:guard_support.obj
 0002:00000688       __xc_a                     0000000180032688     LIBCMT:initializers.obj
 0002:00000698       __xc_z                     0000000180032698     LIBCMT:initializers.obj
 0002:000006a0       __xi_a                     00000001800326a0     LIBCMT:initializers.obj
 0002:000006b0       __acrt_stdio_initializer   00000001800326b0     libucrt:stdio_initializer.obj
 0002:000006b8       __acrt_multibyte_initializer 00000001800326b8     libucrt:multibyte_initializer.obj
 0002:000006c0       __acrt_tran_fma3_initializer 00000001800326c0     libucrt:fma3_initializer.obj
 0002:000006c8       __xi_z                     00000001800326c8     LIBCMT:initializers.obj
 0002:000006d0       __xl_a                     00000001800326d0     LIBCMT:tlssup.obj
 0002:000006d8       __xl_z                     00000001800326d8     LIBCMT:tlssup.obj
 0002:000006e0       __xp_a                     00000001800326e0     LIBCMT:initializers.obj
 0002:000006e8       __acrt_locale_terminator   00000001800326e8     libucrt:locale_initializer.obj
 0002:000006f0       __dcrt_console_output_terminator 00000001800326f0     libucrt:console_output_initializer.obj
 0002:000006f8       __acrt_stdio_terminator    00000001800326f8     libucrt:stdio_initializer.obj
 0002:00000700       __xp_z                     0000000180032700     LIBCMT:initializers.obj
 0002:00000708       __xt_a                     0000000180032708     LIBCMT:initializers.obj
 0002:00000710       __xt_z                     0000000180032710     LIBCMT:initializers.obj
 0002:00000720       ??_C@_1BO@MLCHEAGG@?$AAC?$AAo?$AAn?$AAE?$AAm?$AAu?$AAH?$AAk?$AA6?$AA4?$AA?4?$AAd?$AAl?$AAl@ 0000000180032720     ConEmuInjects.obj
 0002:00000740       ??_C@_1IM@IDJBHJMA@?$AAC?$AAo?$AAn?$AAE?$AAm?$AAu?$AAH?$AAk?$AA?5?$AAw?$AAa?$AAs?$AA?5?$AAn?$AAo@ 0000000180032740     ConEmuInjects.obj
 0002:000007d0       ??_C@_1BM@LHLFCECN@?$AAC?$AAo?$AAn?$AAE?$AAm?$AAu?$AA?5?$AAp?$AAl?$AAu?$AAg?$AAi?$AAn@ 00000001800327d0     ConEmuInjects.obj
 0002:000007f0       ??_C@_0BB@OPFPFOCM@SetHookCallbacks@ 00000001800327f0     ConEmuInjects.obj
 0002:00000808       ??_C@_0BH@HLKHEPME@SetLoadLibraryCallback@ 0000000180032808     ConEmuInjects.obj
 0002:00000820       ??_C@_0P@JOHNNMGG@SetFarHookMode@ 0000000180032820     ConEmuInjects.obj
 0002:00000830       ??_C@_1CM@DEPCLAGE@?$AAC?$AAo?$AAn?$AAE?$AAm?$AAu?$AA?5?$AAp?$AAl?$AAu?$AAg?$AAi?$AAn?$AA?0?$AA?5@ 0000000180032830     ConEmuInjects.obj
 0002:00000860       ??_C@_1CC@JNEFFKJH@?$AAS?$AAe?$AAt?$AAH?$AAo?$AAo?$AAk?$AAC?$AAa?$AAl?$AAl?$AAb?$AAa?$AAc?$AAk@ 0000000180032860     ConEmuInjects.obj
 0002:00000888       ??_C@_1CO@HHOFMBDD@?$AAS?$AAe?$AAt?$AAL?$AAo?$AAa?$AAd?$AAL?$AAi?$AAb?$AAr?$AAa?$AAr?$AAy?$AAC@ 0000000180032888     ConEmuInjects.obj
 0002:000008b8       ??_C@_1BO@OGOEDKED@?$AAS?$AAe?$AAt?$AAF?$AAa?$AAr?$AAH?$AAo?$AAo?$AAk?$AAM?$AAo?$AAd?$AAe@ 00000001800328b8     ConEmuInjects.obj
 0002:000008e0       ??_C@_1FG@GKBMDCCM@?$AAC?$AAo?$AAn?$AAE?$AAm?$AAu?$AAH?$AAk?$AA?5?$AAi?$AAs?$AA?5?$AAb?$AAr?$AAo@ 00000001800328e0     ConEmuInjects.obj
 0002:00000938       ??_C@_1BK@MGMFAEKH@?$AAk?$AAe?$AAr?$AAn?$AAe?$AAl?$AA3?$AA2?$AA?4?$AAd?$AAl?$AAl@ 0000000180032938     ConEmuInjects.obj
 0002:00000958       ??_C@_0M@LAGCIMKJ@FreeConsole@ 0000000180032958     ConEmuInjects.obj
 0002:00000968       ??_C@_0N@MOGGHBHN@AllocConsole@ 0000000180032968     ConEmuInjects.obj
 0002:00000978       ??_C@_0BC@BINPJBNK@PeekConsoleInputA@ 0000000180032978     ConEmuInjects.obj
 0002:00000990       ??_C@_0BC@EEHCEAN@PeekConsoleInputW@ 0000000180032990     ConEmuInjects.obj
 0002:000009a8       ??_C@_0BC@JNLCHFED@ReadConsoleInputA@ 00000001800329a8     ConEmuInjects.obj
 0002:000009c0       ??_C@_0BC@IBCKMAJE@ReadConsoleInputW@ 00000001800329c0     ConEmuInjects.obj
 0002:000009d8       ??_C@_0BE@PKLMIEOM@WriteConsoleOutputA@ 00000001800329d8     ConEmuInjects.obj
 0002:000009f0       ??_C@_0BE@OGCEDBDL@WriteConsoleOutputW@ 00000001800329f0     ConEmuInjects.obj
 0002:00000a08       ??_C@_0BO@HCPBIAL@GetNumberOfConsoleInputEvents@ 0000000180032a08     ConEmuInjects.obj
 0002:00000a28       ??_C@_1BI@BNFKGMFK@?$AAs?$AAh?$AAe?$AAl?$AAl?$AA3?$AA2?$AA?4?$AAd?$AAl?$AAl@ 0000000180032a28     ConEmuInjects.obj
 0002:00000a40       ??_C@_0BA@LIPPODFA@ShellExecuteExW@ 0000000180032a40     ConEmuInjects.obj
 0002:00000a50       ??_C@_1CM@NELFNPDE@?$AAE?$AAx?$AAt?$AAe?$AAn?$AAd?$AAe?$AAd?$AAC?$AAo?$AAn?$AAs?$AAo?$AAl?$AAe@ 0000000180032a50     ConEmuInjects.obj
 0002:00000a80       ??_C@_0BE@MFLNGBIK@SetConsoleCallbacks@ 0000000180032a80     ConEmuInjects.obj
 0002:00000a98       ??_C@_08BCACMCCB@ExitFARW@ 0000000180032a98     ConEmuPlugin.obj
 0002:00000aa8       ??_C@_0BE@PJBDJPG@ProcessEditorEventW@ 0000000180032aa8     ConEmuPlugin.obj
 0002:00000ac0       ??_C@_0BE@OMPAFBFG@ProcessViewerEventW@ 0000000180032ac0     ConEmuPlugin.obj
 0002:00000ad8       ??_C@_0BF@NLPJFAHE@ProcessSynchroEventW@ 0000000180032ad8     ConEmuPlugin.obj
 0002:00000af0       ??_C@_1BA@JOPOJEME@?$AAE?$AAx?$AAi?$AAt?$AAF?$AAA?$AAR@ 0000000180032af0     ConEmuPlugin.obj
 0002:00000b00       ??_C@_1BO@LDDOEOAL@?$AAE?$AAx?$AAi?$AAt?$AAF?$AAA?$AAR?$AA?5?$AA?9?$AA?5?$AAd?$AAo?$AAn?$AAe@ 0000000180032b00     ConEmuPlugin.obj
 0002:00000b20       ??_C@_1BC@OCOOMPC@?$AAE?$AAx?$AAi?$AAt?$AAF?$AAA?$AAR?$AAW@ 0000000180032b20     ConEmuPlugin.obj
 0002:00000b38       ??_C@_1CA@IFHGCKFI@?$AAE?$AAx?$AAi?$AAt?$AAF?$AAA?$AAR?$AAW?$AA?5?$AA?9?$AA?5?$AAd?$AAo?$AAn?$AAe@ 0000000180032b38     ConEmuPlugin.obj
 0002:00000b58       ??_C@_1BE@GNKIHEAN@?$AAE?$AAx?$AAi?$AAt?$AAF?$AAA?$AAR?$AAW?$AA3@ 0000000180032b58     ConEmuPlugin.obj
 0002:00000b70       ??_C@_1CC@LCFMKIJA@?$AAE?$AAx?$AAi?$AAt?$AAF?$AAA?$AAR?$AAW?$AA3?$AA?5?$AA?9?$AA?5?$AAd?$AAo?$AAn@ 0000000180032b70     ConEmuPlugin.obj
 0002:00000b94       ??_C@_11LOCGONAA@@         0000000180032b94     ConEmuPlugin1900.obj
 0002:00000ba0       ??_7CPluginW1900@@6B@      0000000180032ba0     ConEmuPlugin1900.obj
 0002:00000cc8       ??_C@_1O@PICBDAL@?$AAC?$AAo?$AAn?$AAE?$AAm?$AAu@ 0000000180032cc8     ConEmuPlugin1900.obj
 0002:00000cd8       ??_C@_1BK@BCDKFLCP@?$AAE?$AAx?$AAi?$AAt?$AAF?$AAA?$AAR?$AAW?$AA1?$AA9?$AA0?$AA0@ 0000000180032cd8     ConEmuPlugin1900.obj
 0002:00000cf8       ??_C@_1CI@OHGGDAJD@?$AAE?$AAx?$AAi?$AAt?$AAF?$AAA?$AAR?$AAW?$AA1?$AA9?$AA0?$AA0?$AA?5?$AA?9?$AA?5@ 0000000180032cf8     ConEmuPlugin1900.obj
 0002:00000d20       ??_C@_1M@OKCNCBMD@?$AA$?$AAT?$AAE?$AAX?$AAT@ 0000000180032d20     ConEmuPlugin1900.obj
 0002:00000d30       ??_C@_1O@BBPMHPCD@?$AAp?$AAr?$AAi?$AAn?$AAt?$AA?$CI@ 0000000180032d30     ConEmuPlugin1900.obj
 0002:00000d40       ??_C@_19JPEEHMMI@?$AA?5?$AA?7?$AA?$AN?$AA?6@ 0000000180032d40     ConEmuPlugin1900.obj
 0002:00000d50       ??_C@_1BC@OLJIBFPH@?$AA?0?$AA?5?$AAH?$AAi?$AAn?$AAt?$AA?3?$AA?5@ 0000000180032d50     ConEmuPlugin1900.obj
 0002:00000d70       ??_C@_1BCK@MAAKAKN@?$AAE?$AAr?$AAr?$AAo?$AAr?$AA?5?$AAi?$AAn?$AA?5?$AAM?$AAa?$AAc?$AAr?$AAo?$AA?4@ 0000000180032d70     ConEmuPlugin1900.obj
 0002:00000ea0       ??_C@_1OK@GOJADEAC@?$AAE?$AAr?$AAr?$AAo?$AAr?$AA?5?$AAi?$AAn?$AA?5?$AAM?$AAa?$AAc?$AAr?$AAo?$AA?4@ 0000000180032ea0     ConEmuPlugin1900.obj
 0002:00000f90       ??_C@_0BF@MFOIGNA@BackgroundMacroError@ 0000000180032f90     ConEmuPlugin1900.obj
 0002:00000fa8       ??_C@_1BI@EKLHEFDO@?$AAS?$AAh?$AAo?$AAw?$AAM?$AAe?$AAn?$AAu?$AAB?$AAa?$AAr@ 0000000180032fa8     ConEmuPlugin1900.obj
 0002:00000fc0       ??_C@_1O@PDEOIOBG@?$AAK?$AAe?$AAy?$AAB?$AAa?$AAr@ 0000000180032fc0     ConEmuPlugin1900.obj
 0002:00000fd0       ??_C@_1BK@MBFACEDG@?$AAC?$AAo?$AAl?$AAu?$AAm?$AAn?$AAT?$AAi?$AAt?$AAl?$AAe?$AAs@ 0000000180032fd0     ConEmuPlugin1900.obj
 0002:00000ff0       ??_C@_1BG@MHMKAABO@?$AAS?$AAt?$AAa?$AAt?$AAu?$AAs?$AAL?$AAi?$AAn?$AAe@ 0000000180032ff0     ConEmuPlugin1900.obj
 0002:00001008       ??_C@_1BC@IALIJCAM@?$AAS?$AAo?$AAr?$AAt?$AAM?$AAo?$AAd?$AAe@ 0000000180033008     ConEmuPlugin1900.obj
 0002:00001020       ??_C@_1BK@BKCACCAI@?$AAW?$AAT?$AAY?$AAP?$AAE?$AA_?$AAP?$AAA?$AAN?$AAE?$AAL?$AAS@ 0000000180033020     ConEmuPlugin1900.obj
 0002:00001040       ??_C@_1BK@LNCDOEEM@?$AAW?$AAT?$AAY?$AAP?$AAE?$AA_?$AAV?$AAI?$AAE?$AAW?$AAE?$AAR@ 0000000180033040     ConEmuPlugin1900.obj
 0002:00001060       ??_C@_1BK@MHHDIBO@?$AAW?$AAT?$AAY?$AAP?$AAE?$AA_?$AAE?$AAD?$AAI?$AAT?$AAO?$AAR@ 0000000180033060     ConEmuPlugin1900.obj
 0002:00001080       ??_C@_1BK@NEJJBFEB@?$AAW?$AAT?$AAY?$AAP?$AAE?$AA_?$AAD?$AAI?$AAA?$AAL?$AAO?$AAG@ 0000000180033080     ConEmuPlugin1900.obj
 0002:000010a0       ??_C@_1BI@IHGDMIGH@?$AAW?$AAT?$AAY?$AAP?$AAE?$AA_?$AAV?$AAM?$AAE?$AAN?$AAU@ 00000001800330a0     ConEmuPlugin1900.obj
 0002:000010b8       ??_C@_1BG@LKGDBHML@?$AAW?$AAT?$AAY?$AAP?$AAE?$AA_?$AAH?$AAE?$AAL?$AAP@ 00000001800330b8     ConEmuPlugin1900.obj
 0002:000010d0       ??_C@_1BA@LEPJIIOK@?$AAU?$AAn?$AAk?$AAn?$AAo?$AAw?$AAn@ 00000001800330d0     ConEmuPlugin1900.obj
 0002:000010e0       ??_C@_1CE@PEOBLGJK@?$AAC?$AAo?$AAn?$AAE?$AAm?$AAu?$AAM?$AAa?$AAc?$AAr?$AAo?$AAR?$AAe?$AAs?$AAu@ 00000001800330e0     ConEmuPlugin1900.obj
 0002:00001108       ??_C@_1BO@HNJMHBAE@?$AAC?$AAo?$AAn?$AAE?$AAm?$AAu?$AAG?$AAu?$AAi?$AAM?$AAa?$AAc?$AAr?$AAo@ 0000000180033108     ConEmuPlugin1900.obj
 0002:00001130       __xmm@00000000000000020000000500000000 0000000180033130     ConEmuPlugin1900.obj
 0002:00001140       __xmm@00000000000000040000000500000000 0000000180033140     ConEmuPlugin1900.obj
 0002:00001150       __xmm@00000000000000070000000000000007 0000000180033150     ConEmuPlugin1900.obj
 0002:00001160       __xmm@00000046000000030000000500000004 0000000180033160     ConEmuPlugin1900.obj
 0002:00001170       __xmm@00000046000000050000000500000004 0000000180033170     ConEmuPlugin1900.obj
 0002:00001180       __xmm@00000048000000010000000300000003 0000000180033180     ConEmuPlugin1900.obj
 0002:00001198       ??_7exception@std@@6B@     0000000180033198     ConEmuPlugin2800.obj
 0002:000011a8       ??_C@_0BC@EOODALEL@Unknown?5exception@ 00000001800331a8     ConEmuPlugin2800.obj
 0002:000011c8       ??_7bad_alloc@std@@6B@     00000001800331c8     ConEmuPlugin2800.obj
 0002:000011d8       ??_C@_0P@GHFPNOJB@bad?5allocation@ 00000001800331d8     ConEmuPlugin2800.obj
 0002:000011f0       ??_7CPluginW2800@@6B@      00000001800331f0     ConEmuPlugin2800.obj
 0002:00001318       ??_C@_1DO@JIOAOHCJ@?$AAC?$AAo?$AAn?$AAE?$AAm?$AAu?$AA?5?$AAs?$AAu?$AAp?$AAp?$AAo?$AAr?$AAt?$AA?5@ 0000000180033318     ConEmuPlugin2800.obj
 0002:00001358       ??_C@_1DE@DJEAMLPH@?$AAC?$AAo?$AAn?$AAE?$AAm?$AAu?$AA?4?$AAM?$AAa?$AAx?$AAi?$AAm?$AAu?$AAs?$AA5@ 0000000180033358     ConEmuPlugin2800.obj
 0002:00001390       ??_C@_17IOMHDNEC@?$AAf?$AAa?$AAr@ 0000000180033390     ConEmuPlugin2800.obj
 0002:00001398       ??_C@_1BK@DFKHOALC@?$AAE?$AAx?$AAi?$AAt?$AAF?$AAA?$AAR?$AAW?$AA2?$AA8?$AA0?$AA0@ 0000000180033398     ConEmuPlugin2800.obj
 0002:000013b8       ??_C@_1CI@KIFAPNHL@?$AAE?$AAx?$AAi?$AAt?$AAF?$AAA?$AAR?$AAW?$AA2?$AA8?$AA0?$AA0?$AA?5?$AA?9?$AA?5@ 00000001800333b8     ConEmuPlugin2800.obj
 0002:000013e0       ??_C@_1BCK@KGGLGNDM@?$AAE?$AAr?$AAr?$AAo?$AAr?$AA?5?$AAi?$AAn?$AA?5?$AAM?$AAa?$AAc?$AAr?$AAo?$AA?4@ 00000001800333e0     ConEmuPlugin2800.obj
 0002:00001510       ??_C@_1OK@MGLNOED@?$AAE?$AAr?$AAr?$AAo?$AAr?$AA?5?$AAi?$AAn?$AA?5?$AAM?$AAa?$AAc?$AAr?$AAo?$AA?4@ 0000000180033510     ConEmuPlugin2800.obj
 0002:00001600       ??_C@_0BA@FOIKENOD@vector?5too?5long@ 0000000180033600     ConEmuPlugin2800.obj
 0002:00001610       __xmm@00000000000000000000000000000002 0000000180033610     ConEmuPlugin2800.obj
 0002:00001620       __xmm@00000000000000000000000000000004 0000000180033620     ConEmuPlugin2800.obj
 0002:00001630       __xmm@00000000000000000000000000000007 0000000180033630     ConEmuPlugin2800.obj
 0002:00001640       __xmm@00000000000000460000000000000003 0000000180033640     ConEmuPlugin2800.obj
 0002:00001650       __xmm@00000000000000460000000000000005 0000000180033650     ConEmuPlugin2800.obj
 0002:00001660       __xmm@00000000000000480000000000000001 0000000180033660     ConEmuPlugin2800.obj
 0002:00001678       ??_7CPluginW995@@6B@       0000000180033678     ConEmuPlugin995.obj
 0002:000017a0       ??_C@_1BI@IBAPHBGL@?$AAE?$AAx?$AAi?$AAt?$AAF?$AAA?$AAR?$AAW?$AA9?$AA9?$AA5@ 00000001800337a0     ConEmuPlugin995.obj
 0002:000017b8       ??_C@_1CG@PKCNLDOL@?$AAE?$AAx?$AAi?$AAt?$AAF?$AAA?$AAR?$AAW?$AA9?$AA9?$AA5?$AA?5?$AA?9?$AA?5?$AAd@ 00000001800337b8     ConEmuPlugin995.obj
 0002:000017e0       __xmm@00000001000000000000000000000002 00000001800337e0     ConEmuPlugin995.obj
 0002:000017f0       __xmm@00000033000000010000000300000003 00000001800337f0     ConEmuPlugin995.obj
 0002:00001800       ??_C@_00CNPNBAHC@@         0000000180033800     ConEmuPluginA.obj
 0002:00001810       ??_7CPluginAnsi@@6B@       0000000180033810     ConEmuPluginA.obj
 0002:00001938       ??_C@_1O@BKFLFFPA@?$AAP?$AAl?$AAu?$AAg?$AAi?$AAn@ 0000000180033938     ConEmuPluginA.obj
 0002:00001948       ??_C@_06HGFNEGAJ@ConEmu@   0000000180033948     ConEmuPluginA.obj
 0002:00001950       ??_C@_0P@DFGMHJNG@ConEmuGuiMacro@ 0000000180033950     ConEmuPluginA.obj
 0002:00001968       ??_7CPluginBase@@6B@       0000000180033968     ConEmuPluginBase.obj
 0002:00001a90       ??_C@_13FPGAJAPJ@?$AA?2@   0000000180033a90     ConEmuPluginBase.obj
 0002:00001aa0       ??_C@_1FG@DPPGENBC@?$AAL?$AAo?$AAa?$AAd?$AAA?$AAp?$AAp?$AAV?$AAe?$AAr?$AAs?$AAi?$AAo?$AAn?$AA?4@ 0000000180033aa0     ConEmuPluginBase.obj
 0002:00001b00       ??_C@_1FK@HILEEFML@?$AAL?$AAo?$AAa?$AAd?$AAA?$AAp?$AAp?$AAV?$AAe?$AAr?$AAs?$AAi?$AAo?$AAn?$AA?4@ 0000000180033b00     ConEmuPluginBase.obj
 0002:00001b60       ??_C@_1GC@BINFLBDC@?$AAL?$AAo?$AAa?$AAd?$AAA?$AAp?$AAp?$AAV?$AAe?$AAr?$AAs?$AAi?$AAo?$AAn?$AA?5@ 0000000180033b60     ConEmuPluginBase.obj
 0002:00001bd0       ??_C@_1GC@CPPHDKJK@?$AAL?$AAo?$AAa?$AAd?$AAA?$AAp?$AAp?$AAV?$AAe?$AAr?$AAs?$AAi?$AAo?$AAn?$AA?4@ 0000000180033bd0     ConEmuPluginBase.obj
 0002:00001c40       ??_C@_1EG@IINOBDEG@?$AAI?$AAn?$AAv?$AAa?$AAl?$AAi?$AAd?$AA?5?$AAa?$AAs?$AAM?$AAo?$AAd?$AAu?$AAl@ 0000000180033c40     ConEmuPluginBase.obj
 0002:00001c88       ??_C@_1CA@GGFPMHLH@?$AA?6?$AAE?$AAr?$AAr?$AAC?$AAo?$AAd?$AAe?$AA?$DN?$AA0?$AAx?$AA?$CF?$AA0?$AA8?$AAX@ 0000000180033c88     ConEmuPluginBase.obj
 0002:00001cb0       ??_C@_1FG@LNADFPCE@?$AAL?$AAo?$AAa?$AAd?$AAF?$AAa?$AAr?$AAV?$AAe?$AAr?$AAs?$AAi?$AAo?$AAn?$AA?4@ 0000000180033cb0     ConEmuPluginBase.obj
 0002:00001d08       ??_C@_0BP@OODKCJPP@Wow64DisableWow64FsRedirection@ 0000000180033d08     ConEmuPluginBase.obj
 0002:00001d28       ??_C@_0BO@KOCOEJCM@Wow64RevertWow64FsRedirection@ 0000000180033d28     ConEmuPluginBase.obj
 0002:00001d48       ??_C@_1BO@ONHPLONP@?$AAC?$AAo?$AAn?$AAE?$AAm?$AAu?$AA?4?$AAx?$AA6?$AA4?$AA?4?$AAd?$AAl?$AAl@ 0000000180033d48     ConEmuPluginBase.obj
 0002:00001d70       ??_C@_1IA@EGLJCBKE@?$AAS?$AAy?$AAn?$AAc?$AAh?$AAo?$AA?5?$AAe?$AAv?$AAe?$AAn?$AAt?$AAs?$AA?5?$AAa@ 0000000180033d70     ConEmuPluginBase.obj
 0002:00001df0       ??_C@_1BG@NBIHKCLP@?$AAC?$AAo?$AAn?$AAE?$AAm?$AAu?$AA?4?$AAd?$AAl?$AAl@ 0000000180033df0     ConEmuPluginBase.obj
 0002:00001e08       ??_C@_13LBAGMAIH@?$AA?6@   0000000180033e08     ConEmuPluginBase.obj
 0002:00001e10       ??_C@_1PO@CKPDODMD@?$AAS?$AAe?$AAv?$AAe?$AAr?$AAa?$AAl?$AA?5?$AAi?$AAn?$AAs?$AAt?$AAa?$AAn?$AAc@ 0000000180033e10     ConEmuPluginBase.obj
 0002:00001f10       ??_C@_13IMODFHAA@?$AA?9@   0000000180033f10     ConEmuPluginBase.obj
 0002:00001f20       ??_C@_1FI@CBKBKFFI@?$AAC?$AAo?$AAn?$AAE?$AAm?$AAu?$AA?5?$AAp?$AAl?$AAu?$AAg?$AAi?$AAn?$AA?5?$AA?$CF@ 0000000180033f20     ConEmuPluginBase.obj
 0002:00001f78       ??_C@_1BG@DILNIJHK@?$AA?$DM?$AAM?$AAs?$AAg?$AAI?$AAD?$AA?$DN?$AA?$CF?$AAi?$AA?$DO@ 0000000180033f78     ConEmuPluginBase.obj
 0002:00001f90       ??_C@_1PO@DJAPICLP@?$AA$?$AAi?$AAf?$AA?5?$AA?$CI?$AA?$CB?$AAE?$AAd?$AAi?$AAt?$AAo?$AAr?$AA?5?$AA?$CG?$AA?$CG@ 0000000180033f90     ConEmuPluginBase.obj
 0002:00002090       ??_C@_1EK@LJEKIKEG@?$AA4?$AAb?$AA6?$AA7?$AA5?$AAd?$AA8?$AA0?$AA?9?$AA1?$AAd?$AA4?$AAa?$AA?9?$AA4@ 0000000180034090     ConEmuPluginBase.obj
 0002:000020e0       ??_C@_1BBO@FBOKPEBF@?$AA$?$AAi?$AAf?$AA?5?$AA?$CI?$AAA?$AAP?$AAa?$AAn?$AAe?$AAl?$AA?4?$AAP?$AAl?$AAu@ 00000001800340e0     ConEmuPluginBase.obj
 0002:00002200       ??_C@_1LO@GJMEBJHL@?$AAP?$AAl?$AAu?$AAg?$AAi?$AAn?$AA?4?$AAC?$AAa?$AAl?$AAl?$AA?$CI?$AA?$CC?$AA?$CF?$AAs@ 0000000180034200     ConEmuPluginBase.obj
 0002:000022c0       ??_C@_1BA@CMKDJLHG@?$AA?$HN?$AA?5?$AA?9?$AA?5?$AAF?$AAa?$AAr@ 00000001800342c0     ConEmuPluginBase.obj
 0002:000022d0       ??_C@_17MEJHPLBO@?$AAc?$AAm?$AAd@ 00000001800342d0     ConEmuPluginBase.obj
 0002:000022d8       ??_C@_1CK@KEKIDABI@?$AAC?$AAo?$AAn?$AAE?$AAm?$AAu?$AA?4?$AAC?$AAr?$AAe?$AAa?$AAt?$AAe?$AAP?$AAr@ 00000001800342d8     ConEmuPluginBase.obj
 0002:00002308       ??_C@_1CM@MHCEHIEP@?$AAS?$AAt?$AAa?$AAr?$AAt?$AA?5?$AAc?$AAo?$AAn?$AAs?$AAo?$AAl?$AAe?$AA?5?$AAp@ 0000000180034308     ConEmuPluginBase.obj
 0002:00002338       ??_C@_17BJPFHBEJ@?$AAC?$AA?3?$AA?2@ 0000000180034338     ConEmuPluginBase.obj
 0002:00002340       ??_C@_1BK@NEALEMPH@?$AA?9?$AAn?$AAe?$AAw?$AA_?$AAc?$AAo?$AAn?$AAs?$AAo?$AAl?$AAe@ 0000000180034340     ConEmuPluginBase.obj
 0002:00002360       ??_C@_19KHBBCLDH@?$AAr?$AAu?$AAn?$AA?3@ 0000000180034360     ConEmuPluginBase.obj
 0002:0000236c       ??_C@_13DANNHAJN@?$AAV@    000000018003436c     ConEmuPluginBase.obj
 0002:00002370       ??_C@_13IABLFADB@?$AAH@    0000000180034370     ConEmuPluginBase.obj
 0002:00002378       ??_C@_17PBAHFJOA@?$AAY?$AAe?$AAs@ 0000000180034378     ConEmuPluginBase.obj
 0002:00002380       ??_C@_15BICKNCBF@?$AAN?$AAo@ 0000000180034380     ConEmuPluginBase.obj
 0002:00002390       ??_C@_1BPK@LEDPNENO@?$AAC?$AAo?$AAn?$AAE?$AAm?$AAu?$AA?5?$AAC?$AAo?$AAn?$AAs?$AAo?$AAl?$AAe?$AA?5@ 0000000180034390     ConEmuPluginBase.obj
 0002:00002590       ??_C@_1BM@MGPNCPCE@?$AAC?$AAo?$AAn?$AAE?$AAm?$AAu?$AAB?$AAa?$AAs?$AAe?$AAD?$AAi?$AAr@ 0000000180034590     ConEmuPluginBase.obj
 0002:000025b0       ??_C@_1BK@PCAIPEAH@?$AA?2?$AAC?$AAo?$AAn?$AAE?$AAm?$AAu?$AAC?$AA?4?$AAe?$AAx?$AAe@ 00000001800345b0     ConEmuPluginBase.obj
 0002:000025d0       ??_C@_1CI@DIEJPMOK@?$AA?2?$AAC?$AAo?$AAn?$AAE?$AAm?$AAu?$AA?2?$AAC?$AAo?$AAn?$AAE?$AAm?$AAu?$AAC@ 00000001800345d0     ConEmuPluginBase.obj
 0002:00002600       ??_C@_1HE@BLMGMKID@?$AA?$CC?$AA?$CF?$AAs?$AA?$CC?$AA?5?$AA?1?$AAA?$AAT?$AAT?$AAA?$AAC?$AAH?$AA?5?$AA?1?$AAR@ 0000000180034600     ConEmuPluginBase.obj
 0002:00002680       ??_C@_1EO@CCMHHKOG@?$AA?$CC?$AA?$CF?$AAs?$AA?$CC?$AA?5?$AA?1?$AAD?$AAE?$AAB?$AAU?$AAG?$AAP?$AAI?$AAD?$AA?$DN@ 0000000180034680     ConEmuPluginBase.obj
 0002:000026d0       ??_C@_1CA@CIILNAEN@?$AA?2?$AAC?$AAo?$AAn?$AAE?$AAm?$AAu?$AAH?$AAk?$AA6?$AA4?$AA?4?$AAd?$AAl?$AAl@ 00000001800346d0     ConEmuPluginBase.obj
 0002:000026f0       ??_C@_1BM@DIGKKBBA@?$AAC?$AAo?$AAn?$AAE?$AAm?$AAu?$AAC?$AA6?$AA4?$AA?4?$AAe?$AAx?$AAe@ 00000001800346f0     ConEmuPluginBase.obj
 0002:00002710       ??_C@_1BI@OPBAAHCM@?$AAC?$AAo?$AAn?$AAE?$AAm?$AAu?$AAC?$AA?4?$AAe?$AAx?$AAe@ 0000000180034710     ConEmuPluginBase.obj
 0002:00002728       ??_C@_1BE@FFPCKGKG@?$AA?1?$AAC?$AAO?$AAN?$AAF?$AAI?$AAR?$AAM?$AA?5@ 0000000180034728     ConEmuPluginBase.obj
 0002:00002740       ??_C@_1DA@LLHOBAFM@?$AA?$CC?$AA?5?$AA?1?$AAA?$AAT?$AAT?$AAA?$AAC?$AAH?$AA?5?$AA?1?$AAF?$AAA?$AAR?$AAP@ 0000000180034740     ConEmuPluginBase.obj
 0002:00002770       ??_C@_1BA@JLPJLFMH@?$AA?1?$AAG?$AAI?$AAD?$AA?$DN?$AA?$CF?$AAi@ 0000000180034770     ConEmuPluginBase.obj
 0002:00002780       ??_C@_1CI@EIEAGHGL@?$AAC?$AAo?$AAn?$AAE?$AAm?$AAu?$AAS?$AAr?$AAv?$AAS?$AAt?$AAa?$AAr?$AAt?$AAe@ 0000000180034780     ConEmuPluginBase.obj
 0002:000027a8       ??_C@_0BD@DHBGKFD@RequestLocalServer@ 00000001800347a8     ConEmuPluginBase.obj
 0002:000027c0       ??_C@_17LCEPOKH@?$AAC?$AAE?$AAM@ 00000001800347c0     ConEmuPluginBase.obj
 0002:000027c8       ??_C@_19LKKOIHJI@?$AA?4?$AAt?$AAm?$AAp@ 00000001800347c8     ConEmuPluginBase.obj
 0002:000027e0       ??_C@_1BFI@CAKBMDAF@?$AAW?$AAr?$AAo?$AAn?$AAg?$AA?5?$AAp?$AAl?$AAu?$AAg?$AAi?$AAn?$AA?5?$AAv?$AAe@ 00000001800347e0     ConEmuPluginBase.obj
 0002:00002938       ??_C@_1BA@DAHNNHGF@?$AAF?$AAA?$AAR?$AAL?$AAA?$AAN?$AAG@ 0000000180034938     ConEmuPluginBase.obj
 0002:00002950       ??_C@_1EA@BFFHMENH@?$AAC?$AAo?$AAn?$AAE?$AAm?$AAu?$AAC?$AA?3?$AA?5?$AAC?$AAh?$AAe?$AAc?$AAk?$AAR@ 0000000180034950     ConEmuPluginBase.obj
 0002:00002990       ??_C@_19LELMJPKF@?$AAe?$AAd?$AAi?$AAt@ 0000000180034990     ConEmuPluginBase.obj
 0002:000029a0       ??_C@_19IGFHNPAK@?$AAv?$AAi?$AAe?$AAw@ 00000001800349a0     ConEmuPluginBase.obj
 0002:000029b0       ??_C@_1CC@IHNECLD@?$AA?$HL?$AAT?$AAe?$AAm?$AAp?$AAo?$AAr?$AAa?$AAr?$AAy?$AA?5?$AAp?$AAa?$AAn?$AAe@ 00000001800349b0     ConEmuPluginBase.obj
 0002:000029d8       ??_C@_1CO@ELKEEMPJ@?$AAC?$AAo?$AAn?$AAE?$AAm?$AAu?$AAF?$AAi?$AAl?$AAe?$AAM?$AAa?$AAp?$AAp?$AAi@ 00000001800349d8     ConEmuPluginBase.obj
 0002:00002a08       ??_C@_1BI@ENONIIIC@?$AAF?$AAa?$AAr?$AA?5?$AAM?$AAa?$AAn?$AAa?$AAg?$AAe?$AAr@ 0000000180034a08     ConEmuPluginBase.obj
 0002:00002a20       ??_C@_19HBICLLML@?$AAF?$AAA?$AAR?$AA2@ 0000000180034a20     ConEmuPluginBase.obj
 0002:00002a30       ??_C@_17NACPPFBM@?$AAF?$AAA?$AAR@ 0000000180034a30     ConEmuPluginBase.obj
 0002:00002a38       ??_C@_1BA@NIFIBMHP@?$AAF?$AAA?$AAR?$AAU?$AAS?$AAE?$AAR@ 0000000180034a38     ConEmuPluginBase.obj
 0002:00002a48       ??_C@_1BA@FJJFMPFO@?$AA?2?$AAU?$AAs?$AAe?$AAr?$AAs?$AA?2@ 0000000180034a48     ConEmuPluginBase.obj
 0002:00002a58       ??_C@_1BE@FLHKCJKF@?$AAS?$AAo?$AAf?$AAt?$AAw?$AAa?$AAr?$AAe?$AA?2@ 0000000180034a58     ConEmuPluginBase.obj
 0002:00002a70       ??_C@_1CG@HOMCPCN@?$AA?2?$AAP?$AAl?$AAu?$AAg?$AAi?$AAn?$AAs?$AA?2?$AAP?$AAa?$AAn?$AAe?$AAl?$AAT@ 0000000180034a70     ConEmuPluginBase.obj
 0002:00002a98       ??_C@_1BK@NFAPLMGI@?$AAS?$AAe?$AAp?$AAa?$AAr?$AAa?$AAt?$AAe?$AAT?$AAa?$AAb?$AAs@ 0000000180034a98     ConEmuPluginBase.obj
 0002:00002ab8       ??_C@_1BI@GILFJGEK@?$AAB?$AAu?$AAt?$AAt?$AAo?$AAn?$AAC?$AAo?$AAl?$AAo?$AAr@ 0000000180034ab8     ConEmuPluginBase.obj
 0002:00002ad0       ??_C@_1DE@DBNFJOHM@?$AAC?$AAo?$AAn?$AAs?$AAo?$AAl?$AAe?$AA2?$AA_?$AAc?$AAo?$AAn?$AAs?$AAo?$AAl@ 0000000180034ad0     ConEmuPluginBase.obj
 0002:00002b08       ??_C@_1CK@EANOIBDN@?$AAC?$AAo?$AAn?$AAE?$AAm?$AAu?$AAC?$AAt?$AAr?$AAl?$AAP?$AAr?$AAe?$AAs?$AAs@ 0000000180034b08     ConEmuPluginBase.obj
 0002:00002b38       ??_C@_1CM@JBFABNEO@?$AAC?$AAo?$AAn?$AAE?$AAm?$AAu?$AAS?$AAh?$AAi?$AAf?$AAt?$AAP?$AAr?$AAe?$AAs@ 0000000180034b38     ConEmuPluginBase.obj
 0002:00002b68       ??_C@_1CE@DLFCKCF@?$AAC?$AAo?$AAn?$AAE?$AAm?$AAu?$AAT?$AAa?$AAb?$AAs?$AAC?$AAh?$AAa?$AAn?$AAg@ 0000000180034b68     ConEmuPluginBase.obj
 0002:00002b90       ??_C@_0BG@HFNJBNKJ@Plugin?3?3MonitorThread@ 0000000180034b90     ConEmuPluginBase.obj
 0002:00002ba8       ??_C@_1BG@OILDLIOJ@?$AAu?$AAs?$AAe?$AAr?$AA3?$AA2?$AA?4?$AAd?$AAl?$AAl@ 0000000180034ba8     ConEmuPluginBase.obj
 0002:00002bc0       ??_C@_0BJ@GFJHAGKD@AllowSetForegroundWindow@ 0000000180034bc0     ConEmuPluginBase.obj
 0002:00002be0       ??_C@_1BO@KPCFCPEP@?$AAC?$AAo?$AAn?$AAE?$AAm?$AAu?$AAC?$AAD?$AA6?$AA4?$AA?4?$AAd?$AAl?$AAl@ 0000000180034be0     ConEmuPluginBase.obj
 0002:00002c00       ??_C@_1HO@CHHOFADM@?$AAC?$AAo?$AAn?$AAs?$AAo?$AAl?$AAe?$AA?5?$AAw?$AAa?$AAs?$AA?5?$AAa?$AAb?$AAn@ 0000000180034c00     ConEmuPluginBase.obj
 0002:00002c80       ??_C@_1NC@MNABBPPB@?$AA$?$AAi?$AAf?$AA?5?$AA?$CI?$AAS?$AAe?$AAa?$AAr?$AAc?$AAh?$AA?$CJ?$AA?5?$AAE?$AAs@ 0000000180034c80     ConEmuPluginBase.obj
 0002:00002d60       ??_C@_1MK@EDFFIGHJ@?$AA$?$AAi?$AAf?$AA?5?$AA?$CI?$AAS?$AAe?$AAa?$AAr?$AAc?$AAh?$AA?$CJ?$AA?5?$AAE?$AAs@ 0000000180034d60     ConEmuPluginBase.obj
 0002:00002e30       ??_C@_1BBA@LKLGFJB@?$AAi?$AAf?$AA?5?$AAA?$AAr?$AAe?$AAa?$AA?4?$AAS?$AAe?$AAa?$AAr?$AAc?$AAh?$AA?5@ 0000000180034e30     ConEmuPluginBase.obj
 0002:00002f40       ??_C@_0P@LNKHCDND@OnConEmuLoaded@ 0000000180034f40     ConEmuPluginBase.obj
 0002:00002f50       ??_C@_0BA@IDLLFCLM@SetStartupInfoW@ 0000000180034f50     ConEmuPluginBase.obj
 0002:00002f60       ??_C@_0P@JNNILPEA@SetStartupInfo@ 0000000180034f60     ConEmuPluginBase.obj
 0002:00002f70       ??_C@_0FI@CMDDEBEE@C?3?2Users?2Maksim?4Moisiuk?2Documen@ 0000000180034f70     ConEmuPluginBase.obj
 0002:00002fc8       ??_C@_1BC@GNOFNJJG@?$AAM?$AAs?$AAL?$AAC?$AAl?$AAi?$AAc?$AAk@ 0000000180034fc8     ConEmuPluginBase.obj
 0002:00002fe0       ??_C@_1CC@DFJIOIPL@?$AAK?$AAe?$AAy?$AAs?$AA?$CI?$AA?8?$AAM?$AAs?$AAL?$AAC?$AAl?$AAi?$AAc?$AAk?$AA?8@ 0000000180034fe0     ConEmuPluginBase.obj
 0002:00003008       ??_C@_1CM@IICFOBPI@?$AA$?$AAi?$AAf?$AA?5?$AA?$CI?$AAS?$AAe?$AAa?$AAr?$AAc?$AAh?$AA?$CJ?$AA?5?$AAE?$AAs@ 0000000180035008     ConEmuPluginBase.obj
 0002:00003038       ??_C@_1DO@LEFBPADB@?$AAi?$AAf?$AA?5?$AAA?$AAr?$AAe?$AAa?$AA?4?$AAS?$AAe?$AAa?$AAr?$AAc?$AAh?$AA?5@ 0000000180035038     ConEmuPluginBase.obj
 0002:00003080       ??_C@_1CCO@OMFPMNEO@?$AA?$EA?$AAi?$AAf?$AA?5?$AAn?$AAo?$AAt?$AA?5?$AAC?$AAm?$AAd?$AAL?$AAi?$AAn?$AAe@ 0000000180035080     ConEmuPluginBase.obj
 0002:000032b0       ??_C@_1CAM@BBLMGMFK@?$AA?$EA?$AA$?$AAI?$AAf?$AA?5?$AA?$CI?$AA?$CB?$AAC?$AAm?$AAd?$AAL?$AAi?$AAn?$AAe?$AA?4@ 00000001800352b0     ConEmuPluginBase.obj
 0002:000034c0       ??_C@_1CG@OILEFJJN@?$AAC?$AAo?$AAn?$AAE?$AAm?$AAu?$AAT?$AAh?$AA?3?$AA?3?$AAS?$AAe?$AAt?$AAt?$AAi@ 00000001800354c0     ConEmuPluginBase.obj
 0002:000034e8       ??_C@_1CI@MBMLEGFG@?$AAC?$AAo?$AAn?$AAE?$AAm?$AAu?$AAF?$AAa?$AAr?$AAM?$AAa?$AAp?$AAp?$AAi?$AAn@ 00000001800354e8     ConEmuPluginBase.obj
 0002:00003510       ??_C@_1CO@INAJPHBH@?$AAC?$AAo?$AAn?$AAE?$AAm?$AAu?$AAF?$AAa?$AAr?$AAA?$AAl?$AAi?$AAv?$AAe?$AAE@ 0000000180035510     ConEmuPluginBase.obj
 0002:00003540       ??_C@_1BE@GLIABAAK@?$AA?$EA?$AA?$FO?$AA$?$AAT?$AAE?$AAX?$AAT?$AA?5?$AA?$CC@ 0000000180035540     ConEmuPluginBase.obj
 0002:00003558       ??_C@_1BE@CPLNCDLK@?$AA?$EA?$AA?$FO?$AAp?$AAr?$AAi?$AAn?$AAt?$AA?$CI?$AA?$CC@ 0000000180035558     ConEmuPluginBase.obj
 0002:0000356c       ??_C@_13NEIAEHFG@?$AA?$CC@ 000000018003556c     ConEmuPluginBase.obj
 0002:00003570       ??_C@_15NJGDBKNF@?$AA?$CC?$AA?$CJ@ 0000000180035570     ConEmuPluginBase.obj
 0002:00003580       ??_C@_1GK@OGACKIKJ@?$AAI?$AAn?$AAt?$AAe?$AAr?$AAn?$AAa?$AAl?$AA?5?$AAe?$AAr?$AAr?$AAo?$AAr?$AA?4@ 0000000180035580     ConEmuPluginBase.obj
 0002:000035f0       ??_C@_19BDAJEHDN@?$AAo?$AAp?$AAe?$AAn@ 00000001800355f0     ConEmuPluginBase.obj
 0002:00003600       ??_C@_1GM@LGOLGABE@?$AAC?$AAa?$AAn?$AA?8?$AAt?$AA?5?$AA?$CF?$AAs?$AA?5?$AAc?$AAo?$AAn?$AAs?$AAo?$AAl@ 0000000180035600     ConEmuPluginBase.obj
 0002:00003670       ??_C@_1BE@HADLJAO@?$AAR?$AAe?$AAa?$AAd?$AAW?$AAr?$AAi?$AAt?$AAe@ 0000000180035670     ConEmuPluginBase.obj
 0002:00003688       ??_C@_19EOHDNDII@?$AAR?$AAe?$AAa?$AAd@ 0000000180035688     ConEmuPluginBase.obj
 0002:000036a0       ??_C@_1FO@BGAPBIGG@?$AAC?$AAa?$AAn?$AA?8?$AAt?$AA?5?$AAm?$AAa?$AAp?$AA?5?$AAc?$AAo?$AAn?$AAs?$AAo@ 00000001800356a0     ConEmuPluginBase.obj
 0002:00003700       ??_C@_1DA@OEIAGFIH@?$AAC?$AAo?$AAn?$AAE?$AAm?$AAu?$AA?$AA?$AAF?$AAa?$AAr?$AA?5?$AAB?$AAa?$AAc?$AAk@ 0000000180035700     PluginBackground.obj
 0002:00003730       ??_C@_1DA@BMIFHIMF@?$AAC?$AAo?$AAn?$AAE?$AAm?$AAu?$AAV?$AAi?$AAe?$AAw?$AAS?$AAe?$AAt?$AAM?$AAa@ 0000000180035730     PluginBackground.obj
 0002:00003760       ??_C@_13JOFGPIOO@?$AA?4@   0000000180035760     PluginSrv.obj
 0002:00003768       ??_C@_1DC@PFNEMDKA@?$AA?2?$AA?2?$AA?$CF?$AAs?$AA?2?$AAp?$AAi?$AAp?$AAe?$AA?2?$AAC?$AAo?$AAn?$AAE?$AAm@ 0000000180035768     PluginSrv.obj
 0002:000037a0       ??_C@_19HGGOABND@?$AA?$CF?$AA0?$AA8?$AAx@ 00000001800357a0     PluginSrv.obj
 0002:000037b0       ??_C@_1FM@LPOPCJG@?$AAS?$AAt?$AAa?$AAr?$AAt?$AAP?$AAi?$AAp?$AAe?$AAS?$AAe?$AAr?$AAv?$AAe?$AAr@ 00000001800357b0     PluginSrv.obj
 0002:00003810       ??_C@_0EK@DNKFANMG@C?3?2Users?2Maksim?4Moisiuk?2Documen@ 0000000180035810     PluginSrv.obj
 0002:00003860       ??_C@_1GC@MCEAIMAO@?$AAS?$AAt?$AAa?$AAr?$AAt?$AAP?$AAi?$AAp?$AAe?$AAI?$AAn?$AAs?$AAt?$AAa?$AAn@ 0000000180035860     PluginSrv.obj
 0002:000038c8       ??_C@_0BB@MDGFLNIP@PipeServerThread@ 00000001800358c8     PluginSrv.obj
 0002:000038e0       ??_C@_1GG@PAGGIEEF@?$AAS?$AAt?$AAa?$AAr?$AAt?$AAP?$AAi?$AAp?$AAe?$AAI?$AAn?$AAs?$AAt?$AAa?$AAn@ 00000001800358e0     PluginSrv.obj
 0002:00003948       ??_C@_1M@KGONCMNM@?$AA?$CF?$AAs?$AA?6?$AA?$CF?$AAs@ 0000000180035948     PluginSrv.obj
 0002:00003960       ??_C@_1EA@JFONKNJK@?$AAP?$AAi?$AAp?$AAe?$AAS?$AAe?$AAr?$AAv?$AAe?$AAr?$AAE?$AAr?$AAr?$AAo?$AAr@ 0000000180035960     PluginSrv.obj
 0002:000039a0       ??_C@_1FG@DJFPBHJF@?$AAP?$AAi?$AAp?$AAe?$AAS?$AAe?$AAr?$AAv?$AAe?$AAr?$AAE?$AAr?$AAr?$AAo?$AAr@ 00000001800359a0     PluginSrv.obj
 0002:00003a00       ??_C@_1GK@OLPCHMBE@?$AAP?$AAi?$AAp?$AAe?$AAS?$AAe?$AAr?$AAv?$AAe?$AAr?$AAT?$AAh?$AAr?$AAe?$AAa@ 0000000180035a00     PluginSrv.obj
 0002:00003a70       ??_C@_1HA@EGHGJDPG@?$AAP?$AAi?$AAp?$AAe?$AAS?$AAe?$AAr?$AAv?$AAe?$AAr?$AAT?$AAh?$AAr?$AAe?$AAa@ 0000000180035a70     PluginSrv.obj
 0002:00003ae0       ??_C@_1HG@LHMKOAMG@?$AAP?$AAi?$AAp?$AAe?$AAS?$AAe?$AAr?$AAv?$AAe?$AAr?$AAT?$AAh?$AAr?$AAe?$AAa@ 0000000180035ae0     PluginSrv.obj
 0002:00003b60       ??_C@_1EM@INHGIPLC@?$AA?$CF?$AAs?$AA?4?$AA?$CF?$AAu?$AA?3?$AA?5?$AAC?$AAr?$AAe?$AAa?$AAt?$AAe?$AAF?$AAi@ 0000000180035b60     common-kernel64:ConEmuCheck.obj
 0002:00003bb0       ??_C@_1DA@LCPELGGN@?$AAC?$AAo?$AAn?$AAE?$AAm?$AAu?$AAG?$AAu?$AAi?$AAI?$AAn?$AAf?$AAo?$AAM?$AAa@ 0000000180035bb0     common-kernel64:ConEmuCheck.obj
 0002:00003be0       ??_C@_1DC@MJLCOFMA@?$AA?2?$AA?2?$AA?$CF?$AAs?$AA?2?$AAp?$AAi?$AAp?$AAe?$AA?2?$AAC?$AAo?$AAn?$AAE?$AAm@ 0000000180035be0     common-kernel64:ConEmuCheck.obj
 0002:00003c18       ??_C@_1CM@OPJKOFLA@?$AA?2?$AA?2?$AA?$CF?$AAs?$AA?2?$AAp?$AAi?$AAp?$AAe?$AA?2?$AAC?$AAo?$AAn?$AAE?$AAm@ 0000000180035c18     common-kernel64:ConEmuCheck.obj
 0002:00003c48       ??_C@_1CG@FFFCCLIF@?$AAC?$AAo?$AAn?$AAs?$AAo?$AAl?$AAe?$AAW?$AAi?$AAn?$AAd?$AAo?$AAw?$AAC?$AAl@ 0000000180035c48     common-kernel64:ConEmuCheck.obj
 0002:00003c70       ??_C@_1CC@LMJBOHFL@?$AAW?$AAi?$AAn?$AAe?$AAC?$AAo?$AAn?$AAs?$AAo?$AAl?$AAe?$AAC?$AAl?$AAa?$AAs@ 0000000180035c70     common-kernel64:ConEmuCheck.obj
 0002:00003c98       ??_C@_1BC@LMIJMNIA@?$AA0?$AA0?$AA0?$AA0?$AA0?$AA0?$AA0?$AA0@ 0000000180035c98     common-kernel64:MStrSafe.obj
 0002:00003cb0       ??_C@_1EHK@JMHPNAMN@?$AAA?$AAC?$AAT?$AAI?$AAV?$AAA?$AAT?$AAE?$AA?$AA?$AAA?$AAL?$AAI?$AAA?$AAS?$AA?$AA@ 0000000180035cb0     common-kernel64:CmdLine.obj
 0002:00004130       ??_C@_19DOGDICKI@?$AA?4?$AAe?$AAx?$AAe@ 0000000180036130     common-kernel64:CmdLine.obj
 0002:00004140       ??_C@_1BG@PIGCKNCG@?$AAC?$AAo?$AAn?$AAE?$AAm?$AAu?$AA?4?$AAe?$AAx?$AAe@ 0000000180036140     common-kernel64:CmdLine.obj
 0002:00004158       ??_C@_1BK@BNOCAHHB@?$AAC?$AAo?$AAn?$AAE?$AAm?$AAu?$AA6?$AA4?$AA?4?$AAe?$AAx?$AAe@ 0000000180036158     common-kernel64:CmdLine.obj
 0002:00004174       ??_C@_05LCABBMOG@?$CFs?3?$CFi@ 0000000180036174     common-kernel64:WThreads.obj
 0002:00004180       ??_C@_19IJOJOJIB@?$AAP?$AAA?$AAT?$AAH@ 0000000180036180     common-kernel64:EnvVar.obj
 0002:00004190       ??_C@_1BO@HJHEFHMO@?$AAK?$AAe?$AAr?$AAn?$AAe?$AAl?$AAB?$AAa?$AAs?$AAe?$AA?4?$AAd?$AAl?$AAl@ 0000000180036190     common-kernel64:MSecurity.obj
 0002:000041b0       ??_C@_1BK@BIGILECK@?$AAA?$AAd?$AAv?$AAa?$AAp?$AAi?$AA3?$AA2?$AA?4?$AAd?$AAl?$AAl@ 00000001800361b0     common-kernel64:MSecurity.obj
 0002:000041d0       ??_C@_0BE@IPKPLIM@AddAccessAllowedAce@ 00000001800361d0     common-kernel64:MSecurity.obj
 0002:000041e8       ??_C@_0BD@EIGAJLOG@AddAccessDeniedAce@ 00000001800361e8     common-kernel64:MSecurity.obj
 0002:00004200       ??_C@_0BJ@ECIKFEOL@AllocateAndInitializeSid@ 0000000180036200     common-kernel64:MSecurity.obj
 0002:00004220       ??_C@_0N@HBKDHKNL@GetLengthSid@ 0000000180036220     common-kernel64:MSecurity.obj
 0002:00004230       ??_C@_0O@GKCEJBAA@InitializeAcl@ 0000000180036230     common-kernel64:MSecurity.obj
 0002:00004240       ??_C@_0BN@FNLANPJJ@InitializeSecurityDescriptor@ 0000000180036240     common-kernel64:MSecurity.obj
 0002:00004260       ??_C@_0BK@DNNLOFO@SetSecurityDescriptorDacl@ 0000000180036260     common-kernel64:MSecurity.obj
 0002:00004288       ??_7exception@stdext@@6B@  0000000180036288     common-kernel64:CEStr.obj
 0002:000042a0       ??_C@_0BC@BDKFLDHL@unknown?5exception@ 00000001800362a0     common-kernel64:CEStr.obj
 0002:000042c0       ??_7bad_alloc@stdext@@6B@  00000001800362c0     common-kernel64:CEStr.obj
 0002:000042d8       ??_C@_1BE@GJOFHIHD@?$AAn?$AAt?$AAd?$AAl?$AAl?$AA?4?$AAd?$AAl?$AAl@ 00000001800362d8     common-kernel64:WObjects.obj
 0002:000042f0       ??_C@_0BF@LOGLPPDD@RtlVerifyVersionInfo@ 00000001800362f0     common-kernel64:WObjects.obj
 0002:00004308       ??_C@_1BA@PHJPMKEE@?$AAC?$AAo?$AAm?$AAS?$AAp?$AAe?$AAc@ 0000000180036308     common-kernel64:WObjects.obj
 0002:00004318       ??_C@_0BD@HGJIAJJM@RequestTrampolines@ 0000000180036318     common-kernel64:HkFunc.obj
 0002:00004338       ??_7?$MToolHelp@UtagPROCESSENTRY32W@@$1?Process32FirstW@@YAHPEAXPEAU1@@Z$1?Process32NextW@@YAH01@Z@@6B@ 0000000180036338     common-kernel64:MProcess.obj
 0002:00004350       ??_7MToolHelpProcess@@6B@  0000000180036350     common-kernel64:MProcess.obj
 0002:00004360       ??_C@_1BK@HHKNEJDC@?$AAt?$AAl?$AAn?$AAt?$AAs?$AAe?$AAs?$AAs?$AA?4?$AAe?$AAx?$AAe@ 0000000180036360     common-kernel64:MProcess.obj
 0002:00004380       ??_C@_1BI@MPDCNJBA@?$AAt?$AAl?$AAn?$AAt?$AAs?$AAv?$AAr?$AA?4?$AAe?$AAx?$AAe@ 0000000180036380     common-kernel64:MProcess.obj
 0002:00004398       ??_C@_1O@GNPNAMOC@?$AA0?$AAx?$AA?$CF?$AA0?$AA8?$AAX@ 0000000180036398     common-user64:SetEnvVar.obj
 0002:000043a8       ??_C@_1BG@CJNOKBPK@?$AAC?$AAo?$AAn?$AAE?$AAm?$AAu?$AAH?$AAW?$AAN?$AAD@ 00000001800363a8     common-user64:SetEnvVar.obj
 0002:000043c0       ??_C@_15EFLNJKHH@?$AA?$CF?$AAu@ 00000001800363c0     common-user64:SetEnvVar.obj
 0002:000043c8       ??_C@_1BE@GIIMEDBE@?$AAC?$AAo?$AAn?$AAE?$AAm?$AAu?$AAP?$AAI?$AAD@ 00000001800363c8     common-user64:SetEnvVar.obj
 0002:000043e0       ??_C@_1BO@BBOAAODE@?$AAC?$AAo?$AAn?$AAE?$AAm?$AAu?$AAD?$AAr?$AAa?$AAw?$AAH?$AAW?$AAN?$AAD@ 00000001800363e0     common-user64:SetEnvVar.obj
 0002:00004400       ??_C@_1BO@DIAPFMAN@?$AAC?$AAo?$AAn?$AAE?$AAm?$AAu?$AAB?$AAa?$AAc?$AAk?$AAH?$AAW?$AAN?$AAD@ 0000000180036400     common-user64:SetEnvVar.obj
 0002:00004420       ??_C@_1CI@PDOPFPLH@?$AAV?$AAi?$AAr?$AAt?$AAu?$AAa?$AAl?$AAC?$AAo?$AAn?$AAs?$AAo?$AAl?$AAe?$AAC@ 0000000180036420     common-user64:ConEmuCheckEx.obj
 0002:00004448       ??_C@_1CC@PDEDDOGK@?$AA?2?$AAP?$AAl?$AAu?$AAg?$AAi?$AAn?$AAs?$AA?2?$AAC?$AAo?$AAn?$AAE?$AAm?$AAu@ 0000000180036448     common-user64:ConEmuCheckEx.obj
 0002:00004470       ??_C@_1CA@CNCOCNJD@?$AAS?$AAo?$AAf?$AAt?$AAw?$AAa?$AAr?$AAe?$AA?2?$AAC?$AAo?$AAn?$AAE?$AAm?$AAu@ 0000000180036470     common-user64:ConEmuCheckEx.obj
 0002:00004490       ??_C@_1CK@KBHIPEEC@?$AAC?$AAo?$AAn?$AAE?$AAm?$AAu?$AA?2?$AAC?$AAo?$AAn?$AAE?$AAm?$AAu?$AAC?$AA6@ 0000000180036490     common-user64:ConEmuCheckEx.obj
 0002:000044c0       ??_C@_1CG@HCDHJIEM@?$AAC?$AAo?$AAn?$AAE?$AAm?$AAu?$AA?2?$AAC?$AAo?$AAn?$AAE?$AAm?$AAu?$AAC?$AA?4@ 00000001800364c0     common-user64:ConEmuCheckEx.obj
 0002:000044f0       __xmm@ffffffff800000010000000000000000 00000001800364f0     common-user64:ConEmuCheckEx.obj
 0002:00004500       __xmm@ffffffff80000002ffffffff80000002 0000000180036500     common-user64:ConEmuCheckEx.obj
 0002:00004510       ??_C@_1BO@CJPKCNHF@?$AAL?$AAu?$AAc?$AAi?$AAd?$AAa?$AA?5?$AAC?$AAo?$AAn?$AAs?$AAo?$AAl?$AAe@ 0000000180036510     common-user64:EmergencyShow.obj
 0002:00004530       ??_C@_1BA@GIKDDGPH@?$AAC?$AAo?$AAn?$AAs?$AAo?$AAl?$AAe@ 0000000180036530     common-user64:EmergencyShow.obj
 0002:00004540       ??_C@_1BC@MAHCNJIF@?$AAF?$AAo?$AAn?$AAt?$AAS?$AAi?$AAz?$AAe@ 0000000180036540     common-user64:EmergencyShow.obj
 0002:00004560       ??_C@_1EM@OAOIIPGN@?$AAC?$AAo?$AAn?$AAs?$AAo?$AAl?$AAe?$AA?2?$AA?$CF?$AAS?$AAy?$AAs?$AAt?$AAe?$AAm@ 0000000180036560     common-user64:EmergencyShow.obj
 0002:000045b0       ??_C@_1DC@GKBPJPHN@?$AAC?$AAo?$AAn?$AAE?$AAm?$AAu?$AAE?$AAm?$AAe?$AAr?$AAg?$AAe?$AAn?$AAc?$AAy@ 00000001800365b0     common-user64:EmergencyShow.obj
 0002:000045f0       ??_C@_1GK@PPEHOOAL@?$AAS?$AAO?$AAF?$AAT?$AAW?$AAA?$AAR?$AAE?$AA?2?$AAM?$AAi?$AAc?$AAr?$AAo?$AAs@ 00000001800365f0     common-user64:WFiles.obj
 0002:0000465c       ??_C@_13PJJBFPED@?$AA?$DL@ 000000018003665c     common-user64:WFiles.obj
 0002:00004660       ??_C@_1FM@HGFGNGE@?$AAC?$AAa?$AAn?$AA?8?$AAt?$AA?5?$AAC?$AAr?$AAe?$AAa?$AAt?$AAe?$AAF?$AAi?$AAl@ 0000000180036660     common-user64:WConsoleEx.obj
 0002:000046c0       ??_C@_1EA@DNEBDKPD@?$AAC?$AAa?$AAn?$AA?8?$AAt?$AA?5?$AAM?$AAa?$AAp?$AAV?$AAi?$AAe?$AAw?$AAO?$AAf@ 00000001800366c0     common-user64:WConsoleEx.obj
 0002:00004700       ??_C@_1BO@IPFLJP@?$AAC?$AAo?$AAn?$AAs?$AAo?$AAl?$AAe?$AA?2?$AAC?$AAo?$AAn?$AAE?$AAm?$AAu@ 0000000180036700     common-user64:WConsoleEx.obj
 0002:00004720       ??_C@_1CE@BJHMHGLF@?$AAH?$AAi?$AAs?$AAt?$AAo?$AAr?$AAy?$AAB?$AAu?$AAf?$AAf?$AAe?$AAr?$AAS?$AAi@ 0000000180036720     common-user64:WConsoleEx.obj
 0002:00004748       ??_C@_1CO@DAOCNAIJ@?$AAN?$AAu?$AAm?$AAb?$AAe?$AAr?$AAO?$AAf?$AAH?$AAi?$AAs?$AAt?$AAo?$AAr?$AAy@ 0000000180036748     common-user64:WConsoleEx.obj
 0002:00004780       ??_7logic_error@std@@6B@   0000000180036780     libcpmt:xthrow.obj
 0002:00004798       ??_7length_error@std@@6B@  0000000180036798     libcpmt:xthrow.obj
 0002:000047b0       ??_7type_info@@6B@         00000001800367b0     LIBCMT:std_type_info_static.obj
 0002:000047c0       ??_C@_1EC@JIJBPKFM@?$AAa?$AAp?$AAi?$AA?9?$AAm?$AAs?$AA?9?$AAw?$AAi?$AAn?$AA?9?$AAc?$AAo?$AAr?$AAe@ 00000001800367c0     LIBCMT:thread_safe_statics.obj
 0002:00004808       ??_C@_0BJ@JEBJOJFJ@SleepConditionVariableCS@ 0000000180036808     LIBCMT:thread_safe_statics.obj
 0002:00004828       ??_C@_0BJ@PGPPEPCC@WakeAllConditionVariable@ 0000000180036828     LIBCMT:thread_safe_statics.obj
 0002:00004848       _pDefaultRawDllMain        0000000180036848     LIBCMT:dll_dllmain.obj
 0002:00004848       _pRawDllMain               0000000180036848     LIBCMT:dll_dllmain.obj
 0002:00004850       __xmm@ffffffffffffffffffffffffffffffff 0000000180036850     LIBCMT:utility.obj
 0002:00004870       ?s_negLengthTab@FH4@@3QBCB 0000000180036870     libvcruntime:risctrnsctrl.obj
 0002:00004880       ?s_shiftTab@FH4@@3QBEB     0000000180036880     libvcruntime:risctrnsctrl.obj
 0002:00004928       _pDestructExceptionObject  0000000180036928     libvcruntime:ehhelpers.obj
 0002:00004938       ??_7bad_exception@std@@6B@ 0000000180036938     libvcruntime:frame.obj
 0002:00004948       ??_C@_0O@DPKOEFFH@bad?5exception@ 0000000180036948     libvcruntime:frame.obj
 0002:00005060       ??_C@_08EHJDFFNH@__based?$CI@ 0000000180037060     libvcruntime:undname.obj
 0002:00005070       ??_C@_07KOLFKCDI@__cdecl@  0000000180037070     libvcruntime:undname.obj
 0002:00005078       ??_C@_08GHMPAG@__pascal@   0000000180037078     libvcruntime:undname.obj
 0002:00005088       ??_C@_09IFJBGAPI@__stdcall@ 0000000180037088     libvcruntime:undname.obj
 0002:00005098       ??_C@_0L@NPHFGOKO@__thiscall@ 0000000180037098     libvcruntime:undname.obj
 0002:000050a8       ??_C@_0L@JMKHOMEK@__fastcall@ 00000001800370a8     libvcruntime:undname.obj
 0002:000050b8       ??_C@_0N@BCKKPABJ@__vectorcall@ 00000001800370b8     libvcruntime:undname.obj
 0002:000050c8       ??_C@_09HIJEGCPM@__clrcall@ 00000001800370c8     libvcruntime:undname.obj
 0002:000050d4       ??_C@_06GHPCKEAG@__eabi@   00000001800370d4     libvcruntime:undname.obj
 0002:000050e0       ??_C@_09IOPIDJLG@__swift_1@ 00000001800370e0     libvcruntime:undname.obj
 0002:000050f0       ??_C@_09KFNFGKHF@__swift_2@ 00000001800370f0     libvcruntime:undname.obj
 0002:00005100       ??_C@_07JOMMBBKO@__ptr64@  0000000180037100     libvcruntime:undname.obj
 0002:00005108       ??_C@_0L@PILCLIHE@__restrict@ 0000000180037108     libvcruntime:undname.obj
 0002:00005118       ??_C@_0M@GFIIJFMG@__unaligned@ 0000000180037118     libvcruntime:undname.obj
 0002:00005128       ??_C@_09DHDLOLLB@restrict?$CI@ 0000000180037128     libvcruntime:undname.obj
 0002:00005134       ??_C@_04NIHEBCM@?5new@     0000000180037134     libvcruntime:undname.obj
 0002:00005140       ??_C@_07FPCDHGMM@?5delete@ 0000000180037140     libvcruntime:undname.obj
 0002:00005148       ??_C@_01NEMOKFLO@?$DN@     0000000180037148     libvcruntime:undname.obj
 0002:0000514c       ??_C@_02GPIOPFAK@?$DO?$DO@ 000000018003714c     libvcruntime:undname.obj
 0002:00005150       ??_C@_02FODMEDOG@?$DM?$DM@ 0000000180037150     libvcruntime:undname.obj
 0002:00005154       ??_C@_01DCLJPIOD@?$CB@     0000000180037154     libvcruntime:undname.obj
 0002:00005158       ??_C@_02EGOFBIJA@?$DN?$DN@ 0000000180037158     libvcruntime:undname.obj
 0002:0000515c       ??_C@_02FDNJECIE@?$CB?$DN@ 000000018003715c     libvcruntime:undname.obj
 0002:00005160       ??_C@_02GPECMEKF@?$FL?$FN@ 0000000180037160     libvcruntime:undname.obj
 0002:00005168       ??_C@_08LHJFAFGD@operator@ 0000000180037168     libvcruntime:undname.obj
 0002:00005174       ??_C@_02HBOOOICD@?9?$DO@   0000000180037174     libvcruntime:undname.obj
 0002:00005178       ??_C@_01NBENCBCI@?$CK@     0000000180037178     libvcruntime:undname.obj
 0002:0000517c       ??_C@_02ECNGHCIF@?$CL?$CL@ 000000018003717c     libvcruntime:undname.obj
 0002:00005180       ??_C@_02BAABKJLB@?9?9@     0000000180037180     libvcruntime:undname.obj
 0002:00005184       ??_C@_01JOAMLHOP@?9@       0000000180037184     libvcruntime:undname.obj
 0002:00005188       ??_C@_01MIFGBAGJ@?$CL@     0000000180037188     libvcruntime:undname.obj
 0002:0000518c       ??_C@_01HNPIGOCE@?$CG@     000000018003718c     libvcruntime:undname.obj
 0002:00005190       ??_C@_03MNHNFDLC@?9?$DO?$CK@ 0000000180037190     libvcruntime:undname.obj
 0002:00005194       ??_C@_01KMDKNFGN@?1@       0000000180037194     libvcruntime:undname.obj
 0002:00005198       ??_C@_01FGNFDNOH@?$CF@     0000000180037198     libvcruntime:undname.obj
 0002:0000519c       ??_C@_01MNNFJEPP@?$DM@     000000018003719c     libvcruntime:undname.obj
 0002:000051a0       ??_C@_02EHCHHCKH@?$DM?$DN@ 00000001800371a0     libvcruntime:undname.obj
 0002:000051a4       ??_C@_01PPODPGHN@?$DO@     00000001800371a4     libvcruntime:undname.obj
 0002:000051a8       ??_C@_02EEKDKGMJ@?$DO?$DN@ 00000001800371a8     libvcruntime:undname.obj
 0002:000051ac       ??_C@_01IHBHIGKO@?0@       00000001800371ac     libvcruntime:undname.obj
 0002:000051b0       ??_C@_02HCKGKOFO@?$CI?$CJ@ 00000001800371b0     libvcruntime:undname.obj
 0002:000051b4       ??_C@_01PJKLJHI@?$HO@      00000001800371b4     libvcruntime:undname.obj
 0002:000051b8       ??_C@_01JKBOJNNK@?$FO@     00000001800371b8     libvcruntime:undname.obj
 0002:000051bc       ??_C@_01DNKMNLPK@?$HM@     00000001800371bc     libvcruntime:undname.obj
 0002:000051c0       ??_C@_02PPKAJPJL@?$CG?$CG@ 00000001800371c0     libvcruntime:undname.obj
 0002:000051c4       ??_C@_02NONPIBCD@?$HM?$HM@ 00000001800371c4     libvcruntime:undname.obj
 0002:000051c8       ??_C@_02FPIMKNGF@?$CK?$DN@ 00000001800371c8     libvcruntime:undname.obj
 0002:000051cc       ??_C@_02FOEOMHFC@?$CL?$DN@ 00000001800371cc     libvcruntime:undname.obj
 0002:000051d0       ??_C@_02FKMDLLOA@?9?$DN@   00000001800371d0     libvcruntime:undname.obj
 0002:000051d4       ??_C@_02FJEHGPIO@?1?$DN@   00000001800371d4     libvcruntime:undname.obj
 0002:000051d8       ??_C@_02FENAOKFI@?$CF?$DN@ 00000001800371d8     libvcruntime:undname.obj
 0002:000051dc       ??_C@_03IKFCCPFF@?$DO?$DO?$DN@ 00000001800371dc     libvcruntime:undname.obj
 0002:000051e0       ??_C@_03CDNPDDLA@?$DM?$DM?$DN@ 00000001800371e0     libvcruntime:undname.obj
 0002:000051e4       ??_C@_02FGJGFEAB@?$CG?$DN@ 00000001800371e4     libvcruntime:undname.obj
 0002:000051e8       ??_C@_02DHLNPPGH@?$HM?$DN@ 00000001800371e8     libvcruntime:undname.obj
 0002:000051ec       ??_C@_02MHEGNOJ@?$FO?$DN@  00000001800371ec     libvcruntime:undname.obj
 0002:000051f0       ??_C@_09IFPLHPGF@?$GAvftable?8@ 00000001800371f0     libvcruntime:undname.obj
 0002:00005200       ??_C@_09BLBHBJP@?$GAvbtable?8@ 0000000180037200     libvcruntime:undname.obj
 0002:00005210       ??_C@_07FEEIOKP@?$GAvcall?8@ 0000000180037210     libvcruntime:undname.obj
 0002:00005218       ??_C@_08LLFFHHDJ@?$GAtypeof?8@ 0000000180037218     libvcruntime:undname.obj
 0002:00005228       ??_C@_0BF@KDPPACIK@?$GAlocal?5static?5guard?8@ 0000000180037228     libvcruntime:undname.obj
 0002:00005240       ??_C@_08OBABFOLI@?$GAstring?8@ 0000000180037240     libvcruntime:undname.obj
 0002:00005250       ??_C@_0BD@JDLKDPAB@?$GAvbase?5destructor?8@ 0000000180037250     libvcruntime:undname.obj
 0002:00005268       ??_C@_0BN@DEGPLNFK@?$GAvector?5deleting?5destructor?8@ 0000000180037268     libvcruntime:undname.obj
 0002:00005288       ??_C@_0BO@OBMKPJIG@?$GAdefault?5constructor?5closure?8@ 0000000180037288     libvcruntime:undname.obj
 0002:000052a8       ??_C@_0BN@IMDCHIKM@?$GAscalar?5deleting?5destructor?8@ 00000001800372a8     libvcruntime:undname.obj
 0002:000052c8       ??_C@_0BO@PFGOCPJJ@?$GAvector?5constructor?5iterator?8@ 00000001800372c8     libvcruntime:undname.obj
 0002:000052e8       ??_C@_0BN@LFPFMEDL@?$GAvector?5destructor?5iterator?8@ 00000001800372e8     libvcruntime:undname.obj
 0002:00005308       ??_C@_0CE@IKBNEHA@?$GAvector?5vbase?5constructor?5itera@ 0000000180037308     libvcruntime:undname.obj
 0002:00005330       ??_C@_0BL@NILFHHPC@?$GAvirtual?5displacement?5map?8@ 0000000180037330     libvcruntime:undname.obj
 0002:00005350       ??_C@_0CB@JONCMFFK@?$GAeh?5vector?5constructor?5iterator@ 0000000180037350     libvcruntime:undname.obj
 0002:00005378       ??_C@_0CA@GCEOPDGL@?$GAeh?5vector?5destructor?5iterator?8@ 0000000180037378     libvcruntime:undname.obj
 0002:00005398       ??_C@_0CH@OOJPLCPH@?$GAeh?5vector?5vbase?5constructor?5it@ 0000000180037398     libvcruntime:undname.obj
 0002:000053c0       ??_C@_0BL@LLKPOHJI@?$GAcopy?5constructor?5closure?8@ 00000001800373c0     libvcruntime:undname.obj
 0002:000053e0       ??_C@_0BA@KBCDOMBN@?$GAudt?5returning?8@ 00000001800373e0     libvcruntime:undname.obj
 0002:000053f0       ??_C@_03KLGMFNMG@?$GAEH@   00000001800373f0     libvcruntime:undname.obj
 0002:000053f4       ??_C@_05KHLCHHI@?$GARTTI@  00000001800373f4     libvcruntime:undname.obj
 0002:00005400       ??_C@_0BA@KKLDJDLB@?$GAlocal?5vftable?8@ 0000000180037400     libvcruntime:undname.obj
 0002:00005410       ??_C@_0CE@IIHCMGGL@?$GAlocal?5vftable?5constructor?5clos@ 0000000180037410     libvcruntime:undname.obj
 0002:00005434       ??_C@_06FHBGPFGH@?5new?$FL?$FN@ 0000000180037434     libvcruntime:undname.obj
 0002:00005440       ??_C@_09LBNFPBCA@?5delete?$FL?$FN@ 0000000180037440     libvcruntime:undname.obj
 0002:00005450       ??_C@_0P@HJKNJFNN@?$GAomni?5callsig?8@ 0000000180037450     libvcruntime:undname.obj
 0002:00005460       ??_C@_0BL@CNOONJFP@?$GAplacement?5delete?5closure?8@ 0000000180037460     libvcruntime:undname.obj
 0002:00005480       ??_C@_0BN@CKNJLHMB@?$GAplacement?5delete?$FL?$FN?5closure?8@ 0000000180037480     libvcruntime:undname.obj
 0002:000054a0       ??_C@_0CG@CFDHKGGD@?$GAmanaged?5vector?5constructor?5ite@ 00000001800374a0     libvcruntime:undname.obj
 0002:000054c8       ??_C@_0CF@IMGKMJNO@?$GAmanaged?5vector?5destructor?5iter@ 00000001800374c8     libvcruntime:undname.obj
 0002:000054f0       ??_C@_0CG@HLDDJMAG@?$GAeh?5vector?5copy?5constructor?5ite@ 00000001800374f0     libvcruntime:undname.obj
 0002:00005518       ??_C@_0CM@FCBBDIGB@?$GAeh?5vector?5vbase?5copy?5construct@ 0000000180037518     libvcruntime:undname.obj
 0002:00005548       ??_C@_0BL@CLIPGLGB@?$GAdynamic?5initializer?5for?5?8@ 0000000180037548     libvcruntime:undname.obj
 0002:00005568       ??_C@_0CB@PDBIFEP@?$GAdynamic?5atexit?5destructor?5for?5@ 0000000180037568     libvcruntime:undname.obj
 0002:00005590       ??_C@_0CD@CGAJBKEJ@?$GAvector?5copy?5constructor?5iterat@ 0000000180037590     libvcruntime:undname.obj
 0002:000055b8       ??_C@_0CJ@GJELGAMM@?$GAvector?5vbase?5copy?5constructor?5@ 00000001800375b8     libvcruntime:undname.obj
 0002:000055e8       ??_C@_0CL@FGIJHLCE@?$GAmanaged?5vector?5copy?5constructo@ 00000001800375e8     libvcruntime:undname.obj
 0002:00005618       ??_C@_0BM@PMGGMLDN@?$GAlocal?5static?5thread?5guard?8@ 0000000180037618     libvcruntime:undname.obj
 0002:00005638       ??_C@_0N@BDNMDMOL@operator?5?$CC?$CC?5@ 0000000180037638     libvcruntime:undname.obj
 0002:00005648       ??_C@_0BC@GGEBGALA@operator?5co_await@ 0000000180037648     libvcruntime:undname.obj
 0002:00005660       ??_C@_0M@GAAIMMOH@operator?$DM?$DN?$DO@ 0000000180037660     libvcruntime:undname.obj
 0002:00005670       ??_C@_0BC@DAFEJGAK@?5Type?5Descriptor?8@ 0000000180037670     libvcruntime:undname.obj
 0002:00005688       ??_C@_0BM@LDKODKLH@?5Base?5Class?5Descriptor?5at?5?$CI@ 0000000180037688     libvcruntime:undname.obj
 0002:000056a8       ??_C@_0BD@LGICGFMM@?5Base?5Class?5Array?8@ 00000001800376a8     libvcruntime:undname.obj
 0002:000056c0       ??_C@_0BN@MECKDCOJ@?5Class?5Hierarchy?5Descriptor?8@ 00000001800376c0     libvcruntime:undname.obj
 0002:000056e0       ??_C@_0BK@CFCOFLF@?5Complete?5Object?5Locator?8@ 00000001800376e0     libvcruntime:undname.obj
 0002:00005700       ??_C@_0BG@JNJLAMPM@?$GAanonymous?5namespace?8@ 0000000180037700     libvcruntime:undname.obj
 0002:00005730       ??_C@_1DM@KHCHBNEB@?$AAa?$AAp?$AAi?$AA?9?$AAm?$AAs?$AA?9?$AAw?$AAi?$AAn?$AA?9?$AAc?$AAo?$AAr?$AAe@ 0000000180037730     libvcruntime:winapi_downlevel.obj
 0002:00005770       ??_C@_1DK@LPPGFMPP@?$AAa?$AAp?$AAi?$AA?9?$AAm?$AAs?$AA?9?$AAw?$AAi?$AAn?$AA?9?$AAc?$AAo?$AAr?$AAe@ 0000000180037770     libvcruntime:winapi_downlevel.obj
 0002:000057b0       ??_C@_1BC@GDMECMAK@?$AAk?$AAe?$AAr?$AAn?$AAe?$AAl?$AA3?$AA2@ 00000001800377b0     libvcruntime:winapi_downlevel.obj
 0002:000057c8       ??_C@_1BA@PFFKHIOG@?$AAa?$AAp?$AAi?$AA?9?$AAm?$AAs?$AA?9@ 00000001800377c8     libvcruntime:winapi_downlevel.obj
 0002:000057e0       ??_C@_08KNHFBNJ@FlsAlloc@  00000001800377e0     libvcruntime:winapi_downlevel.obj
 0002:000057f8       ??_C@_07PEJMOBNF@FlsFree@  00000001800377f8     libvcruntime:winapi_downlevel.obj
 0002:00005808       ??_C@_0M@GDNOONDI@FlsGetValue@ 0000000180037808     libvcruntime:winapi_downlevel.obj
 0002:00005820       ??_C@_0M@JCPCPOEF@FlsSetValue@ 0000000180037820     libvcruntime:winapi_downlevel.obj
 0002:00005838       ??_C@_0BM@HCFOFFN@InitializeCriticalSectionEx@ 0000000180037838     libvcruntime:winapi_downlevel.obj
 0002:00005860       standard_lookup_table      0000000180037860     libucrt:output.obj
 0002:000058c0       ??_C@_1O@CEDCILHN@?$AA?$CI?$AAn?$AAu?$AAl?$AAl?$AA?$CJ@ 00000001800378c0     libucrt:output.obj
 0002:000058d0       ??_C@_06OJHGLDPL@?$CInull?$CJ@ 00000001800378d0     libucrt:output.obj
 0002:00005a50       __acrt_exception_action_table 0000000180037a50     libucrt:exception_filter.obj
 0002:00005b10       __acrt_signal_action_table_count 0000000180037b10     libucrt:exception_filter.obj
 0002:00005b18       __acrt_signal_action_first_fpe_index 0000000180037b18     libucrt:exception_filter.obj
 0002:00005b20       __acrt_signal_action_fpe_count 0000000180037b20     libucrt:exception_filter.obj
 0002:00005b28       ??_C@_1BI@BGOHAHKC@?$AAm?$AAs?$AAc?$AAo?$AAr?$AAe?$AAe?$AA?4?$AAd?$AAl?$AAl@ 0000000180037b28     libucrt:exit.obj
 0002:00005b40       ??_C@_0P@MIGLKIOC@CorExitProcess@ 0000000180037b40     libucrt:exit.obj
 0002:00005cd0       ??_C@_03OEIAHPBN@INF@      0000000180037cd0     libucrt:cvt.obj
 0002:00005cd4       ??_C@_03OJHLLCGB@inf@      0000000180037cd4     libucrt:cvt.obj
 0002:00005cd8       ??_C@_03LKNCIKJB@NAN@      0000000180037cd8     libucrt:cvt.obj
 0002:00005cdc       ??_C@_03LHCJEHON@nan@      0000000180037cdc     libucrt:cvt.obj
 0002:00005ce0       ??_C@_09OFJJIMPC@NAN?$CISNAN?$CJ@ 0000000180037ce0     libucrt:cvt.obj
 0002:00005cf0       ??_C@_09IPFBKMDL@nan?$CIsnan?$CJ@ 0000000180037cf0     libucrt:cvt.obj
 0002:00005d00       ??_C@_08IKHNHAJ@NAN?$CIIND?$CJ@ 0000000180037d00     libucrt:cvt.obj
 0002:00005d10       ??_C@_08OFCDMILK@nan?$CIind?$CJ@ 0000000180037d10     libucrt:cvt.obj
 0002:00005d1c       ??_C@_05KLBDPFGC@e?$CL000@ 0000000180037d1c     libucrt:cvt.obj
 0002:00005d30       __lc_time_c                0000000180037d30     libucrt:nlsdata.obj
 0002:00005ff0       ??_C@_03KOEHGMDN@Sun@      0000000180037ff0     libucrt:nlsdata.obj
 0002:00005ff4       ??_C@_03PDAGKDH@Mon@       0000000180037ff4     libucrt:nlsdata.obj
 0002:00005ff8       ??_C@_03NAGEINEP@Tue@      0000000180037ff8     libucrt:nlsdata.obj
 0002:00005ffc       ??_C@_03MHOMLAJA@Wed@      0000000180037ffc     libucrt:nlsdata.obj
 0002:00006000       ??_C@_03IOFIKPDN@Thu@      0000000180038000     libucrt:nlsdata.obj
 0002:00006004       ??_C@_03IDIOELNC@Fri@      0000000180038004     libucrt:nlsdata.obj
 0002:00006008       ??_C@_03FEFJNEK@Sat@       0000000180038008     libucrt:nlsdata.obj
 0002:0000600c       ??_C@_06OOPIFAJ@Sunday@    000000018003800c     libucrt:nlsdata.obj
 0002:00006014       ??_C@_06JLEDEDGH@Monday@   0000000180038014     libucrt:nlsdata.obj
 0002:00006020       ??_C@_07BAAGCFCM@Tuesday@  0000000180038020     libucrt:nlsdata.obj
 0002:00006028       ??_C@_09DLIGFAKA@Wednesday@ 0000000180038028     libucrt:nlsdata.obj
 0002:00006038       ??_C@_08HACCIKIA@Thursday@ 0000000180038038     libucrt:nlsdata.obj
 0002:00006044       ??_C@_06JECMNKMI@Friday@   0000000180038044     libucrt:nlsdata.obj
 0002:00006050       ??_C@_08INBOOONO@Saturday@ 0000000180038050     libucrt:nlsdata.obj
 0002:0000605c       ??_C@_03JIHJHPIE@Jan@      000000018003805c     libucrt:nlsdata.obj
 0002:00006060       ??_C@_03HJBDCHOM@Feb@      0000000180038060     libucrt:nlsdata.obj
 0002:00006064       ??_C@_03ODNJBKGA@Mar@      0000000180038064     libucrt:nlsdata.obj
 0002:00006068       ??_C@_03LEOLGMJP@Apr@      0000000180038068     libucrt:nlsdata.obj
 0002:0000606c       ??_C@_03CNMDKL@May@        000000018003806c     libucrt:nlsdata.obj
 0002:00006070       ??_C@_03IDFGHECI@Jun@      0000000180038070     libucrt:nlsdata.obj
 0002:00006074       ??_C@_03LBGABGKK@Jul@      0000000180038074     libucrt:nlsdata.obj
 0002:00006078       ??_C@_03IFJFEIGA@Aug@      0000000180038078     libucrt:nlsdata.obj
 0002:0000607c       ??_C@_03GGCAPAJC@Sep@      000000018003807c     libucrt:nlsdata.obj
 0002:00006080       ??_C@_03BMAOKBAD@Oct@      0000000180038080     libucrt:nlsdata.obj
 0002:00006084       ??_C@_03JPJOFNIA@Nov@      0000000180038084     libucrt:nlsdata.obj
 0002:00006088       ??_C@_03MKABNOCG@Dec@      0000000180038088     libucrt:nlsdata.obj
 0002:00006090       ??_C@_07CGJPFGJA@January@  0000000180038090     libucrt:nlsdata.obj
 0002:00006098       ??_C@_08GNJGEPFN@February@ 0000000180038098     libucrt:nlsdata.obj
 0002:000060a4       ??_C@_05HPCKOFNC@March@    00000001800380a4     libucrt:nlsdata.obj
 0002:000060ac       ??_C@_05DMJDNLEJ@April@    00000001800380ac     libucrt:nlsdata.obj
 0002:000060b4       ??_C@_04CNLMGBGM@June@     00000001800380b4     libucrt:nlsdata.obj
 0002:000060bc       ??_C@_04MIEPOIFP@July@     00000001800380bc     libucrt:nlsdata.obj
 0002:000060c4       ??_C@_06LBBHFDDG@August@   00000001800380c4     libucrt:nlsdata.obj
 0002:000060d0       ??_C@_09BHHEALKD@September@ 00000001800380d0     libucrt:nlsdata.obj
 0002:000060e0       ??_C@_07JJNFCEND@October@  00000001800380e0     libucrt:nlsdata.obj
 0002:000060e8       ??_C@_08HCHEGEOA@November@ 00000001800380e8     libucrt:nlsdata.obj
 0002:000060f8       ??_C@_08EDHMEBNP@December@ 00000001800380f8     libucrt:nlsdata.obj
 0002:00006104       ??_C@_02DEDBPAFC@AM@       0000000180038104     libucrt:nlsdata.obj
 0002:00006108       ??_C@_02CJNFDJBF@PM@       0000000180038108     libucrt:nlsdata.obj
 0002:00006110       ??_C@_08BPBNCDIB@MM?1dd?1yy@ 0000000180038110     libucrt:nlsdata.obj
 0002:00006120       ??_C@_0BE@CKGJFCPC@dddd?0?5MMMM?5dd?0?5yyyy@ 0000000180038120     libucrt:nlsdata.obj
 0002:00006138       ??_C@_08JCCMCCIL@HH?3mm?3ss@ 0000000180038138     libucrt:nlsdata.obj
 0002:00006148       ??_C@_17MBGCMIPB@?$AAS?$AAu?$AAn@ 0000000180038148     libucrt:nlsdata.obj
 0002:00006150       ??_C@_17KBOMKBF@?$AAM?$AAo?$AAn@ 0000000180038150     libucrt:nlsdata.obj
 0002:00006158       ??_C@_17BMKGEGOJ@?$AAT?$AAu?$AAe@ 0000000180038158     libucrt:nlsdata.obj
 0002:00006160       ??_C@_17CJEDCEPE@?$AAW?$AAe?$AAd@ 0000000180038160     libucrt:nlsdata.obj
 0002:00006168       ??_C@_17PDPHAADD@?$AAT?$AAh?$AAu@ 0000000180038168     libucrt:nlsdata.obj
 0002:00006170       ??_C@_17HFOLPPLP@?$AAF?$AAr?$AAi@ 0000000180038170     libucrt:nlsdata.obj
 0002:00006178       ??_C@_17GGIBDPIH@?$AAS?$AAa?$AAt@ 0000000180038178     libucrt:nlsdata.obj
 0002:00006180       ??_C@_1O@IHNHDHPB@?$AAS?$AAu?$AAn?$AAd?$AAa?$AAy@ 0000000180038180     libucrt:nlsdata.obj
 0002:00006190       ??_C@_1O@MMNBFLIA@?$AAM?$AAo?$AAn?$AAd?$AAa?$AAy@ 0000000180038190     libucrt:nlsdata.obj
 0002:000061a0       ??_C@_1BA@ENFBFFEK@?$AAT?$AAu?$AAe?$AAs?$AAd?$AAa?$AAy@ 00000001800381a0     libucrt:nlsdata.obj
 0002:000061b0       ??_C@_1BE@EBOGMDOH@?$AAW?$AAe?$AAd?$AAn?$AAe?$AAs?$AAd?$AAa?$AAy@ 00000001800381b0     libucrt:nlsdata.obj
 0002:000061c8       ??_C@_1BC@HHMNLIHE@?$AAT?$AAh?$AAu?$AAr?$AAs?$AAd?$AAa?$AAy@ 00000001800381c8     libucrt:nlsdata.obj
 0002:000061e0       ??_C@_1O@PDICJHAG@?$AAF?$AAr?$AAi?$AAd?$AAa?$AAy@ 00000001800381e0     libucrt:nlsdata.obj
 0002:000061f0       ??_C@_1BC@ENMNNPAJ@?$AAS?$AAa?$AAt?$AAu?$AAr?$AAd?$AAa?$AAy@ 00000001800381f0     libucrt:nlsdata.obj
 0002:00006208       ??_C@_17DKNBKCHM@?$AAJ?$AAa?$AAn@ 0000000180038208     libucrt:nlsdata.obj
 0002:00006210       ??_C@_17LMDJEKJN@?$AAF?$AAe?$AAb@ 0000000180038210     libucrt:nlsdata.obj
 0002:00006218       ??_C@_17CKNLEDEC@?$AAM?$AAa?$AAr@ 0000000180038218     libucrt:nlsdata.obj
 0002:00006220       ??_C@_17LFPOIHDD@?$AAA?$AAp?$AAr@ 0000000180038220     libucrt:nlsdata.obj
 0002:00006228       ??_C@_17PNNKMEED@?$AAM?$AAa?$AAy@ 0000000180038228     libucrt:nlsdata.obj
 0002:00006230       ??_C@_17KCJGOCPB@?$AAJ?$AAu?$AAn@ 0000000180038230     libucrt:nlsdata.obj
 0002:00006238       ??_C@_17IJPCKHK@?$AAJ?$AAu?$AAl@ 0000000180038238     libucrt:nlsdata.obj
 0002:00006240       ??_C@_17ICPELBCN@?$AAA?$AAu?$AAg@ 0000000180038240     libucrt:nlsdata.obj
 0002:00006248       ??_C@_17HCHCOKMG@?$AAS?$AAe?$AAp@ 0000000180038248     libucrt:nlsdata.obj
 0002:00006250       ??_C@_17FNLKOI@?$AAO?$AAc?$AAt@ 0000000180038250     libucrt:nlsdata.obj
 0002:00006258       ??_C@_17BBDMLCIG@?$AAN?$AAo?$AAv@ 0000000180038258     libucrt:nlsdata.obj
 0002:00006260       ??_C@_17EGKACKIF@?$AAD?$AAe?$AAc@ 0000000180038260     libucrt:nlsdata.obj
 0002:00006268       ??_C@_1BA@EFMEIEBA@?$AAJ?$AAa?$AAn?$AAu?$AAa?$AAr?$AAy@ 0000000180038268     libucrt:nlsdata.obj
 0002:00006278       ??_C@_1BC@JGDDFFAM@?$AAF?$AAe?$AAb?$AAr?$AAu?$AAa?$AAr?$AAy@ 0000000180038278     libucrt:nlsdata.obj
 0002:00006290       ??_C@_1M@IKEENEDF@?$AAM?$AAa?$AAr?$AAc?$AAh@ 0000000180038290     libucrt:nlsdata.obj
 0002:000062a0       ??_C@_1M@GJNLMHFD@?$AAA?$AAp?$AAr?$AAi?$AAl@ 00000001800382a0     libucrt:nlsdata.obj
 0002:000062b0       ??_C@_19EPFLPGAP@?$AAJ?$AAu?$AAn?$AAe@ 00000001800382b0     libucrt:nlsdata.obj
 0002:000062c0       ??_C@_19BIFMLPCD@?$AAJ?$AAu?$AAl?$AAy@ 00000001800382c0     libucrt:nlsdata.obj
 0002:000062d0       ??_C@_1O@PAHLKOAC@?$AAA?$AAu?$AAg?$AAu?$AAs?$AAt@ 00000001800382d0     libucrt:nlsdata.obj
 0002:000062e0       ??_C@_1BE@DKAAMBJL@?$AAS?$AAe?$AAp?$AAt?$AAe?$AAm?$AAb?$AAe?$AAr@ 00000001800382e0     libucrt:nlsdata.obj
 0002:000062f8       ??_C@_1BA@EPANDLNG@?$AAO?$AAc?$AAt?$AAo?$AAb?$AAe?$AAr@ 00000001800382f8     libucrt:nlsdata.obj
 0002:00006308       ??_C@_1BC@BGLIFPF@?$AAN?$AAo?$AAv?$AAe?$AAm?$AAb?$AAe?$AAr@ 0000000180038308     libucrt:nlsdata.obj
 0002:00006320       ??_C@_1BC@FEMKIFH@?$AAD?$AAe?$AAc?$AAe?$AAm?$AAb?$AAe?$AAr@ 0000000180038320     libucrt:nlsdata.obj
 0002:00006334       ??_C@_15ODEHAHHF@?$AAA?$AAM@ 0000000180038334     libucrt:nlsdata.obj
 0002:0000633c       ??_C@_15CLMNNGEL@?$AAP?$AAM@ 000000018003833c     libucrt:nlsdata.obj
 0002:00006348       ??_C@_1BC@IEBCMHCM@?$AAM?$AAM?$AA?1?$AAd?$AAd?$AA?1?$AAy?$AAy@ 0000000180038348     libucrt:nlsdata.obj
 0002:00006360       ??_C@_1CI@KNAKOEBC@?$AAd?$AAd?$AAd?$AAd?$AA?0?$AA?5?$AAM?$AAM?$AAM?$AAM?$AA?5?$AAd?$AAd?$AA?0?$AA?5@ 0000000180038360     libucrt:nlsdata.obj
 0002:00006388       ??_C@_1BC@GDGBMEMK@?$AAH?$AAH?$AA?3?$AAm?$AAm?$AA?3?$AAs?$AAs@ 0000000180038388     libucrt:nlsdata.obj
 0002:000063a0       ??_C@_1M@BMHNFIME@?$AAe?$AAn?$AA?9?$AAU?$AAS@ 00000001800383a0     libucrt:nlsdata.obj
 0002:000063b0       __newctype                 00000001800383b0     libucrt:ctype.obj
 0002:000066b0       __newclmap                 00000001800386b0     libucrt:ctype.obj
 0002:00006830       __newcumap                 0000000180038830     libucrt:ctype.obj
 0002:000069b0       _wctype                    00000001800389b0     libucrt:ctype.obj
 0002:00006bd8       ??_C@_1M@HPNHIDJI@?$AAj?$AAa?$AA?9?$AAJ?$AAP@ 0000000180038bd8     libucrt:mbctype.obj
 0002:00006be8       ??_C@_1M@BIBDDEMK@?$AAz?$AAh?$AA?9?$AAC?$AAN@ 0000000180038be8     libucrt:mbctype.obj
 0002:00006bf8       ??_C@_1M@JLOOOEGK@?$AAk?$AAo?$AA?9?$AAK?$AAR@ 0000000180038bf8     libucrt:mbctype.obj
 0002:00006c08       ??_C@_1M@CLNBBOPM@?$AAz?$AAh?$AA?9?$AAT?$AAW@ 0000000180038c08     libucrt:mbctype.obj
 0002:00006cc0       ??_C@_1EA@JGEFHKEI@?$AAa?$AAp?$AAi?$AA?9?$AAm?$AAs?$AA?9?$AAw?$AAi?$AAn?$AA?9?$AAc?$AAo?$AAr?$AAe@ 0000000180038cc0     libucrt:winapi_thunks.obj
 0002:00006d00       ??_C@_1DI@IJCEHOCB@?$AAa?$AAp?$AAi?$AA?9?$AAm?$AAs?$AA?9?$AAw?$AAi?$AAn?$AA?9?$AAc?$AAo?$AAr?$AAe@ 0000000180038d00     libucrt:winapi_thunks.obj
 0002:00006d40       ??_C@_1EI@MPIAOHOC@?$AAa?$AAp?$AAi?$AA?9?$AAm?$AAs?$AA?9?$AAw?$AAi?$AAn?$AA?9?$AAc?$AAo?$AAr?$AAe@ 0000000180038d40     libucrt:winapi_thunks.obj
 0002:00006d90       ??_C@_1FK@FPHCKFIE@?$AAa?$AAp?$AAi?$AA?9?$AAm?$AAs?$AA?9?$AAw?$AAi?$AAn?$AA?9?$AAc?$AAo?$AAr?$AAe@ 0000000180038d90     libucrt:winapi_thunks.obj
 0002:00006df0       ??_C@_1EM@DILCGIIO@?$AAa?$AAp?$AAi?$AA?9?$AAm?$AAs?$AA?9?$AAw?$AAi?$AAn?$AA?9?$AAc?$AAo?$AAr?$AAe@ 0000000180038df0     libucrt:winapi_thunks.obj
 0002:00006e40       ??_C@_1DM@LNCGDDPN@?$AAa?$AAp?$AAi?$AA?9?$AAm?$AAs?$AA?9?$AAw?$AAi?$AAn?$AA?9?$AAc?$AAo?$AAr?$AAe@ 0000000180038e40     libucrt:winapi_thunks.obj
 0002:00006e80       ??_C@_1DO@FPAPJEMD@?$AAa?$AAp?$AAi?$AA?9?$AAm?$AAs?$AA?9?$AAw?$AAi?$AAn?$AA?9?$AAc?$AAo?$AAr?$AAe@ 0000000180038e80     libucrt:winapi_thunks.obj
 0002:00006ec0       ??_C@_1DK@NDHNAHIO@?$AAa?$AAp?$AAi?$AA?9?$AAm?$AAs?$AA?9?$AAw?$AAi?$AAn?$AA?9?$AAc?$AAo?$AAr?$AAe@ 0000000180038ec0     libucrt:winapi_thunks.obj
 0002:00006f00       ??_C@_1DM@KGHDGBCM@?$AAa?$AAp?$AAi?$AA?9?$AAm?$AAs?$AA?9?$AAw?$AAi?$AAn?$AA?9?$AAc?$AAo?$AAr?$AAe@ 0000000180038f00     libucrt:winapi_thunks.obj
 0002:00006f40       ??_C@_1EO@IJIOEFOH@?$AAa?$AAp?$AAi?$AA?9?$AAm?$AAs?$AA?9?$AAw?$AAi?$AAn?$AA?9?$AAr?$AAt?$AAc?$AAo@ 0000000180038f40     libucrt:winapi_thunks.obj
 0002:00006f90       ??_C@_1FG@HHGEKANL@?$AAa?$AAp?$AAi?$AA?9?$AAm?$AAs?$AA?9?$AAw?$AAi?$AAn?$AA?9?$AAs?$AAe?$AAc?$AAu@ 0000000180038f90     libucrt:winapi_thunks.obj
 0002:00006ff0       ??_C@_1EG@DBIOJECG@?$AAe?$AAx?$AAt?$AA?9?$AAm?$AAs?$AA?9?$AAw?$AAi?$AAn?$AA?9?$AAn?$AAt?$AAu?$AAs@ 0000000180038ff0     libucrt:winapi_thunks.obj
 0002:00007040       ??_C@_1EO@FIHMJCLF@?$AAe?$AAx?$AAt?$AA?9?$AAm?$AAs?$AA?9?$AAw?$AAi?$AAn?$AA?9?$AAn?$AAt?$AAu?$AAs@ 0000000180039040     libucrt:winapi_thunks.obj
 0002:00007090       ??_C@_1BC@DNHGCMLG@?$AAa?$AAd?$AAv?$AAa?$AAp?$AAi?$AA3?$AA2@ 0000000180039090     libucrt:winapi_thunks.obj
 0002:000070a8       ??_C@_1M@OAIMIKLP@?$AAn?$AAt?$AAd?$AAl?$AAl@ 00000001800390a8     libucrt:winapi_thunks.obj
 0002:000070c0       ??_C@_1EG@DPGNFKGC@?$AAa?$AAp?$AAi?$AA?9?$AAm?$AAs?$AA?9?$AAw?$AAi?$AAn?$AA?9?$AAa?$AAp?$AAp?$AAm@ 00000001800390c0     libucrt:winapi_thunks.obj
 0002:00007108       ??_C@_1O@BCCLBEOE@?$AAu?$AAs?$AAe?$AAr?$AA3?$AA2@ 0000000180039108     libucrt:winapi_thunks.obj
 0002:00007118       ??_C@_1BA@IAIFMGEF@?$AAe?$AAx?$AAt?$AA?9?$AAm?$AAs?$AA?9@ 0000000180039118     libucrt:winapi_thunks.obj
 0002:00007130       ??_C@_0BA@FHFNEAED@AreFileApisANSI@ 0000000180039130     libucrt:winapi_thunks.obj
 0002:00007170       ??_C@_0O@KKBNKAPF@LCMapStringEx@ 0000000180039170     libucrt:winapi_thunks.obj
 0002:00007188       ??_C@_0BB@HBDEELFH@LocaleNameToLCID@ 0000000180039188     libucrt:winapi_thunks.obj
 0002:000071a0       ??_C@_0CF@OJOFEIGO@AppPolicyGetProcessTerminationM@ 00000001800391a0     libucrt:winapi_thunks.obj
 0002:000071d0       ?large_power_data@?1??multiply_by_power_of_ten@__crt_strtox@@YA_NAEAUbig_integer@2@I@Z@4QBIB 00000001800391d0     libucrt:cfout.obj
 0002:00007b78       ?small_powers_of_ten@?1??multiply_by_power_of_ten@__crt_strtox@@YA_NAEAUbig_integer@2@I@Z@4QBIB 0000000180039b78     libucrt:cfout.obj
 0002:00007b9c       ??_C@_01GBGANLPD@0@        0000000180039b9c     libucrt:cfout.obj
 0002:00007ba0       ??_C@_05DNEBIAHO@1?$CDINF@ 0000000180039ba0     libucrt:cfout.obj
 0002:00007ba8       ??_C@_06IMKFLFPG@1?$CDQNAN@ 0000000180039ba8     libucrt:cfout.obj
 0002:00007bb0       ??_C@_06PGGFOGJG@1?$CDSNAN@ 0000000180039bb0     libucrt:cfout.obj
 0002:00007bb8       ??_C@_05PHHOCPM@1?$CDIND@  0000000180039bb8     libucrt:cfout.obj
 0002:00007bc0       ??_C@_15PJPFLCCM@?$AAu?$AAk@ 0000000180039bc0     libucrt:get_qualified_locale.obj
 0002:00008a10       ??_C@_15EMKDOKLE@?$AAa?$AAr@ 000000018003aa10     libucrt:lcidtoname_downlevel.obj
 0002:00008a18       ??_C@_15KNPADPLH@?$AAb?$AAg@ 000000018003aa18     libucrt:lcidtoname_downlevel.obj
 0002:00008a20       ??_C@_15EDMHLDMO@?$AAc?$AAa@ 000000018003aa20     libucrt:lcidtoname_downlevel.obj
 0002:00008a28       ??_C@_1O@BPEAJADD@?$AAz?$AAh?$AA?9?$AAC?$AAH?$AAS@ 000000018003aa28     libucrt:lcidtoname_downlevel.obj
 0002:00008a38       ??_C@_15LJNHCMNK@?$AAc?$AAs@ 000000018003aa38     libucrt:lcidtoname_downlevel.obj
 0002:00008a40       ??_C@_15FOMCIDHG@?$AAd?$AAa@ 000000018003aa40     libucrt:lcidtoname_downlevel.obj
 0002:00008a48       ??_C@_15NBKABECB@?$AAd?$AAe@ 000000018003aa48     libucrt:lcidtoname_downlevel.obj
 0002:00008a50       ??_C@_15GHPEIIAO@?$AAe?$AAl@ 000000018003aa50     libucrt:lcidtoname_downlevel.obj
 0002:00008a58       ??_C@_15MNPNEAIF@?$AAe?$AAn@ 000000018003aa58     libucrt:lcidtoname_downlevel.obj
 0002:00008a60       ??_C@_15GPIOMPMH@?$AAe?$AAs@ 000000018003aa60     libucrt:lcidtoname_downlevel.obj
 0002:00008a68       ??_C@_15NGLOAKJC@?$AAf?$AAi@ 000000018003aa68     libucrt:lcidtoname_downlevel.obj
 0002:00008a70       ??_C@_15FBKGNKAM@?$AAf?$AAr@ 000000018003aa70     libucrt:lcidtoname_downlevel.obj
 0002:00008a78       ??_C@_15KGGCNEFK@?$AAh?$AAe@ 000000018003aa78     libucrt:lcidtoname_downlevel.obj
 0002:00008a80       ??_C@_15PGHLIDMF@?$AAh?$AAu@ 000000018003aa80     libucrt:lcidtoname_downlevel.obj
 0002:00008a88       ??_C@_15BIEMAPLM@?$AAi?$AAs@ 000000018003aa88     libucrt:lcidtoname_downlevel.obj
 0002:00008a90       ??_C@_15IFJLDHAF@?$AAi?$AAt@ 000000018003aa90     libucrt:lcidtoname_downlevel.obj
 0002:00008a98       ??_C@_15GEMIOCAG@?$AAj?$AAa@ 000000018003aa98     libucrt:lcidtoname_downlevel.obj
 0002:00008aa0       ??_C@_15EPELEGJA@?$AAk?$AAo@ 000000018003aaa0     libucrt:lcidtoname_downlevel.obj
 0002:00008aa8       ??_C@_15NDDHIMN@?$AAn?$AAl@ 000000018003aaa8     libucrt:lcidtoname_downlevel.obj
 0002:00008ab0       ??_C@_15BPIGNHCD@?$AAn?$AAo@ 000000018003aab0     libucrt:lcidtoname_downlevel.obj
 0002:00008ab8       ??_C@_15DEOPBLCG@?$AAp?$AAl@ 000000018003aab8     libucrt:lcidtoname_downlevel.obj
 0002:00008ac0       ??_C@_15KBECGEFG@?$AAp?$AAt@ 000000018003aac0     libucrt:lcidtoname_downlevel.obj
 0002:00008ac8       ??_C@_15GLJCBFMD@?$AAr?$AAo@ 000000018003aac8     libucrt:lcidtoname_downlevel.obj
 0002:00008ad0       ??_C@_15FEDGKCDI@?$AAr?$AAu@ 000000018003aad0     libucrt:lcidtoname_downlevel.obj
 0002:00008ad8       ??_C@_15GLKMLLHM@?$AAh?$AAr@ 000000018003aad8     libucrt:lcidtoname_downlevel.obj
 0002:00008ae0       ??_C@_15CPKMFBDB@?$AAs?$AAk@ 000000018003aae0     libucrt:lcidtoname_downlevel.obj
 0002:00008ae8       ??_C@_15BAAIOGMK@?$AAs?$AAq@ 000000018003aae8     libucrt:lcidtoname_downlevel.obj
 0002:00008af0       ??_C@_15INNPNOHD@?$AAs?$AAv@ 000000018003aaf0     libucrt:lcidtoname_downlevel.obj
 0002:00008af8       ??_C@_15CABMMOGH@?$AAt?$AAh@ 000000018003aaf8     libucrt:lcidtoname_downlevel.obj
 0002:00008b00       ??_C@_15BPLIHJJM@?$AAt?$AAr@ 000000018003ab00     libucrt:lcidtoname_downlevel.obj
 0002:00008b08       ??_C@_15NEOEKKDJ@?$AAu?$AAr@ 000000018003ab08     libucrt:lcidtoname_downlevel.obj
 0002:00008b10       ??_C@_15NFICGAJK@?$AAi?$AAd@ 000000018003ab10     libucrt:lcidtoname_downlevel.obj
 0002:00008b18       ??_C@_15HPJPHDM@?$AAb?$AAe@ 000000018003ab18     libucrt:lcidtoname_downlevel.obj
 0002:00008b20       ??_C@_15LCHLGJII@?$AAs?$AAl@ 000000018003ab20     libucrt:lcidtoname_downlevel.obj
 0002:00008b28       ??_C@_15PCFJPHHO@?$AAe?$AAt@ 000000018003ab28     libucrt:lcidtoname_downlevel.obj
 0002:00008b30       ??_C@_15HPFPGODN@?$AAl?$AAv@ 000000018003ab30     libucrt:lcidtoname_downlevel.obj
 0002:00008b38       ??_C@_15NFFGKGLG@?$AAl?$AAt@ 000000018003ab38     libucrt:lcidtoname_downlevel.obj
 0002:00008b40       ??_C@_15BDAKCCHN@?$AAf?$AAa@ 000000018003ab40     libucrt:lcidtoname_downlevel.obj
 0002:00008b48       ??_C@_15NFGIAIAJ@?$AAv?$AAi@ 000000018003ab48     libucrt:lcidtoname_downlevel.obj
 0002:00008b50       ??_C@_15LMKNDMHN@?$AAh?$AAy@ 000000018003ab50     libucrt:lcidtoname_downlevel.obj
 0002:00008b58       ??_C@_15IJBHMCFL@?$AAa?$AAz@ 000000018003ab58     libucrt:lcidtoname_downlevel.obj
 0002:00008b60       ??_C@_15EKOFJABL@?$AAe?$AAu@ 000000018003ab60     libucrt:lcidtoname_downlevel.obj
 0002:00008b68       ??_C@_15BGHADCNK@?$AAm?$AAk@ 000000018003ab68     libucrt:lcidtoname_downlevel.obj
 0002:00008b70       ??_C@_15JDNICKHM@?$AAa?$AAf@ 000000018003ab70     libucrt:lcidtoname_downlevel.obj
 0002:00008b78       ??_C@_15KPJEDBKD@?$AAk?$AAa@ 000000018003ab78     libucrt:lcidtoname_downlevel.obj
 0002:00008b80       ??_C@_15PDNFFFEO@?$AAf?$AAo@ 000000018003ab80     libucrt:lcidtoname_downlevel.obj
 0002:00008b88       ??_C@_15OMLEGLOC@?$AAh?$AAi@ 000000018003ab88     libucrt:lcidtoname_downlevel.obj
 0002:00008b90       ??_C@_15IDNNENKK@?$AAm?$AAs@ 000000018003ab90     libucrt:lcidtoname_downlevel.obj
 0002:00008b98       ??_C@_15MACJNBMH@?$AAk?$AAk@ 000000018003ab98     libucrt:lcidtoname_downlevel.obj
 0002:00008ba0       ??_C@_15DKDJEOND@?$AAk?$AAy@ 000000018003aba0     libucrt:lcidtoname_downlevel.obj
 0002:00008ba8       ??_C@_15DFGDLJBG@?$AAs?$AAw@ 000000018003aba8     libucrt:lcidtoname_downlevel.obj
 0002:00008bb0       ??_C@_15BBFAICNG@?$AAu?$AAz@ 000000018003abb0     libucrt:lcidtoname_downlevel.obj
 0002:00008bb8       ??_C@_15DKNDCGEA@?$AAt?$AAt@ 000000018003abb8     libucrt:lcidtoname_downlevel.obj
 0002:00008bc0       ??_C@_15MGIFMDPL@?$AAp?$AAa@ 000000018003abc0     libucrt:lcidtoname_downlevel.obj
 0002:00008bc8       ??_C@_15HCNDBBA@?$AAg?$AAu@ 000000018003abc8     libucrt:lcidtoname_downlevel.obj
 0002:00008bd0       ??_C@_15FNBEIBON@?$AAt?$AAa@ 000000018003abd0     libucrt:lcidtoname_downlevel.obj
 0002:00008bd8       ??_C@_15NCHGBGLK@?$AAt?$AAe@ 000000018003abd8     libucrt:lcidtoname_downlevel.obj
 0002:00008be0       ??_C@_15PHPHCBPF@?$AAk?$AAn@ 000000018003abe0     libucrt:lcidtoname_downlevel.obj
 0002:00008be8       ??_C@_15DLGBCKMP@?$AAm?$AAr@ 000000018003abe8     libucrt:lcidtoname_downlevel.obj
 0002:00008bf0       ??_C@_15EABBLBFF@?$AAs?$AAa@ 000000018003abf0     libucrt:lcidtoname_downlevel.obj
 0002:00008bf8       ??_C@_15CBKOMCOI@?$AAm?$AAn@ 000000018003abf8     libucrt:lcidtoname_downlevel.obj
 0002:00008c00       ??_C@_15CKDMCJAF@?$AAg?$AAl@ 000000018003ac00     libucrt:lcidtoname_downlevel.obj
 0002:00008c08       ??_C@_17CNJFBPG@?$AAk?$AAo?$AAk@ 000000018003ac08     libucrt:lcidtoname_downlevel.obj
 0002:00008c10       ??_C@_17FFBJICPL@?$AAs?$AAy?$AAr@ 000000018003ac10     libucrt:lcidtoname_downlevel.obj
 0002:00008c18       ??_C@_17KPNDCPAF@?$AAd?$AAi?$AAv@ 000000018003ac18     libucrt:lcidtoname_downlevel.obj
 0002:00008c20       ??_C@_1M@OKAHONE@?$AAa?$AAr?$AA?9?$AAS?$AAA@ 000000018003ac20     libucrt:lcidtoname_downlevel.obj
 0002:00008c30       ??_C@_1M@FFFIGIGK@?$AAb?$AAg?$AA?9?$AAB?$AAG@ 000000018003ac30     libucrt:lcidtoname_downlevel.obj
 0002:00008c40       ??_C@_1M@BJNKEDC@?$AAc?$AAa?$AA?9?$AAE?$AAS@ 000000018003ac40     libucrt:lcidtoname_downlevel.obj
 0002:00008c50       ??_C@_1M@IJJHFJHA@?$AAc?$AAs?$AA?9?$AAC?$AAZ@ 000000018003ac50     libucrt:lcidtoname_downlevel.obj
 0002:00008c60       ??_C@_1M@CLPEOBGI@?$AAd?$AAa?$AA?9?$AAD?$AAK@ 000000018003ac60     libucrt:lcidtoname_downlevel.obj
 0002:00008c70       ??_C@_1M@MCMADGCB@?$AAd?$AAe?$AA?9?$AAD?$AAE@ 000000018003ac70     libucrt:lcidtoname_downlevel.obj
 0002:00008c80       ??_C@_1M@OOCKEMAM@?$AAe?$AAl?$AA?9?$AAG?$AAR@ 000000018003ac80     libucrt:lcidtoname_downlevel.obj
 0002:00008c90       ??_C@_1M@DDNJFGID@?$AAf?$AAi?$AA?9?$AAF?$AAI@ 000000018003ac90     libucrt:lcidtoname_downlevel.obj
 0002:00008ca0       ??_C@_1M@GLIPPMAC@?$AAf?$AAr?$AA?9?$AAF?$AAR@ 000000018003aca0     libucrt:lcidtoname_downlevel.obj
 0002:00008cb0       ??_C@_1M@GFMCHPE@?$AAh?$AAe?$AA?9?$AAI?$AAL@ 000000018003acb0     libucrt:lcidtoname_downlevel.obj
 0002:00008cc0       ??_C@_1M@MHLPGNKM@?$AAh?$AAu?$AA?9?$AAH?$AAU@ 000000018003acc0     libucrt:lcidtoname_downlevel.obj
 0002:00008cd0       ??_C@_1M@LPDDNNPN@?$AAi?$AAs?$AA?9?$AAI?$AAS@ 000000018003acd0     libucrt:lcidtoname_downlevel.obj
 0002:00008ce0       ??_C@_1M@MADIPODN@?$AAi?$AAt?$AA?9?$AAI?$AAT@ 000000018003ace0     libucrt:lcidtoname_downlevel.obj
 0002:00008cf0       ??_C@_1M@IHBJJGG@?$AAn?$AAl?$AA?9?$AAN?$AAL@ 000000018003acf0     libucrt:lcidtoname_downlevel.obj
 0002:00008d00       ??_C@_1M@EANAGDL@?$AAn?$AAb?$AA?9?$AAN?$AAO@ 000000018003ad00     libucrt:lcidtoname_downlevel.obj
 0002:00008d10       ??_C@_1M@NEIEMEGP@?$AAp?$AAl?$AA?9?$AAP?$AAL@ 000000018003ad10     libucrt:lcidtoname_downlevel.obj
 0002:00008d20       ??_C@_1M@BOCFIGEP@?$AAp?$AAt?$AA?9?$AAB?$AAR@ 000000018003ad20     libucrt:lcidtoname_downlevel.obj
 0002:00008d30       ??_C@_1M@IMPFOPBG@?$AAr?$AAo?$AA?9?$AAR?$AAO@ 000000018003ad30     libucrt:lcidtoname_downlevel.obj
 0002:00008d40       ??_C@_1M@IDNNEJMM@?$AAr?$AAu?$AA?9?$AAR?$AAU@ 000000018003ad40     libucrt:lcidtoname_downlevel.obj
 0002:00008d50       ??_C@_1M@LILEEOGM@?$AAh?$AAr?$AA?9?$AAH?$AAR@ 000000018003ad50     libucrt:lcidtoname_downlevel.obj
 0002:00008d60       ??_C@_1M@FKIFEHPB@?$AAs?$AAk?$AA?9?$AAS?$AAK@ 000000018003ad60     libucrt:lcidtoname_downlevel.obj
 0002:00008d70       ??_C@_1M@LJMAMNPJ@?$AAs?$AAq?$AA?9?$AAA?$AAL@ 000000018003ad70     libucrt:lcidtoname_downlevel.obj
 0002:00008d80       ??_C@_1M@GIAKDKJK@?$AAs?$AAv?$AA?9?$AAS?$AAE@ 000000018003ad80     libucrt:lcidtoname_downlevel.obj
 0002:00008d90       ??_C@_1M@MKJKIKCL@?$AAt?$AAh?$AA?9?$AAT?$AAH@ 000000018003ad90     libucrt:lcidtoname_downlevel.obj
 0002:00008da0       ??_C@_1M@MFLCCMPB@?$AAt?$AAr?$AA?9?$AAT?$AAR@ 000000018003ada0     libucrt:lcidtoname_downlevel.obj
 0002:00008db0       ??_C@_1M@OIJHDKJN@?$AAu?$AAr?$AA?9?$AAP?$AAK@ 000000018003adb0     libucrt:lcidtoname_downlevel.obj
 0002:00008dc0       ??_C@_1M@LHIPCIEK@?$AAi?$AAd?$AA?9?$AAI?$AAD@ 000000018003adc0     libucrt:lcidtoname_downlevel.obj
 0002:00008dd0       ??_C@_1M@MFMOBGI@?$AAu?$AAk?$AA?9?$AAU?$AAA@ 000000018003add0     libucrt:lcidtoname_downlevel.obj
 0002:00008de0       ??_C@_1M@OBGLJIPL@?$AAb?$AAe?$AA?9?$AAB?$AAY@ 000000018003ade0     libucrt:lcidtoname_downlevel.obj
 0002:00008df0       ??_C@_1M@BCFAJEAD@?$AAs?$AAl?$AA?9?$AAS?$AAI@ 000000018003adf0     libucrt:lcidtoname_downlevel.obj
 0002:00008e00       ??_C@_1M@FKFFEDDN@?$AAe?$AAt?$AA?9?$AAE?$AAE@ 000000018003ae00     libucrt:lcidtoname_downlevel.obj
 0002:00008e10       ??_C@_1M@KGKKAACI@?$AAl?$AAv?$AA?9?$AAL?$AAV@ 000000018003ae10     libucrt:lcidtoname_downlevel.obj
 0002:00008e20       ??_C@_1M@IFGBIJO@?$AAl?$AAt?$AA?9?$AAL?$AAT@ 000000018003ae20     libucrt:lcidtoname_downlevel.obj
 0002:00008e30       ??_C@_1M@FGEAHEDM@?$AAf?$AAa?$AA?9?$AAI?$AAR@ 000000018003ae30     libucrt:lcidtoname_downlevel.obj
 0002:00008e40       ??_C@_1M@KBMAIBFN@?$AAv?$AAi?$AA?9?$AAV?$AAN@ 000000018003ae40     libucrt:lcidtoname_downlevel.obj
 0002:00008e50       ??_C@_1M@GPCBKDJK@?$AAh?$AAy?$AA?9?$AAA?$AAM@ 000000018003ae50     libucrt:lcidtoname_downlevel.obj
 0002:00008e60       ??_C@_1BG@BECMDDJB@?$AAa?$AAz?$AA?9?$AAA?$AAZ?$AA?9?$AAL?$AAa?$AAt?$AAn@ 000000018003ae60     libucrt:lcidtoname_downlevel.obj
 0002:00008e78       ??_C@_1M@MAOFCAEA@?$AAe?$AAu?$AA?9?$AAE?$AAS@ 000000018003ae78     libucrt:lcidtoname_downlevel.obj
 0002:00008e88       ??_C@_1M@IGHABKPI@?$AAm?$AAk?$AA?9?$AAM?$AAK@ 000000018003ae88     libucrt:lcidtoname_downlevel.obj
 0002:00008e98       ??_C@_1M@IAIGNEJG@?$AAt?$AAn?$AA?9?$AAZ?$AAA@ 000000018003ae98     libucrt:lcidtoname_downlevel.obj
 0002:00008ea8       ??_C@_1M@IIJCOJFA@?$AAx?$AAh?$AA?9?$AAZ?$AAA@ 000000018003aea8     libucrt:lcidtoname_downlevel.obj
 0002:00008eb8       ??_C@_1M@LGPJHNJH@?$AAz?$AAu?$AA?9?$AAZ?$AAA@ 000000018003aeb8     libucrt:lcidtoname_downlevel.obj
 0002:00008ec8       ??_C@_1M@HOKAOIO@?$AAa?$AAf?$AA?9?$AAZ?$AAA@ 000000018003aec8     libucrt:lcidtoname_downlevel.obj
 0002:00008ed8       ??_C@_1M@DPCLHLIE@?$AAk?$AAa?$AA?9?$AAG?$AAE@ 000000018003aed8     libucrt:lcidtoname_downlevel.obj
 0002:00008ee8       ??_C@_1M@BLKMHJBI@?$AAf?$AAo?$AA?9?$AAF?$AAO@ 000000018003aee8     libucrt:lcidtoname_downlevel.obj
 0002:00008ef8       ??_C@_1M@LGGJAPPB@?$AAh?$AAi?$AA?9?$AAI?$AAN@ 000000018003aef8     libucrt:lcidtoname_downlevel.obj
 0002:00008f08       ??_C@_1M@FIKPIHFE@?$AAm?$AAt?$AA?9?$AAM?$AAT@ 000000018003af08     libucrt:lcidtoname_downlevel.obj
 0002:00008f18       ??_C@_1M@HEGGPBFA@?$AAs?$AAe?$AA?9?$AAN?$AAO@ 000000018003af18     libucrt:lcidtoname_downlevel.obj
 0002:00008f28       ??_C@_1M@EIBJEEPA@?$AAm?$AAs?$AA?9?$AAM?$AAY@ 000000018003af28     libucrt:lcidtoname_downlevel.obj
 0002:00008f38       ??_C@_1M@FHLBGMPP@?$AAk?$AAk?$AA?9?$AAK?$AAZ@ 000000018003af38     libucrt:lcidtoname_downlevel.obj
 0002:00008f48       ??_C@_1M@NGJJLCGI@?$AAk?$AAy?$AA?9?$AAK?$AAG@ 000000018003af48     libucrt:lcidtoname_downlevel.obj
 0002:00008f58       ??_C@_1M@GIENNBFC@?$AAs?$AAw?$AA?9?$AAK?$AAE@ 000000018003af58     libucrt:lcidtoname_downlevel.obj
 0002:00008f68       ??_C@_1BG@NDGMJIMJ@?$AAu?$AAz?$AA?9?$AAU?$AAZ?$AA?9?$AAL?$AAa?$AAt?$AAn@ 000000018003af68     libucrt:lcidtoname_downlevel.obj
 0002:00008f80       ??_C@_1M@IDCCIHBC@?$AAt?$AAt?$AA?9?$AAR?$AAU@ 000000018003af80     libucrt:lcidtoname_downlevel.obj
 0002:00008f90       ??_C@_1M@LOICPMOJ@?$AAb?$AAn?$AA?9?$AAI?$AAN@ 000000018003af90     libucrt:lcidtoname_downlevel.obj
 0002:00008fa0       ??_C@_1M@KPKKNEAH@?$AAp?$AAa?$AA?9?$AAI?$AAN@ 000000018003afa0     libucrt:lcidtoname_downlevel.obj
 0002:00008fb0       ??_C@_1M@PJGPPBOG@?$AAg?$AAu?$AA?9?$AAI?$AAN@ 000000018003afb0     libucrt:lcidtoname_downlevel.obj
 0002:00008fc0       ??_C@_1M@KMKMOPHI@?$AAt?$AAa?$AA?9?$AAI?$AAN@ 000000018003afc0     libucrt:lcidtoname_downlevel.obj
 0002:00008fd0       ??_C@_1M@KFEHEPAC@?$AAt?$AAe?$AA?9?$AAI?$AAN@ 000000018003afd0     libucrt:lcidtoname_downlevel.obj
 0002:00008fe0       ??_C@_1M@CDCLMGHI@?$AAk?$AAn?$AA?9?$AAI?$AAN@ 000000018003afe0     libucrt:lcidtoname_downlevel.obj
 0002:00008ff0       ??_C@_1M@MIODLDKF@?$AAm?$AAl?$AA?9?$AAI?$AAN@ 000000018003aff0     libucrt:lcidtoname_downlevel.obj
 0002:00009000       ??_C@_1M@PBIEACPO@?$AAm?$AAr?$AA?9?$AAI?$AAN@ 000000018003b000     libucrt:lcidtoname_downlevel.obj
 0002:00009010       ??_C@_1M@NIDEAGPH@?$AAs?$AAa?$AA?9?$AAI?$AAN@ 000000018003b010     libucrt:lcidtoname_downlevel.obj
 0002:00009020       ??_C@_1M@FHIHCBIO@?$AAm?$AAn?$AA?9?$AAM?$AAN@ 000000018003b020     libucrt:lcidtoname_downlevel.obj
 0002:00009030       ??_C@_1M@JAIJPENP@?$AAc?$AAy?$AA?9?$AAG?$AAB@ 000000018003b030     libucrt:lcidtoname_downlevel.obj
 0002:00009040       ??_C@_1M@PHGFBEPN@?$AAg?$AAl?$AA?9?$AAE?$AAS@ 000000018003b040     libucrt:lcidtoname_downlevel.obj
 0002:00009050       ??_C@_1O@KPIPDNCP@?$AAk?$AAo?$AAk?$AA?9?$AAI?$AAN@ 000000018003b050     libucrt:lcidtoname_downlevel.obj
 0002:00009060       ??_C@_1O@KNHJLDJA@?$AAs?$AAy?$AAr?$AA?9?$AAS?$AAY@ 000000018003b060     libucrt:lcidtoname_downlevel.obj
 0002:00009070       ??_C@_1O@MKEKBLAH@?$AAd?$AAi?$AAv?$AA?9?$AAM?$AAV@ 000000018003b070     libucrt:lcidtoname_downlevel.obj
 0002:00009080       ??_C@_1O@OHDCKDDF@?$AAq?$AAu?$AAz?$AA?9?$AAB?$AAO@ 000000018003b080     libucrt:lcidtoname_downlevel.obj
 0002:00009090       ??_C@_1M@LEPJNLFD@?$AAn?$AAs?$AA?9?$AAZ?$AAA@ 000000018003b090     libucrt:lcidtoname_downlevel.obj
 0002:000090a0       ??_C@_1M@OMLEIIJB@?$AAm?$AAi?$AA?9?$AAN?$AAZ@ 000000018003b0a0     libucrt:lcidtoname_downlevel.obj
 0002:000090b0       ??_C@_1M@PMPEAILG@?$AAa?$AAr?$AA?9?$AAI?$AAQ@ 000000018003b0b0     libucrt:lcidtoname_downlevel.obj
 0002:000090c0       ??_C@_1M@CNKPNOEE@?$AAd?$AAe?$AA?9?$AAC?$AAH@ 000000018003b0c0     libucrt:lcidtoname_downlevel.obj
 0002:000090d0       ??_C@_1M@LKMGMLKO@?$AAe?$AAn?$AA?9?$AAG?$AAB@ 000000018003b0d0     libucrt:lcidtoname_downlevel.obj
 0002:000090e0       ??_C@_1M@PGKJFFGL@?$AAe?$AAs?$AA?9?$AAM?$AAX@ 000000018003b0e0     libucrt:lcidtoname_downlevel.obj
 0002:000090f0       ??_C@_1M@DNNANBDC@?$AAf?$AAr?$AA?9?$AAB?$AAE@ 000000018003b0f0     libucrt:lcidtoname_downlevel.obj
 0002:00009100       ??_C@_1M@HLGMDFHM@?$AAi?$AAt?$AA?9?$AAC?$AAH@ 000000018003b100     libucrt:lcidtoname_downlevel.obj
 0002:00009110       ??_C@_1M@CLLBGJH@?$AAn?$AAl?$AA?9?$AAB?$AAE@ 000000018003b110     libucrt:lcidtoname_downlevel.obj
 0002:00009120       ??_C@_1M@BODBOGLF@?$AAn?$AAn?$AA?9?$AAN?$AAO@ 000000018003b120     libucrt:lcidtoname_downlevel.obj
 0002:00009130       ??_C@_1M@HFFAHKAD@?$AAp?$AAt?$AA?9?$AAP?$AAT@ 000000018003b130     libucrt:lcidtoname_downlevel.obj
 0002:00009140       ??_C@_1BG@LNOAKHIE@?$AAs?$AAr?$AA?9?$AAS?$AAP?$AA?9?$AAL?$AAa?$AAt?$AAn@ 000000018003b140     libucrt:lcidtoname_downlevel.obj
 0002:00009158       ??_C@_1M@HBMHBGAK@?$AAs?$AAv?$AA?9?$AAF?$AAI@ 000000018003b158     libucrt:lcidtoname_downlevel.obj
 0002:00009168       ??_C@_1BG@DGCJGJBE@?$AAa?$AAz?$AA?9?$AAA?$AAZ?$AA?9?$AAC?$AAy?$AAr?$AAl@ 000000018003b168     libucrt:lcidtoname_downlevel.obj
 0002:00009180       ??_C@_1M@KEJDAAHB@?$AAs?$AAe?$AA?9?$AAS?$AAE@ 000000018003b180     libucrt:lcidtoname_downlevel.obj
 0002:00009190       ??_C@_1M@HEIBJJAD@?$AAm?$AAs?$AA?9?$AAB?$AAN@ 000000018003b190     libucrt:lcidtoname_downlevel.obj
 0002:000091a0       ??_C@_1BG@PBGJMCEM@?$AAu?$AAz?$AA?9?$AAU?$AAZ?$AA?9?$AAC?$AAy?$AAr?$AAl@ 000000018003b1a0     libucrt:lcidtoname_downlevel.obj
 0002:000091b8       ??_C@_1O@LAOBCMDF@?$AAq?$AAu?$AAz?$AA?9?$AAE?$AAC@ 000000018003b1b8     libucrt:lcidtoname_downlevel.obj
 0002:000091c8       ??_C@_1M@POEEMAIO@?$AAa?$AAr?$AA?9?$AAE?$AAG@ 000000018003b1c8     libucrt:lcidtoname_downlevel.obj
 0002:000091d8       ??_C@_1M@EFAKDEDL@?$AAz?$AAh?$AA?9?$AAH?$AAK@ 000000018003b1d8     libucrt:lcidtoname_downlevel.obj
 0002:000091e8       ??_C@_1M@HKKIJHGI@?$AAd?$AAe?$AA?9?$AAA?$AAT@ 000000018003b1e8     libucrt:lcidtoname_downlevel.obj
 0002:000091f8       ??_C@_1M@KBFBEHJF@?$AAe?$AAn?$AA?9?$AAA?$AAU@ 000000018003b1f8     libucrt:lcidtoname_downlevel.obj
 0002:00009208       ??_C@_1M@MNPLFAAH@?$AAe?$AAs?$AA?9?$AAE?$AAS@ 000000018003b208     libucrt:lcidtoname_downlevel.obj
 0002:00009218       ??_C@_1M@HJOOJFMA@?$AAf?$AAr?$AA?9?$AAC?$AAA@ 000000018003b218     libucrt:lcidtoname_downlevel.obj
 0002:00009228       ??_C@_1BG@JPOFPNAB@?$AAs?$AAr?$AA?9?$AAS?$AAP?$AA?9?$AAC?$AAy?$AAr?$AAl@ 000000018003b228     libucrt:lcidtoname_downlevel.obj
 0002:00009240       ??_C@_1M@LNFOCMOB@?$AAs?$AAe?$AA?9?$AAF?$AAI@ 000000018003b240     libucrt:lcidtoname_downlevel.obj
 0002:00009250       ??_C@_1O@MGJBOAMB@?$AAq?$AAu?$AAz?$AA?9?$AAP?$AAE@ 000000018003b250     libucrt:lcidtoname_downlevel.obj
 0002:00009260       ??_C@_1M@GJINLBOK@?$AAa?$AAr?$AA?9?$AAL?$AAY@ 000000018003b260     libucrt:lcidtoname_downlevel.obj
 0002:00009270       ??_C@_1M@GGMNHJNL@?$AAz?$AAh?$AA?9?$AAS?$AAG@ 000000018003b270     libucrt:lcidtoname_downlevel.obj
 0002:00009280       ??_C@_1M@HOIKODND@?$AAd?$AAe?$AA?9?$AAL?$AAU@ 000000018003b280     libucrt:lcidtoname_downlevel.obj
 0002:00009290       ??_C@_1M@DDOCCGFG@?$AAe?$AAn?$AA?9?$AAC?$AAA@ 000000018003b290     libucrt:lcidtoname_downlevel.obj
 0002:000092a0       ??_C@_1M@BNOEMJLF@?$AAe?$AAs?$AA?9?$AAG?$AAT@ 000000018003b2a0     libucrt:lcidtoname_downlevel.obj
 0002:000092b0       ??_C@_1M@EOGNKEK@?$AAf?$AAr?$AA?9?$AAC?$AAH@ 000000018003b2b0     libucrt:lcidtoname_downlevel.obj
 0002:000092c0       ??_C@_1M@FLIDJFHL@?$AAh?$AAr?$AA?9?$AAB?$AAA@ 000000018003b2c0     libucrt:lcidtoname_downlevel.obj
 0002:000092d0       ??_C@_1O@FMCELNAJ@?$AAs?$AAm?$AAj?$AA?9?$AAN?$AAO@ 000000018003b2d0     libucrt:lcidtoname_downlevel.obj
 0002:000092e0       ??_C@_1M@JHGLJMGJ@?$AAa?$AAr?$AA?9?$AAD?$AAZ@ 000000018003b2e0     libucrt:lcidtoname_downlevel.obj
 0002:000092f0       ??_C@_1M@JKKFDCNP@?$AAz?$AAh?$AA?9?$AAM?$AAO@ 000000018003b2f0     libucrt:lcidtoname_downlevel.obj
 0002:00009300       ??_C@_1M@GEEFALPE@?$AAd?$AAe?$AA?9?$AAL?$AAI@ 000000018003b300     libucrt:lcidtoname_downlevel.obj
 0002:00009310       ??_C@_1M@IGEOFBG@?$AAe?$AAn?$AA?9?$AAN?$AAZ@ 000000018003b310     libucrt:lcidtoname_downlevel.obj
 0002:00009320       ??_C@_1M@KDBONEHP@?$AAe?$AAs?$AA?9?$AAC?$AAR@ 000000018003b320     libucrt:lcidtoname_downlevel.obj
 0002:00009330       ??_C@_1M@FHMDOHNN@?$AAf?$AAr?$AA?9?$AAL?$AAU@ 000000018003b330     libucrt:lcidtoname_downlevel.obj
 0002:00009340       ??_C@_1BG@NFKKMAFG@?$AAb?$AAs?$AA?9?$AAB?$AAA?$AA?9?$AAL?$AAa?$AAt?$AAn@ 000000018003b340     libucrt:lcidtoname_downlevel.obj
 0002:00009358       ??_C@_1O@IMNBEMCI@?$AAs?$AAm?$AAj?$AA?9?$AAS?$AAE@ 000000018003b358     libucrt:lcidtoname_downlevel.obj
 0002:00009368       ??_C@_1M@DHHMBNDP@?$AAa?$AAr?$AA?9?$AAM?$AAA@ 000000018003b368     libucrt:lcidtoname_downlevel.obj
 0002:00009378       ??_C@_1M@BNBLJCGH@?$AAe?$AAn?$AA?9?$AAI?$AAE@ 000000018003b378     libucrt:lcidtoname_downlevel.obj
 0002:00009388       ??_C@_1M@GEPAFMDL@?$AAe?$AAs?$AA?9?$AAP?$AAA@ 000000018003b388     libucrt:lcidtoname_downlevel.obj
 0002:00009398       ??_C@_1M@OJONDMDL@?$AAf?$AAr?$AA?9?$AAM?$AAC@ 000000018003b398     libucrt:lcidtoname_downlevel.obj
 0002:000093a8       ??_C@_1BG@OBCNFJB@?$AAs?$AAr?$AA?9?$AAB?$AAA?$AA?9?$AAL?$AAa?$AAt?$AAn@ 000000018003b3a8     libucrt:lcidtoname_downlevel.obj
 0002:000093c0       ??_C@_1O@KEMEEGPO@?$AAs?$AAm?$AAa?$AA?9?$AAN?$AAO@ 000000018003b3c0     libucrt:lcidtoname_downlevel.obj
 0002:000093d0       ??_C@_1M@ELMGFODK@?$AAa?$AAr?$AA?9?$AAT?$AAN@ 000000018003b3d0     libucrt:lcidtoname_downlevel.obj
 0002:000093e0       ??_C@_1M@BHDLHFAF@?$AAe?$AAn?$AA?9?$AAZ?$AAA@ 000000018003b3e0     libucrt:lcidtoname_downlevel.obj
 0002:000093f0       ??_C@_1M@BMGIGLIF@?$AAe?$AAs?$AA?9?$AAD?$AAO@ 000000018003b3f0     libucrt:lcidtoname_downlevel.obj
 0002:00009400       ??_C@_1BG@CMBHIPBE@?$AAs?$AAr?$AA?9?$AAB?$AAA?$AA?9?$AAC?$AAy?$AAr?$AAl@ 000000018003b400     libucrt:lcidtoname_downlevel.obj
 0002:00009418       ??_C@_1O@HEDBLHNP@?$AAs?$AAm?$AAa?$AA?9?$AAS?$AAE@ 000000018003b418     libucrt:lcidtoname_downlevel.obj
 0002:00009428       ??_C@_1M@DAGCADIM@?$AAa?$AAr?$AA?9?$AAO?$AAM@ 000000018003b428     libucrt:lcidtoname_downlevel.obj
 0002:00009438       ??_C@_1M@FODLMICG@?$AAe?$AAn?$AA?9?$AAJ?$AAM@ 000000018003b438     libucrt:lcidtoname_downlevel.obj
 0002:00009448       ??_C@_1M@DNMLCIHB@?$AAe?$AAs?$AA?9?$AAV?$AAE@ 000000018003b448     libucrt:lcidtoname_downlevel.obj
 0002:00009458       ??_C@_1O@EOKHMKJK@?$AAs?$AAm?$AAs?$AA?9?$AAF?$AAI@ 000000018003b458     libucrt:lcidtoname_downlevel.obj
 0002:00009468       ??_C@_1M@CAFJMKOF@?$AAa?$AAr?$AA?9?$AAY?$AAE@ 000000018003b468     libucrt:lcidtoname_downlevel.obj
 0002:00009478       ??_C@_1M@CBFHIJLI@?$AAe?$AAn?$AA?9?$AAC?$AAB@ 000000018003b478     libucrt:lcidtoname_downlevel.obj
 0002:00009488       ??_C@_1M@BGNFLDN@?$AAe?$AAs?$AA?9?$AAC?$AAO@ 000000018003b488     libucrt:lcidtoname_downlevel.obj
 0002:00009498       ??_C@_1O@JMPHMAMC@?$AAs?$AAm?$AAn?$AA?9?$AAF?$AAI@ 000000018003b498     libucrt:lcidtoname_downlevel.obj
 0002:000094a8       ??_C@_1M@JLANABKE@?$AAa?$AAr?$AA?9?$AAS?$AAY@ 000000018003b4a8     libucrt:lcidtoname_downlevel.obj
 0002:000094b8       ??_C@_1M@HPKGCFGN@?$AAe?$AAn?$AA?9?$AAB?$AAZ@ 000000018003b4b8     libucrt:lcidtoname_downlevel.obj
 0002:000094c8       ??_C@_1M@OLJCMLGM@?$AAe?$AAs?$AA?9?$AAP?$AAE@ 000000018003b4c8     libucrt:lcidtoname_downlevel.obj
 0002:000094d8       ??_C@_1M@MKKGFKLE@?$AAa?$AAr?$AA?9?$AAJ?$AAO@ 000000018003b4d8     libucrt:lcidtoname_downlevel.obj
 0002:000094e8       ??_C@_1M@EKPGLDNI@?$AAe?$AAn?$AA?9?$AAT?$AAT@ 000000018003b4e8     libucrt:lcidtoname_downlevel.obj
 0002:000094f8       ??_C@_1M@OONGHFHE@?$AAe?$AAs?$AA?9?$AAA?$AAR@ 000000018003b4f8     libucrt:lcidtoname_downlevel.obj
 0002:00009508       ??_C@_1M@OOJFGBHE@?$AAa?$AAr?$AA?9?$AAL?$AAB@ 000000018003b508     libucrt:lcidtoname_downlevel.obj
 0002:00009518       ??_C@_1M@GCEJHNEG@?$AAe?$AAn?$AA?9?$AAZ?$AAW@ 000000018003b518     libucrt:lcidtoname_downlevel.obj
 0002:00009528       ??_C@_1M@JNOCAHJI@?$AAe?$AAs?$AA?9?$AAE?$AAC@ 000000018003b528     libucrt:lcidtoname_downlevel.obj
 0002:00009538       ??_C@_1M@JEFHPGGB@?$AAa?$AAr?$AA?9?$AAK?$AAW@ 000000018003b538     libucrt:lcidtoname_downlevel.obj
 0002:00009548       ??_C@_1M@MLKIBJOJ@?$AAe?$AAn?$AA?9?$AAP?$AAH@ 000000018003b548     libucrt:lcidtoname_downlevel.obj
 0002:00009558       ??_C@_1M@BDNIPEND@?$AAe?$AAs?$AA?9?$AAC?$AAL@ 000000018003b558     libucrt:lcidtoname_downlevel.obj
 0002:00009568       ??_C@_1M@MPNMEKBD@?$AAa?$AAr?$AA?9?$AAA?$AAE@ 000000018003b568     libucrt:lcidtoname_downlevel.obj
 0002:00009578       ??_C@_1M@KBJALCPI@?$AAe?$AAs?$AA?9?$AAU?$AAY@ 000000018003b578     libucrt:lcidtoname_downlevel.obj
 0002:00009588       ??_C@_1M@LLCCOAGA@?$AAa?$AAr?$AA?9?$AAB?$AAH@ 000000018003b588     libucrt:lcidtoname_downlevel.obj
 0002:00009598       ??_C@_1M@PBFNCDEL@?$AAe?$AAs?$AA?9?$AAP?$AAY@ 000000018003b598     libucrt:lcidtoname_downlevel.obj
 0002:000095a8       ??_C@_1M@EDGINPNP@?$AAa?$AAr?$AA?9?$AAQ?$AAA@ 000000018003b5a8     libucrt:lcidtoname_downlevel.obj
 0002:000095b8       ??_C@_1M@MKDBIIJI@?$AAe?$AAs?$AA?9?$AAB?$AAO@ 000000018003b5b8     libucrt:lcidtoname_downlevel.obj
 0002:000095c8       ??_C@_1M@CPKKEBLD@?$AAe?$AAs?$AA?9?$AAS?$AAV@ 000000018003b5c8     libucrt:lcidtoname_downlevel.obj
 0002:000095d8       ??_C@_1M@NDBGMMJL@?$AAe?$AAs?$AA?9?$AAH?$AAN@ 000000018003b5d8     libucrt:lcidtoname_downlevel.obj
 0002:000095e8       ??_C@_1M@JIJIBHDP@?$AAe?$AAs?$AA?9?$AAN?$AAI@ 000000018003b5e8     libucrt:lcidtoname_downlevel.obj
 0002:000095f8       ??_C@_1M@CGFMKEEK@?$AAe?$AAs?$AA?9?$AAP?$AAR@ 000000018003b5f8     libucrt:lcidtoname_downlevel.obj
 0002:00009608       ??_C@_1O@ICJHKIIK@?$AAz?$AAh?$AA?9?$AAC?$AAH?$AAT@ 000000018003b608     libucrt:lcidtoname_downlevel.obj
 0002:00009618       ??_C@_15CLNEJCE@?$AAs?$AAr@ 000000018003b618     libucrt:lcidtoname_downlevel.obj
 0002:0000a460       ??_C@_1M@KAHEKEIG@?$AAa?$AAf?$AA?9?$AAz?$AAa@ 000000018003c460     libucrt:lcidtoname_downlevel.obj
 0002:0000a470       ??_C@_1M@GIECOABL@?$AAa?$AAr?$AA?9?$AAa?$AAe@ 000000018003c470     libucrt:lcidtoname_downlevel.obj
 0002:0000a480       ??_C@_1M@BMLMEKGI@?$AAa?$AAr?$AA?9?$AAb?$AAh@ 000000018003c480     libucrt:lcidtoname_downlevel.obj
 0002:0000a490       ??_C@_1M@DAPFDGGB@?$AAa?$AAr?$AA?9?$AAd?$AAz@ 000000018003c490     libucrt:lcidtoname_downlevel.obj
 0002:0000a4a0       ??_C@_1M@FJNKGKIG@?$AAa?$AAr?$AA?9?$AAe?$AAg@ 000000018003c4a0     libucrt:lcidtoname_downlevel.obj
 0002:0000a4b0       ??_C@_1M@FLGKKCLO@?$AAa?$AAr?$AA?9?$AAi?$AAq@ 000000018003c4b0     libucrt:lcidtoname_downlevel.obj
 0002:0000a4c0       ??_C@_1M@GNDIPALM@?$AAa?$AAr?$AA?9?$AAj?$AAo@ 000000018003c4c0     libucrt:lcidtoname_downlevel.obj
 0002:0000a4d0       ??_C@_1M@DDMJFMGJ@?$AAa?$AAr?$AA?9?$AAk?$AAw@ 000000018003c4d0     libucrt:lcidtoname_downlevel.obj
 0002:0000a4e0       ??_C@_1M@EJALMLHM@?$AAa?$AAr?$AA?9?$AAl?$AAb@ 000000018003c4e0     libucrt:lcidtoname_downlevel.obj
 0002:0000a4f0       ??_C@_1M@MOBDBLOC@?$AAa?$AAr?$AA?9?$AAl?$AAy@ 000000018003c4f0     libucrt:lcidtoname_downlevel.obj
 0002:0000a500       ??_C@_1M@JAOCLHDH@?$AAa?$AAr?$AA?9?$AAm?$AAa@ 000000018003c500     libucrt:lcidtoname_downlevel.obj
 0002:0000a510       ??_C@_1M@JHPMKJIE@?$AAa?$AAr?$AA?9?$AAo?$AAm@ 000000018003c510     libucrt:lcidtoname_downlevel.obj
 0002:0000a520       ??_C@_1M@OEPGHFNH@?$AAa?$AAr?$AA?9?$AAq?$AAa@ 000000018003c520     libucrt:lcidtoname_downlevel.obj
 0002:0000a530       ??_C@_1M@KJDONENM@?$AAa?$AAr?$AA?9?$AAs?$AAa@ 000000018003c530     libucrt:lcidtoname_downlevel.obj
 0002:0000a540       ??_C@_1M@DMJDKLKM@?$AAa?$AAr?$AA?9?$AAs?$AAy@ 000000018003c540     libucrt:lcidtoname_downlevel.obj
 0002:0000a550       ??_C@_1M@OMFIPEDC@?$AAa?$AAr?$AA?9?$AAt?$AAn@ 000000018003c550     libucrt:lcidtoname_downlevel.obj
 0002:0000a560       ??_C@_1M@IHMHGAON@?$AAa?$AAr?$AA?9?$AAy?$AAe@ 000000018003c560     libucrt:lcidtoname_downlevel.obj
 0002:0000a570       ??_C@_1BG@KDCPGJGB@?$AAa?$AAz?$AA?9?$AAa?$AAz?$AA?9?$AAc?$AAy?$AAr?$AAl@ 000000018003c570     libucrt:lcidtoname_downlevel.obj
 0002:0000a588       ??_C@_1BG@IBCKDDOE@?$AAa?$AAz?$AA?9?$AAa?$AAz?$AA?9?$AAl?$AAa?$AAt?$AAn@ 000000018003c588     libucrt:lcidtoname_downlevel.obj
 0002:0000a5a0       ??_C@_1M@EGPFDCPD@?$AAb?$AAe?$AA?9?$AAb?$AAy@ 000000018003c5a0     libucrt:lcidtoname_downlevel.obj
 0002:0000a5b0       ??_C@_1M@PCMGMCGC@?$AAb?$AAg?$AA?9?$AAb?$AAg@ 000000018003c5b0     libucrt:lcidtoname_downlevel.obj
 0002:0000a5c0       ??_C@_1M@BJBMFGOB@?$AAb?$AAn?$AA?9?$AAi?$AAn@ 000000018003c5c0     libucrt:lcidtoname_downlevel.obj
 0002:0000a5d0       ??_C@_1BG@EAKMMACD@?$AAb?$AAs?$AA?9?$AAb?$AAa?$AA?9?$AAl?$AAa?$AAt?$AAn@ 000000018003c5d0     libucrt:lcidtoname_downlevel.obj
 0002:0000a5e8       ??_C@_1M@KGADAODK@?$AAc?$AAa?$AA?9?$AAe?$AAs@ 000000018003c5e8     libucrt:lcidtoname_downlevel.obj
 0002:0000a5f8       ??_C@_1M@COAJPDHI@?$AAc?$AAs?$AA?9?$AAc?$AAz@ 000000018003c5f8     libucrt:lcidtoname_downlevel.obj
 0002:0000a608       ??_C@_1M@DHBHFONH@?$AAc?$AAy?$AA?9?$AAg?$AAb@ 000000018003c608     libucrt:lcidtoname_downlevel.obj
 0002:0000a618       ??_C@_1M@IMGKELGA@?$AAd?$AAa?$AA?9?$AAd?$AAk@ 000000018003c618     libucrt:lcidtoname_downlevel.obj
 0002:0000a628       ??_C@_1M@NNDGDNGA@?$AAd?$AAe?$AA?9?$AAa?$AAt@ 000000018003c628     libucrt:lcidtoname_downlevel.obj
 0002:0000a638       ??_C@_1M@IKDBHEEM@?$AAd?$AAe?$AA?9?$AAc?$AAh@ 000000018003c638     libucrt:lcidtoname_downlevel.obj
 0002:0000a648       ??_C@_1M@GFFOJMCJ@?$AAd?$AAe?$AA?9?$AAd?$AAe@ 000000018003c648     libucrt:lcidtoname_downlevel.obj
 0002:0000a658       ??_C@_1M@MDNLKBPM@?$AAd?$AAe?$AA?9?$AAl?$AAi@ 000000018003c658     libucrt:lcidtoname_downlevel.obj
 0002:0000a668       ??_C@_1M@NJBEEJNL@?$AAd?$AAe?$AA?9?$AAl?$AAu@ 000000018003c668     libucrt:lcidtoname_downlevel.obj
 0002:0000a678       ??_C@_1O@GNNELBAP@?$AAd?$AAi?$AAv?$AA?9?$AAm?$AAv@ 000000018003c678     libucrt:lcidtoname_downlevel.obj
 0002:0000a688       ??_C@_1M@EJLEOGAE@?$AAe?$AAl?$AA?9?$AAg?$AAr@ 000000018003c688     libucrt:lcidtoname_downlevel.obj
 0002:0000a698       ??_C@_1M@GMPONJN@?$AAe?$AAn?$AA?9?$AAa?$AAu@ 000000018003c698     libucrt:lcidtoname_downlevel.obj
 0002:0000a6a8       ??_C@_1M@NIDIIPGF@?$AAe?$AAn?$AA?9?$AAb?$AAz@ 000000018003c6a8     libucrt:lcidtoname_downlevel.obj
 0002:0000a6b8       ??_C@_1M@JEHMIMFO@?$AAe?$AAn?$AA?9?$AAc?$AAa@ 000000018003c6b8     libucrt:lcidtoname_downlevel.obj
 0002:0000a6c8       ??_C@_1M@IGMJCDLA@?$AAe?$AAn?$AA?9?$AAc?$AAb@ 000000018003c6c8     libucrt:lcidtoname_downlevel.obj
 0002:0000a6d8       ??_C@_1M@BNFIGBKG@?$AAe?$AAn?$AA?9?$AAg?$AAb@ 000000018003c6d8     libucrt:lcidtoname_downlevel.obj
 0002:0000a6e8       ??_C@_1M@LKIFDIGP@?$AAe?$AAn?$AA?9?$AAi?$AAe@ 000000018003c6e8     libucrt:lcidtoname_downlevel.obj
 0002:0000a6f8       ??_C@_1M@PJKFGCCO@?$AAe?$AAn?$AA?9?$AAj?$AAm@ 000000018003c6f8     libucrt:lcidtoname_downlevel.obj
 0002:0000a708       ??_C@_1M@KPPKEPBO@?$AAe?$AAn?$AA?9?$AAn?$AAz@ 000000018003c708     libucrt:lcidtoname_downlevel.obj
 0002:0000a718       ??_C@_1M@GMDGLDOB@?$AAe?$AAn?$AA?9?$AAp?$AAh@ 000000018003c718     libucrt:lcidtoname_downlevel.obj
 0002:0000a728       ??_C@_1M@ONGIBJNA@?$AAe?$AAn?$AA?9?$AAt?$AAt@ 000000018003c728     libucrt:lcidtoname_downlevel.obj
 0002:0000a738       ??_C@_1M@LLODPCMM@?$AAe?$AAn?$AA?9?$AAu?$AAs@ 000000018003c738     libucrt:lcidtoname_downlevel.obj
 0002:0000a748       ??_C@_1M@LAKFNPAN@?$AAe?$AAn?$AA?9?$AAz?$AAa@ 000000018003c748     libucrt:lcidtoname_downlevel.obj
 0002:0000a758       ??_C@_1M@MFNHNHEO@?$AAe?$AAn?$AA?9?$AAz?$AAw@ 000000018003c758     libucrt:lcidtoname_downlevel.obj
 0002:0000a768       ??_C@_1M@EJEINPHM@?$AAe?$AAs?$AA?9?$AAa?$AAr@ 000000018003c768     libucrt:lcidtoname_downlevel.obj
 0002:0000a778       ??_C@_1M@GNKPCCJA@?$AAe?$AAs?$AA?9?$AAb?$AAo@ 000000018003c778     libucrt:lcidtoname_downlevel.obj
 0002:0000a788       ??_C@_1M@LEEGFONL@?$AAe?$AAs?$AA?9?$AAc?$AAl@ 000000018003c788     libucrt:lcidtoname_downlevel.obj
 0002:0000a798       ??_C@_1M@KGPDPBDF@?$AAe?$AAs?$AA?9?$AAc?$AAo@ 000000018003c798     libucrt:lcidtoname_downlevel.obj
 0002:0000a7a8       ??_C@_1M@EIAHOHH@?$AAe?$AAs?$AA?9?$AAc?$AAr@ 000000018003c7a8     libucrt:lcidtoname_downlevel.obj
 0002:0000a7b8       ??_C@_1M@LLPGMBIN@?$AAe?$AAs?$AA?9?$AAd?$AAo@ 000000018003c7b8     libucrt:lcidtoname_downlevel.obj
 0002:0000a7c8       ??_C@_1M@DKHMKNJA@?$AAe?$AAs?$AA?9?$AAe?$AAc@ 000000018003c7c8     libucrt:lcidtoname_downlevel.obj
 0002:0000a7d8       ??_C@_1M@GKGFPKAP@?$AAe?$AAs?$AA?9?$AAe?$AAs@ 000000018003c7d8     libucrt:lcidtoname_downlevel.obj
 0002:0000a7e8       ??_C@_1M@LKHKGDLN@?$AAe?$AAs?$AA?9?$AAg?$AAt@ 000000018003c7e8     libucrt:lcidtoname_downlevel.obj
 0002:0000a7f8       ??_C@_1M@HEIIGGJD@?$AAe?$AAs?$AA?9?$AAh?$AAn@ 000000018003c7f8     libucrt:lcidtoname_downlevel.obj
 0002:0000a808       ??_C@_1M@FBDHPPGD@?$AAe?$AAs?$AA?9?$AAm?$AAx@ 000000018003c808     libucrt:lcidtoname_downlevel.obj
 0002:0000a818       ??_C@_1M@DPAGLNDH@?$AAe?$AAs?$AA?9?$AAn?$AAi@ 000000018003c818     libucrt:lcidtoname_downlevel.obj
 0002:0000a828       ??_C@_1M@MDGOPGDD@?$AAe?$AAs?$AA?9?$AAp?$AAa@ 000000018003c828     libucrt:lcidtoname_downlevel.obj
 0002:0000a838       ??_C@_1M@EMAMGBGE@?$AAe?$AAs?$AA?9?$AAp?$AAe@ 000000018003c838     libucrt:lcidtoname_downlevel.obj
 0002:0000a848       ??_C@_1M@IBMCAOEC@?$AAe?$AAs?$AA?9?$AAp?$AAr@ 000000018003c848     libucrt:lcidtoname_downlevel.obj
 0002:0000a858       ??_C@_1M@FGMDIJED@?$AAe?$AAs?$AA?9?$AAp?$AAy@ 000000018003c858     libucrt:lcidtoname_downlevel.obj
 0002:0000a868       ??_C@_1M@IIDEOLLL@?$AAe?$AAs?$AA?9?$AAs?$AAv@ 000000018003c868     libucrt:lcidtoname_downlevel.obj
 0002:0000a878       ??_C@_1M@GAOBIPA@?$AAe?$AAs?$AA?9?$AAu?$AAy@ 000000018003c878     libucrt:lcidtoname_downlevel.obj
 0002:0000a888       ??_C@_1M@JKFFICHJ@?$AAe?$AAs?$AA?9?$AAv?$AAe@ 000000018003c888     libucrt:lcidtoname_downlevel.obj
 0002:0000a898       ??_C@_1M@PNMLOJDF@?$AAe?$AAt?$AA?9?$AAe?$AAe@ 000000018003c898     libucrt:lcidtoname_downlevel.obj
 0002:0000a8a8       ??_C@_1M@GHHLIKEI@?$AAe?$AAu?$AA?9?$AAe?$AAs@ 000000018003c8a8     libucrt:lcidtoname_downlevel.obj
 0002:0000a8b8       ??_C@_1M@PBNONODE@?$AAf?$AAa?$AA?9?$AAi?$AAr@ 000000018003c8b8     libucrt:lcidtoname_downlevel.obj
 0002:0000a8c8       ??_C@_1M@JEEHPMIL@?$AAf?$AAi?$AA?9?$AAf?$AAi@ 000000018003c8c8     libucrt:lcidtoname_downlevel.obj
 0002:0000a8d8       ??_C@_1M@LMDCNDBA@?$AAf?$AAo?$AA?9?$AAf?$AAo@ 000000018003c8d8     libucrt:lcidtoname_downlevel.obj
 0002:0000a8e8       ??_C@_1M@JKEOHLDK@?$AAf?$AAr?$AA?9?$AAb?$AAe@ 000000018003c8e8     libucrt:lcidtoname_downlevel.obj
 0002:0000a8f8       ??_C@_1M@NOHADPMI@?$AAf?$AAr?$AA?9?$AAc?$AAa@ 000000018003c8f8     libucrt:lcidtoname_downlevel.obj
 0002:0000a908       ??_C@_1M@KDHIHAEC@?$AAf?$AAr?$AA?9?$AAc?$AAh@ 000000018003c908     libucrt:lcidtoname_downlevel.obj
 0002:0000a918       ??_C@_1M@MMBBFGAK@?$AAf?$AAr?$AA?9?$AAf?$AAr@ 000000018003c918     libucrt:lcidtoname_downlevel.obj
 0002:0000a928       ??_C@_1M@PAFNENNF@?$AAf?$AAr?$AA?9?$AAl?$AAu@ 000000018003c928     libucrt:lcidtoname_downlevel.obj
 0002:0000a938       ??_C@_1M@EOHDJGDD@?$AAf?$AAr?$AA?9?$AAm?$AAc@ 000000018003c938     libucrt:lcidtoname_downlevel.obj
 0002:0000a948       ??_C@_1M@FAPLLOPF@?$AAg?$AAl?$AA?9?$AAe?$AAs@ 000000018003c948     libucrt:lcidtoname_downlevel.obj
 0002:0000a958       ??_C@_1M@FOPBFLOO@?$AAg?$AAu?$AA?9?$AAi?$AAn@ 000000018003c958     libucrt:lcidtoname_downlevel.obj
 0002:0000a968       ??_C@_1M@KBMCINPM@?$AAh?$AAe?$AA?9?$AAi?$AAl@ 000000018003c968     libucrt:lcidtoname_downlevel.obj
 0002:0000a978       ??_C@_1M@BBPHKFPJ@?$AAh?$AAi?$AA?9?$AAi?$AAn@ 000000018003c978     libucrt:lcidtoname_downlevel.obj
 0002:0000a988       ??_C@_1M@PMBNDPHD@?$AAh?$AAr?$AA?9?$AAb?$AAa@ 000000018003c988     libucrt:lcidtoname_downlevel.obj
 0002:0000a998       ??_C@_1M@BPCKOEGE@?$AAh?$AAr?$AA?9?$AAh?$AAr@ 000000018003c998     libucrt:lcidtoname_downlevel.obj
 0002:0000a9a8       ??_C@_1M@GACBMHKE@?$AAh?$AAu?$AA?9?$AAh?$AAu@ 000000018003c9a8     libucrt:lcidtoname_downlevel.obj
 0002:0000a9b8       ??_C@_1M@MILPAJJC@?$AAh?$AAy?$AA?9?$AAa?$AAm@ 000000018003c9b8     libucrt:lcidtoname_downlevel.obj
 0002:0000a9c8       ??_C@_1M@BABBICEC@?$AAi?$AAd?$AA?9?$AAi?$AAd@ 000000018003c9c8     libucrt:lcidtoname_downlevel.obj
 0002:0000a9d8       ??_C@_1M@BIKNHHPF@?$AAi?$AAs?$AA?9?$AAi?$AAs@ 000000018003c9d8     libucrt:lcidtoname_downlevel.obj
 0002:0000a9e8       ??_C@_1M@NMPCJPHE@?$AAi?$AAt?$AA?9?$AAc?$AAh@ 000000018003c9e8     libucrt:lcidtoname_downlevel.obj
 0002:0000a9f8       ??_C@_1M@GHKGFEDF@?$AAi?$AAt?$AA?9?$AAi?$AAt@ 000000018003c9f8     libucrt:lcidtoname_downlevel.obj
 0002:0000aa08       ??_C@_1M@NIEJCJJA@?$AAj?$AAa?$AA?9?$AAj?$AAp@ 000000018003ca08     libucrt:lcidtoname_downlevel.obj
 0002:0000aa18       ??_C@_1M@JILFNBIM@?$AAk?$AAa?$AA?9?$AAg?$AAe@ 000000018003ca18     libucrt:lcidtoname_downlevel.obj
 0002:0000aa28       ??_C@_1M@PACPMGPH@?$AAk?$AAk?$AA?9?$AAk?$AAz@ 000000018003ca28     libucrt:lcidtoname_downlevel.obj
 0002:0000aa38       ??_C@_1M@IELFGMHA@?$AAk?$AAn?$AA?9?$AAi?$AAn@ 000000018003ca38     libucrt:lcidtoname_downlevel.obj
 0002:0000aa48       ??_C@_1O@IBBJHCH@?$AAk?$AAo?$AAk?$AA?9?$AAi?$AAn@ 000000018003ca48     libucrt:lcidtoname_downlevel.obj
 0002:0000aa58       ??_C@_1M@DMHAEOGC@?$AAk?$AAo?$AA?9?$AAk?$AAr@ 000000018003ca58     libucrt:lcidtoname_downlevel.obj
 0002:0000aa68       ??_C@_1M@HBAHBIGA@?$AAk?$AAy?$AA?9?$AAk?$AAg@ 000000018003ca68     libucrt:lcidtoname_downlevel.obj
 0002:0000aa78       ??_C@_1M@KPMILCJG@?$AAl?$AAt?$AA?9?$AAl?$AAt@ 000000018003ca78     libucrt:lcidtoname_downlevel.obj
 0002:0000aa88       ??_C@_1M@BDEKKCA@?$AAl?$AAv?$AA?9?$AAl?$AAv@ 000000018003ca88     libucrt:lcidtoname_downlevel.obj
 0002:0000aa98       ??_C@_1M@ELCKCCJJ@?$AAm?$AAi?$AA?9?$AAn?$AAz@ 000000018003ca98     libucrt:lcidtoname_downlevel.obj
 0002:0000aaa8       ??_C@_1M@CBOOLAPA@?$AAm?$AAk?$AA?9?$AAm?$AAk@ 000000018003caa8     libucrt:lcidtoname_downlevel.obj
 0002:0000aab8       ??_C@_1M@GPHNBJKN@?$AAm?$AAl?$AA?9?$AAi?$AAn@ 000000018003cab8     libucrt:lcidtoname_downlevel.obj
 0002:0000aac8       ??_C@_1M@PABJILIG@?$AAm?$AAn?$AA?9?$AAm?$AAn@ 000000018003cac8     libucrt:lcidtoname_downlevel.obj
 0002:0000aad8       ??_C@_1M@FGBKKIPG@?$AAm?$AAr?$AA?9?$AAi?$AAn@ 000000018003cad8     libucrt:lcidtoname_downlevel.obj
 0002:0000aae8       ??_C@_1M@NDBPDDAL@?$AAm?$AAs?$AA?9?$AAb?$AAn@ 000000018003cae8     libucrt:lcidtoname_downlevel.obj
 0002:0000aaf8       ??_C@_1M@OPIHOOPI@?$AAm?$AAs?$AA?9?$AAm?$AAy@ 000000018003caf8     libucrt:lcidtoname_downlevel.obj
 0002:0000ab08       ??_C@_1M@PPDBCNFM@?$AAm?$AAt?$AA?9?$AAm?$AAt@ 000000018003cb08     libucrt:lcidtoname_downlevel.obj
 0002:0000ab18       ??_C@_1M@KDJDKMDD@?$AAn?$AAb?$AA?9?$AAn?$AAo@ 000000018003cb18     libucrt:lcidtoname_downlevel.obj
 0002:0000ab28       ??_C@_1M@KFCFLMJP@?$AAn?$AAl?$AA?9?$AAb?$AAe@ 000000018003cb28     libucrt:lcidtoname_downlevel.obj
 0002:0000ab38       ??_C@_1M@KPOPDDGO@?$AAn?$AAl?$AA?9?$AAn?$AAl@ 000000018003cb38     libucrt:lcidtoname_downlevel.obj
 0002:0000ab48       ??_C@_1M@LJKPEMLN@?$AAn?$AAn?$AA?9?$AAn?$AAo@ 000000018003cb48     libucrt:lcidtoname_downlevel.obj
 0002:0000ab58       ??_C@_1M@BDGHHBFL@?$AAn?$AAs?$AA?9?$AAz?$AAa@ 000000018003cb58     libucrt:lcidtoname_downlevel.obj
 0002:0000ab68       ??_C@_1M@IDEHOAP@?$AAp?$AAa?$AA?9?$AAi?$AAn@ 000000018003cb68     libucrt:lcidtoname_downlevel.obj
 0002:0000ab78       ??_C@_1M@HDBKGOGH@?$AAp?$AAl?$AA?9?$AAp?$AAl@ 000000018003cb78     libucrt:lcidtoname_downlevel.obj
 0002:0000ab88       ??_C@_1M@LJLLCMEH@?$AAp?$AAt?$AA?9?$AAb?$AAr@ 000000018003cb88     libucrt:lcidtoname_downlevel.obj
 0002:0000ab98       ??_C@_1M@NCMONAAL@?$AAp?$AAt?$AA?9?$AAp?$AAt@ 000000018003cb98     libucrt:lcidtoname_downlevel.obj
 0002:0000aba8       ??_C@_1O@EAKMAJDN@?$AAq?$AAu?$AAz?$AA?9?$AAb?$AAo@ 000000018003cba8     libucrt:lcidtoname_downlevel.obj
 0002:0000abb8       ??_C@_1O@BHHPIGDN@?$AAq?$AAu?$AAz?$AA?9?$AAe?$AAc@ 000000018003cbb8     libucrt:lcidtoname_downlevel.obj
 0002:0000abc8       ??_C@_1O@GBAPEKMJ@?$AAq?$AAu?$AAz?$AA?9?$AAp?$AAe@ 000000018003cbc8     libucrt:lcidtoname_downlevel.obj
 0002:0000abd8       ??_C@_1M@CLGLEFBO@?$AAr?$AAo?$AA?9?$AAr?$AAo@ 000000018003cbd8     libucrt:lcidtoname_downlevel.obj
 0002:0000abe8       ??_C@_1M@CEEDODME@?$AAr?$AAu?$AA?9?$AAr?$AAu@ 000000018003cbe8     libucrt:lcidtoname_downlevel.obj
 0002:0000abf8       ??_C@_1M@HPKKKMPP@?$AAs?$AAa?$AA?9?$AAi?$AAn@ 000000018003cbf8     libucrt:lcidtoname_downlevel.obj
 0002:0000ac08       ??_C@_1M@BKMAIGOJ@?$AAs?$AAe?$AA?9?$AAf?$AAi@ 000000018003cc08     libucrt:lcidtoname_downlevel.obj
 0002:0000ac18       ??_C@_1M@NDPIFLFI@?$AAs?$AAe?$AA?9?$AAn?$AAo@ 000000018003cc18     libucrt:lcidtoname_downlevel.obj
 0002:0000ac28       ??_C@_1M@DANKKHJ@?$AAs?$AAe?$AA?9?$AAs?$AAe@ 000000018003cc28     libucrt:lcidtoname_downlevel.obj
 0002:0000ac38       ??_C@_1M@PNBLONPJ@?$AAs?$AAk?$AA?9?$AAs?$AAk@ 000000018003cc38     libucrt:lcidtoname_downlevel.obj
 0002:0000ac48       ??_C@_1M@LFMODOAL@?$AAs?$AAl?$AA?9?$AAs?$AAi@ 000000018003cc48     libucrt:lcidtoname_downlevel.obj
 0002:0000ac58       ??_C@_1O@DFKOMPG@?$AAs?$AAm?$AAa?$AA?9?$AAn?$AAo@ 000000018003cc58     libucrt:lcidtoname_downlevel.obj
 0002:0000ac68       ??_C@_1O@NDKPBNNH@?$AAs?$AAm?$AAa?$AA?9?$AAs?$AAe@ 000000018003cc68     libucrt:lcidtoname_downlevel.obj
 0002:0000ac78       ??_C@_1O@PLLKBHAB@?$AAs?$AAm?$AAj?$AA?9?$AAn?$AAo@ 000000018003cc78     libucrt:lcidtoname_downlevel.obj
 0002:0000ac88       ??_C@_1O@CLEPOGCA@?$AAs?$AAm?$AAj?$AA?9?$AAs?$AAe@ 000000018003cc88     libucrt:lcidtoname_downlevel.obj
 0002:0000ac98       ??_C@_1O@DLGJGKMK@?$AAs?$AAm?$AAn?$AA?9?$AAf?$AAi@ 000000018003cc98     libucrt:lcidtoname_downlevel.obj
 0002:0000aca8       ??_C@_1O@OJDJGAJC@?$AAs?$AAm?$AAs?$AA?9?$AAf?$AAi@ 000000018003cca8     libucrt:lcidtoname_downlevel.obj
 0002:0000acb8       ??_C@_1M@BOFOGHPB@?$AAs?$AAq?$AA?9?$AAa?$AAl@ 000000018003ccb8     libucrt:lcidtoname_downlevel.obj
 0002:0000acc8       ??_C@_1BG@LJBBIPGB@?$AAs?$AAr?$AA?9?$AAb?$AAa?$AA?9?$AAc?$AAy?$AAr?$AAl@ 000000018003ccc8     libucrt:lcidtoname_downlevel.obj
 0002:0000ace0       ??_C@_1BG@JLBENFOE@?$AAs?$AAr?$AA?9?$AAb?$AAa?$AA?9?$AAl?$AAa?$AAt?$AAn@ 000000018003cce0     libucrt:lcidtoname_downlevel.obj
 0002:0000acf8       ??_C@_1BG@KODPNHE@?$AAs?$AAr?$AA?9?$AAs?$AAp?$AA?9?$AAc?$AAy?$AAr?$AAl@ 000000018003ccf8     libucrt:lcidtoname_downlevel.obj
 0002:0000ad10       ??_C@_1BG@CIOGKHPB@?$AAs?$AAr?$AA?9?$AAs?$AAp?$AA?9?$AAl?$AAa?$AAt?$AAn@ 000000018003cd10     libucrt:lcidtoname_downlevel.obj
 0002:0000ad28       ??_C@_1M@NGFJLMAC@?$AAs?$AAv?$AA?9?$AAf?$AAi@ 000000018003cd28     libucrt:lcidtoname_downlevel.obj
 0002:0000ad38       ??_C@_1M@MPJEJAJC@?$AAs?$AAv?$AA?9?$AAs?$AAe@ 000000018003cd38     libucrt:lcidtoname_downlevel.obj
 0002:0000ad48       ??_C@_1M@MPNDHLFK@?$AAs?$AAw?$AA?9?$AAk?$AAe@ 000000018003cd48     libucrt:lcidtoname_downlevel.obj
 0002:0000ad58       ??_C@_1O@KOHBJJI@?$AAs?$AAy?$AAr?$AA?9?$AAs?$AAy@ 000000018003cd58     libucrt:lcidtoname_downlevel.obj
 0002:0000ad68       ??_C@_1M@LDCEFHA@?$AAt?$AAa?$AA?9?$AAi?$AAn@ 000000018003cd68     libucrt:lcidtoname_downlevel.obj
 0002:0000ad78       ??_C@_1M@CNJOFAK@?$AAt?$AAe?$AA?9?$AAi?$AAn@ 000000018003cd78     libucrt:lcidtoname_downlevel.obj
 0002:0000ad88       ??_C@_1M@GNAECACD@?$AAt?$AAh?$AA?9?$AAt?$AAh@ 000000018003cd88     libucrt:lcidtoname_downlevel.obj
 0002:0000ad98       ??_C@_1M@CHBIHOJO@?$AAt?$AAn?$AA?9?$AAz?$AAa@ 000000018003cd98     libucrt:lcidtoname_downlevel.obj
 0002:0000ada8       ??_C@_1M@GCCMIGPJ@?$AAt?$AAr?$AA?9?$AAt?$AAr@ 000000018003cda8     libucrt:lcidtoname_downlevel.obj
 0002:0000adb8       ??_C@_1M@CELMCNBK@?$AAt?$AAt?$AA?9?$AAr?$AAu@ 000000018003cdb8     libucrt:lcidtoname_downlevel.obj
 0002:0000adc8       ??_C@_1M@KLMCELGA@?$AAu?$AAk?$AA?9?$AAu?$AAa@ 000000018003cdc8     libucrt:lcidtoname_downlevel.obj
 0002:0000add8       ??_C@_1M@EPAJJAJF@?$AAu?$AAr?$AA?9?$AAp?$AAk@ 000000018003cdd8     libucrt:lcidtoname_downlevel.obj
 0002:0000ade8       ??_C@_1BG@GEGPMCDJ@?$AAu?$AAz?$AA?9?$AAu?$AAz?$AA?9?$AAc?$AAy?$AAr?$AAl@ 000000018003cde8     libucrt:lcidtoname_downlevel.obj
 0002:0000ae00       ??_C@_1BG@EGGKJILM@?$AAu?$AAz?$AA?9?$AAu?$AAz?$AA?9?$AAl?$AAa?$AAt?$AAn@ 000000018003ce00     libucrt:lcidtoname_downlevel.obj
 0002:0000ae18       ??_C@_1M@GFOCLFF@?$AAv?$AAi?$AA?9?$AAv?$AAn@ 000000018003ce18     libucrt:lcidtoname_downlevel.obj
 0002:0000ae28       ??_C@_1M@CPAMEDFI@?$AAx?$AAh?$AA?9?$AAz?$AAa@ 000000018003ce28     libucrt:lcidtoname_downlevel.obj
 0002:0000ae38       ??_C@_1O@EBKIFIGN@?$AAz?$AAh?$AA?9?$AAc?$AAh?$AAs@ 000000018003ce38     libucrt:lcidtoname_downlevel.obj
 0002:0000ae48       ??_C@_1O@NMHPGANE@?$AAz?$AAh?$AA?9?$AAc?$AAh?$AAt@ 000000018003ce48     libucrt:lcidtoname_downlevel.obj
 0002:0000ae58       ??_C@_1M@LPINJOMC@?$AAz?$AAh?$AA?9?$AAc?$AAn@ 000000018003ce58     libucrt:lcidtoname_downlevel.obj
 0002:0000ae68       ??_C@_1M@OCJEJODD@?$AAz?$AAh?$AA?9?$AAh?$AAk@ 000000018003ce68     libucrt:lcidtoname_downlevel.obj
 0002:0000ae78       ??_C@_1M@DNDLJINH@?$AAz?$AAh?$AA?9?$AAm?$AAo@ 000000018003ce78     libucrt:lcidtoname_downlevel.obj
 0002:0000ae88       ??_C@_1M@MBFDNDND@?$AAz?$AAh?$AA?9?$AAs?$AAg@ 000000018003ce88     libucrt:lcidtoname_downlevel.obj
 0002:0000ae98       ??_C@_1M@IMEPLEPE@?$AAz?$AAh?$AA?9?$AAt?$AAw@ 000000018003ce98     libucrt:lcidtoname_downlevel.obj
 0002:0000aea8       ??_C@_1M@BBGHNHJP@?$AAz?$AAu?$AA?9?$AAz?$AAa@ 000000018003cea8     libucrt:lcidtoname_downlevel.obj
 0002:0000aeb8       __real@3ff0000000000000    000000018003ceb8     libucrt:ceil.obj
 0002:0000b110       __log10_256_lead           000000018003d110     libucrt:log10_256_lead_tail_table.obj
 0002:0000b920       __log10_256_tail           000000018003d920     libucrt:log10_256_lead_tail_table.obj
 0002:0000c130       __log_F_inv_qword          000000018003e130     libucrt:log_f_inv_qword_table.obj
 0002:0000c940       ??_C@_05HGHHAHAP@log10@    000000018003e940     libucrt:log_special.obj
 0002:0000c948       ??_C@_1BA@BALFACEM@?$AAC?$AAO?$AAN?$AAO?$AAU?$AAT?$AA$@ 000000018003e948     libucrt:initcon.obj
 0002:0000c970       ??_C@_0BI@OEHNMHCG@GetCurrentConsoleFontEx@ 000000018003e970     common-kernel64:WConsole.obj
 0002:0000c988       ??_C@_0BI@PCBACGEE@SetCurrentConsoleFontEx@ 000000018003e988     common-kernel64:WConsole.obj
 0002:0000ca00       _load_config_used          000000018003ea00     LIBCMT:loadcfg.obj
 0002:0000cb30       _tls_used                  000000018003eb30     LIBCMT:tlssup.obj
 0002:0000cb58       ??_R4CPluginW1900@@6B@     000000018003eb58     ConEmuPlugin1900.obj
 0002:0000cb80       ??_R3CPluginW1900@@8       000000018003eb80     ConEmuPlugin1900.obj
 0002:0000cb98       ??_R2CPluginW1900@@8       000000018003eb98     ConEmuPlugin1900.obj
 0002:0000cbb0       ??_R1A@?0A@EA@CPluginW1900@@8 000000018003ebb0     ConEmuPlugin1900.obj
 0002:0000cbd8       ??_R1A@?0A@EA@CPluginBase@@8 000000018003ebd8     ConEmuPlugin1900.obj
 0002:0000cc00       ??_R3CPluginBase@@8        000000018003ec00     ConEmuPlugin1900.obj
 0002:0000cc18       ??_R2CPluginBase@@8        000000018003ec18     ConEmuPlugin1900.obj
 0002:0000cc28       ??_R4exception@std@@6B@    000000018003ec28     ConEmuPlugin2800.obj
 0002:0000cc50       ??_R3exception@std@@8      000000018003ec50     ConEmuPlugin2800.obj
 0002:0000cc68       ??_R2exception@std@@8      000000018003ec68     ConEmuPlugin2800.obj
 0002:0000cc78       ??_R1A@?0A@EA@exception@std@@8 000000018003ec78     ConEmuPlugin2800.obj
 0002:0000cca0       ??_R4bad_alloc@std@@6B@    000000018003eca0     ConEmuPlugin2800.obj
 0002:0000ccc8       ??_R3bad_alloc@std@@8      000000018003ecc8     ConEmuPlugin2800.obj
 0002:0000cce0       ??_R2bad_alloc@std@@8      000000018003ece0     ConEmuPlugin2800.obj
 0002:0000ccf8       ??_R1A@?0A@EA@bad_alloc@std@@8 000000018003ecf8     ConEmuPlugin2800.obj
 0002:0000cd20       ??_R4CPluginW2800@@6B@     000000018003ed20     ConEmuPlugin2800.obj
 0002:0000cd48       ??_R3CPluginW2800@@8       000000018003ed48     ConEmuPlugin2800.obj
 0002:0000cd60       ??_R2CPluginW2800@@8       000000018003ed60     ConEmuPlugin2800.obj
 0002:0000cd78       ??_R1A@?0A@EA@CPluginW2800@@8 000000018003ed78     ConEmuPlugin2800.obj
 0002:0000cda0       ??_R4CPluginW995@@6B@      000000018003eda0     ConEmuPlugin995.obj
 0002:0000cdc8       ??_R3CPluginW995@@8        000000018003edc8     ConEmuPlugin995.obj
 0002:0000cde0       ??_R2CPluginW995@@8        000000018003ede0     ConEmuPlugin995.obj
 0002:0000cdf8       ??_R1A@?0A@EA@CPluginW995@@8 000000018003edf8     ConEmuPlugin995.obj
 0002:0000ce20       ??_R4CPluginAnsi@@6B@      000000018003ee20     ConEmuPluginA.obj
 0002:0000ce48       ??_R3CPluginAnsi@@8        000000018003ee48     ConEmuPluginA.obj
 0002:0000ce60       ??_R2CPluginAnsi@@8        000000018003ee60     ConEmuPluginA.obj
 0002:0000ce78       ??_R1A@?0A@EA@CPluginAnsi@@8 000000018003ee78     ConEmuPluginA.obj
 0002:0000cea0       ??_R4CPluginBase@@6B@      000000018003eea0     ConEmuPluginBase.obj
 0002:0000cec8       ??_R4exception@stdext@@6B@ 000000018003eec8     common-kernel64:CEStr.obj
 0002:0000cef0       ??_R3exception@stdext@@8   000000018003eef0     common-kernel64:CEStr.obj
 0002:0000cf08       ??_R2exception@stdext@@8   000000018003ef08     common-kernel64:CEStr.obj
 0002:0000cf18       ??_R1A@?0A@EA@exception@stdext@@8 000000018003ef18     common-kernel64:CEStr.obj
 0002:0000cf40       ??_R4bad_alloc@stdext@@6B@ 000000018003ef40     common-kernel64:CEStr.obj
 0002:0000cf68       ??_R3bad_alloc@stdext@@8   000000018003ef68     common-kernel64:CEStr.obj
 0002:0000cf80       ??_R2bad_alloc@stdext@@8   000000018003ef80     common-kernel64:CEStr.obj
 0002:0000cf98       ??_R1A@?0A@EA@bad_alloc@stdext@@8 000000018003ef98     common-kernel64:CEStr.obj
 0002:0000cfc0       ??_R4MToolHelpProcess@@6B@ 000000018003efc0     common-kernel64:MProcess.obj
 0002:0000cfe8       ??_R3MToolHelpProcess@@8   000000018003efe8     common-kernel64:MProcess.obj
 0002:0000d000       ??_R2MToolHelpProcess@@8   000000018003f000     common-kernel64:MProcess.obj
 0002:0000d018       ??_R1A@?0A@EA@MToolHelpProcess@@8 000000018003f018     common-kernel64:MProcess.obj
 0002:0000d040       ??_R1A@?0A@EA@?$MToolHelp@UtagPROCESSENTRY32W@@$1?Process32FirstW@@YAHPEAXPEAU1@@Z$1?Process32NextW@@YAH01@Z@@8 000000018003f040     common-kernel64:MProcess.obj
 0002:0000d068       ??_R3?$MToolHelp@UtagPROCESSENTRY32W@@$1?Process32FirstW@@YAHPEAXPEAU1@@Z$1?Process32NextW@@YAH01@Z@@8 000000018003f068     common-kernel64:MProcess.obj
 0002:0000d080       ??_R2?$MToolHelp@UtagPROCESSENTRY32W@@$1?Process32FirstW@@YAHPEAXPEAU1@@Z$1?Process32NextW@@YAH01@Z@@8 000000018003f080     common-kernel64:MProcess.obj
 0002:0000d090       ??_R4?$MToolHelp@UtagPROCESSENTRY32W@@$1?Process32FirstW@@YAHPEAXPEAU1@@Z$1?Process32NextW@@YAH01@Z@@6B@ 000000018003f090     common-kernel64:MProcess.obj
 0002:0000d0b8       ??_R4logic_error@std@@6B@  000000018003f0b8     libcpmt:xthrow.obj
 0002:0000d0e0       ??_R3logic_error@std@@8    000000018003f0e0     libcpmt:xthrow.obj
 0002:0000d0f8       ??_R2logic_error@std@@8    000000018003f0f8     libcpmt:xthrow.obj
 0002:0000d110       ??_R1A@?0A@EA@logic_error@std@@8 000000018003f110     libcpmt:xthrow.obj
 0002:0000d138       ??_R4length_error@std@@6B@ 000000018003f138     libcpmt:xthrow.obj
 0002:0000d160       ??_R3length_error@std@@8   000000018003f160     libcpmt:xthrow.obj
 0002:0000d178       ??_R2length_error@std@@8   000000018003f178     libcpmt:xthrow.obj
 0002:0000d198       ??_R1A@?0A@EA@length_error@std@@8 000000018003f198     libcpmt:xthrow.obj
 0002:0000d1c0       ??_R4type_info@@6B@        000000018003f1c0     LIBCMT:std_type_info_static.obj
 0002:0000d1e8       ??_R3type_info@@8          000000018003f1e8     LIBCMT:std_type_info_static.obj
 0002:0000d200       ??_R2type_info@@8          000000018003f200     LIBCMT:std_type_info_static.obj
 0002:0000d210       ??_R1A@?0A@EA@type_info@@8 000000018003f210     LIBCMT:std_type_info_static.obj
 0002:0000d238       ??_R4bad_exception@std@@6B@ 000000018003f238     libvcruntime:frame.obj
 0002:0000d260       ??_R3bad_exception@std@@8  000000018003f260     libvcruntime:frame.obj
 0002:0000d278       ??_R2bad_exception@std@@8  000000018003f278     libvcruntime:frame.obj
 0002:0000d290       ??_R1A@?0A@EA@bad_exception@std@@8 000000018003f290     libvcruntime:frame.obj
 0002:0000d6a8       __rtc_iaa                  000000018003f6a8     LIBCMT:initsect.obj
 0002:0000d6b0       __rtc_izz                  000000018003f6b0     LIBCMT:initsect.obj
 0002:0000d6b8       __rtc_taa                  000000018003f6b8     LIBCMT:initsect.obj
 0002:0000d6c0       __rtc_tzz                  000000018003f6c0     LIBCMT:initsect.obj
 0002:0000d6c8       _tls_start                 000000018003f6c8     LIBCMT:tlssup.obj
 0002:0000d6cc       _Init_thread_epoch         000000018003f6cc     LIBCMT:thread_safe_statics.obj
 0002:0000d6d0       _tls_end                   000000018003f6d0     LIBCMT:tlssup.obj
 0002:0000fc40       _CT??_R0?AVbad_alloc@std@@@8??0bad_alloc@std@@QEAA@AEBV01@@Z24 0000000180041c40     ConEmuPlugin2800.obj
 0002:0000fc68       _CT??_R0?AVexception@std@@@8??0exception@std@@QEAA@AEBV01@@Z24 0000000180041c68     ConEmuPlugin2800.obj
 0002:0000fc90       _TI2?AVbad_alloc@std@@     0000000180041c90     ConEmuPlugin2800.obj
 0002:0000fcb0       _CTA2?AVbad_alloc@std@@    0000000180041cb0     ConEmuPlugin2800.obj
 0002:0000fcc8       _TI2?AVbad_alloc@stdext@@  0000000180041cc8     common-kernel64:CEStr.obj
 0002:0000fce8       _CTA2?AVbad_alloc@stdext@@ 0000000180041ce8     common-kernel64:CEStr.obj
 0002:0000fd00       _CT??_R0?AVbad_alloc@stdext@@@8??0bad_alloc@stdext@@QEAA@AEBV01@@Z16 0000000180041d00     common-kernel64:CEStr.obj
 0002:0000fd28       _CT??_R0?AVexception@stdext@@@8??0exception@stdext@@QEAA@AEBV01@@Z16 0000000180041d28     common-kernel64:CEStr.obj
 0002:0000fd50       _CT??_R0?AVlogic_error@std@@@8??0logic_error@std@@QEAA@AEBV01@@Z24 0000000180041d50     libcpmt:xthrow.obj
 0002:0000fd78       _TI3?AVlength_error@std@@  0000000180041d78     libcpmt:xthrow.obj
 0002:0000fd98       _CTA3?AVlength_error@std@@ 0000000180041d98     libcpmt:xthrow.obj
 0002:0000fdb8       _CT??_R0?AVlength_error@std@@@8??0length_error@std@@QEAA@AEBV01@@Z24 0000000180041db8     libcpmt:xthrow.obj
 0002:0000fde0       _TI2?AVbad_exception@std@@ 0000000180041de0     libvcruntime:frame.obj
 0002:0000fe00       _CTA2?AVbad_exception@std@@ 0000000180041e00     libvcruntime:frame.obj
 0002:0000fe18       _CT??_R0?AVbad_exception@std@@@8??0bad_exception@std@@QEAA@AEBV01@@Z24 0000000180041e18     libvcruntime:frame.obj
 0002:00010124       __IMPORT_DESCRIPTOR_VERSION 0000000180042124     version:VERSION.dll
 0002:00010138       __IMPORT_DESCRIPTOR_KERNEL32 0000000180042138     kernel32:KERNEL32.dll
 0002:0001014c       __IMPORT_DESCRIPTOR_USER32 000000018004214c     user32:USER32.dll
 0002:00010160       __IMPORT_DESCRIPTOR_GDI32  0000000180042160     gdi32:GDI32.dll
 0002:00010174       __IMPORT_DESCRIPTOR_ADVAPI32 0000000180042174     advapi32:ADVAPI32.dll
 0002:00010188       __NULL_IMPORT_DESCRIPTOR   0000000180042188     version:VERSION.dll
 0003:00000000       ?Far3Func@@3PAUExportFunc@@A 0000000180044000     ConEmuPlugin.obj
 0003:00000080       ?StdPalette@?1??GetStdPalette@Far3Color@@SAPEBKXZ@4PAKA 0000000180044080     ConEmuPlugin1900.obj
 0003:000000c0       ?guid_ConEmu@@3U_GUID@@A   00000001800440c0     ConEmuPlugin2800.obj
 0003:000000d0       ?guid_ConEmuPluginItems@@3U_GUID@@A 00000001800440d0     ConEmuPlugin2800.obj
 0003:000000e0       ?guid_ConEmuPluginMenu@@3U_GUID@@A 00000001800440e0     ConEmuPlugin2800.obj
 0003:000000f0       ?guid_ConEmuGuiMacroDlg@@3U_GUID@@A 00000001800440f0     ConEmuPlugin2800.obj
 0003:00000100       ?guid_ConEmuWaitEndSynchro@@3U_GUID@@A 0000000180044100     ConEmuPlugin2800.obj
 0003:00000110       ?guid_ConEmuMsg@@3U_GUID@@A 0000000180044110     ConEmuPlugin2800.obj
 0003:00000120       ?guid_ConEmuInput@@3U_GUID@@A 0000000180044120     ConEmuPlugin2800.obj
 0003:00000130       ?guid_ConEmuMenu@@3U_GUID@@A 0000000180044130     ConEmuPlugin2800.obj
 0003:00000180       ?gFarMode@@3UHookModeFar@@A 0000000180044180     ConEmuPluginBase.obj
 0003:000001b0       ?gnPluginOpenFrom@@3HA     00000001800441b0     ConEmuPluginBase.obj
 0003:000001b4       ?gnReqCommand@@3KA         00000001800441b4     ConEmuPluginBase.obj
 0003:000001b8       ?lastModifiedStateW@@3HA   00000001800441b8     ConEmuPluginBase.obj
 0003:000001c0       ?gpPluginMenu@@3PAUPluginAndMenuCommands@@A 00000001800441c0     ConEmuPluginBase.obj
 0003:00000280       ?gsInternalCommands@@3PEB_WEB 0000000180044280     common-kernel64:CmdLine.obj
 0003:00000288       ?g_TerminatedThreadIdx@@3JA 0000000180044288     common-kernel64:WThreads.obj
 0003:00000290       __security_cookie_complement 0000000180044290     LIBCMT:gs_cookie.obj
 0003:00000298       __security_cookie          0000000180044298     LIBCMT:gs_cookie.obj
 0003:000002a0       _Init_global_epoch         00000001800442a0     LIBCMT:thread_safe_statics.obj
 0003:000002a4       __scrt_native_dllmain_reason 00000001800442a4     LIBCMT:utility.obj
 0003:000002a8       __isa_available            00000001800442a8     LIBCMT:cpu_disp.obj
 0003:000002ac       __isa_enabled              00000001800442ac     LIBCMT:cpu_disp.obj
 0003:000002b0       __memcpy_nt_iters          00000001800442b0     LIBCMT:cpu_disp.obj
 0003:000002b8       __memset_nt_iters          00000001800442b8     LIBCMT:cpu_disp.obj
 0003:000002d8       __abort_behavior           00000001800442d8     libucrt:abort.obj
 0003:000002f0       _iob                       00000001800442f0     libucrt:_file.obj
 0003:00000400       __acrt_initial_locale_data 0000000180044400     libucrt:nlsdata.obj
 0003:00000558       __acrt_initial_locale_pointers 0000000180044558     libucrt:nlsdata.obj
 0003:00000568       __acrt_wide_c_locale_string 0000000180044568     libucrt:nlsdata.obj
 0003:00000570       _pwctype                   0000000180044570     libucrt:ctype.obj
 0003:00000580       __acrt_initial_multibyte_data 0000000180044580     libucrt:mbctype.obj
 0003:00000ac0       __globallocalestatus       0000000180044ac0     libucrt:glstatus.obj
 0003:00000ad0       __acrt_lconv_c             0000000180044ad0     libucrt:localeconv.obj
 0003:00000b68       __acrt_lconv_static_decimal 0000000180044b68     libucrt:localeconv.obj
 0003:00000b6c       __acrt_lconv_static_W_decimal 0000000180044b6c     libucrt:localeconv.obj
 0003:00000b70       _lookuptrailbytes          0000000180044b70     libucrt:read.obj
 0003:00000c84       _fltused                   0000000180044c84     LIBCMT:fltused.obj
 0003:00000c90       ??_R0?AVCPluginW1900@@@8   0000000180044c90     ConEmuPlugin1900.obj
 0003:00000cb8       ??_R0?AVCPluginBase@@@8    0000000180044cb8     ConEmuPlugin1900.obj
 0003:00000ce0       ??_R0?AVbad_alloc@std@@@8  0000000180044ce0     ConEmuPlugin2800.obj
 0003:00000d08       ??_R0?AVexception@std@@@8  0000000180044d08     ConEmuPlugin2800.obj
 0003:00000d30       ??_R0?AVCPluginW2800@@@8   0000000180044d30     ConEmuPlugin2800.obj
 0003:00000d58       ??_R0?AVCPluginW995@@@8    0000000180044d58     ConEmuPlugin995.obj
 0003:00000d80       ??_R0?AVCPluginAnsi@@@8    0000000180044d80     ConEmuPluginA.obj
 0003:00000da8       ??_R0?AVbad_alloc@stdext@@@8 0000000180044da8     common-kernel64:CEStr.obj
 0003:00000dd0       ??_R0?AVexception@stdext@@@8 0000000180044dd0     common-kernel64:CEStr.obj
 0003:00000df8       ??_R0?AVMToolHelpProcess@@@8 0000000180044df8     common-kernel64:MProcess.obj
 0003:00000e20       ??_R0?AV?$MToolHelp@UtagPROCESSENTRY32W@@$1?Process32FirstW@@YAHPEAXPEAU1@@Z$1?Process32NextW@@YAH01@Z@@@8 0000000180044e20     common-kernel64:MProcess.obj
 0003:00000e98       ??_R0?AVlogic_error@std@@@8 0000000180044e98     libcpmt:xthrow.obj
 0003:00000ec0       ??_R0?AVlength_error@std@@@8 0000000180044ec0     libcpmt:xthrow.obj
 0003:00000ee8       ??_R0?AVtype_info@@@8      0000000180044ee8     LIBCMT:std_type_info_static.obj
 0003:00000f08       ??_R0?AVbad_exception@std@@@8 0000000180044f08     libvcruntime:frame.obj
 0003:00000f30       ?ghExtConModule@@3PEAUHINSTANCE__@@EA 0000000180044f30     ConEmuInjects.obj
 0003:00000f38       ?ghHooksModule@@3PEAUHINSTANCE__@@EA 0000000180044f38     ConEmuInjects.obj
 0003:00000f40       ?gbHooksModuleLoaded@@3HA  0000000180044f40     ConEmuInjects.obj
 0003:00000f48       ?SetHookCallbacks@@3P6A_NPEBDPEB_WPEAUHINSTANCE__@@P6AHPEAUHookCallbackArg@@@Z44@ZEA 0000000180044f48     ConEmuInjects.obj
 0003:00000f50       ?SetLoadLibraryCallback@@3P6AXPEAUHINSTANCE__@@P6AX0@Z1@ZEA 0000000180044f50     ConEmuInjects.obj
 0003:00000f58       ?SetFarHookMode@@3P6AXPEAUHookModeFar@@@ZEA 0000000180044f58     ConEmuInjects.obj
 0003:00000f60       ?SetConsoleCallbacks@@3P6A_NPEAUHINSTANCE__@@KPEAP6AHPEAUHookCallbackArg@@@Z@ZEA 0000000180044f60     ConEmuInjects.obj
 0003:00000f68       ?_OptionsStorage@?1??__local_stdio_printf_options@@9@4_KA 0000000180044f68     ConEmuInjects.obj
 0003:00000f70       ?InfoW1900@@3PEAUPluginStartupInfo@@EA 0000000180044f70     ConEmuPlugin1900.obj
 0003:00000f78       ?FSFW1900@@3PEAUFarStandardFunctions@@EA 0000000180044f78     ConEmuPlugin1900.obj
 0003:00000f80       ?LastColor@?1??Color2FgIndex@Far3Color@@SAXKAEAGPEBK@Z@4KA 0000000180044f80     ConEmuPlugin1900.obj
 0003:00000f84       ?LastIndex@?1??Color2FgIndex@Far3Color@@SAXKAEAGPEBK@Z@4HA 0000000180044f84     ConEmuPlugin1900.obj
 0003:00000f88       ?LastColor@?1??Color2BgIndex@Far3Color@@SAXKHAEAGPEBK@Z@4KA 0000000180044f88     ConEmuPlugin1900.obj
 0003:00000f8c       ?LastIndex@?1??Color2BgIndex@Far3Color@@SAXKHAEAGPEBK@Z@4HA 0000000180044f8c     ConEmuPlugin1900.obj
 0003:00001248       ?InfoW2800@@3PEAUPluginStartupInfo@@EA 0000000180045248     ConEmuPlugin2800.obj
 0003:00001250       ?FSFW2800@@3PEAUFarStandardFunctions@@EA 0000000180045250     ConEmuPlugin2800.obj
 0003:00001518       ?InfoW995@@3PEAUPluginStartupInfo@@EA 0000000180045518     ConEmuPlugin995.obj
 0003:00001520       ?FSFW995@@3PEAUFarStandardFunctions@@EA 0000000180045520     ConEmuPlugin995.obj
 0003:00001780       ?InfoA@@3PEAUPluginStartupInfo@@EA 0000000180045780     ConEmuPluginA.obj
 0003:00001788       ?FSFA@@3PEAUFarStandardFunctions@@EA 0000000180045788     ConEmuPluginA.obj
 0003:00001aa0       ?gLastMouseReadEvent@@3U_MOUSE_EVENT_RECORD@@A 0000000180045aa0     ConEmuPluginBase.obj
 0003:00001ab0       ?gnDummyMouseEventFromMacro@@3JA 0000000180045ab0     ConEmuPluginBase.obj
 0003:00001ab4       ?gbUngetDummyMouseEvent@@3HA 0000000180045ab4     ConEmuPluginBase.obj
 0003:00001ab8       ?gpPlugin@@3PEAVCPluginBase@@EA 0000000180045ab8     ConEmuPluginBase.obj
 0003:00001ac0       ?gbWasDetached@@3HA        0000000180045ac0     ConEmuPluginBase.obj
 0003:00001ac4       ?gbFarWndVisible@@3HA      0000000180045ac4     ConEmuPluginBase.obj
 0003:00001ac8       ?gsbiDetached@@3U_CONSOLE_SCREEN_BUFFER_INFO@@A 0000000180045ac8     ConEmuPluginBase.obj
 0003:00001ade       ?gbExitFarCalled@@3_NA     0000000180045ade     ConEmuPluginBase.obj
 0003:00001adf       ?gbSynchroProhibited@@3_NA 0000000180045adf     ConEmuPluginBase.obj
 0003:00001ae0       ?gnPeekReadCount@@3KA      0000000180045ae0     ConEmuPluginBase.obj
 0003:00001ae4       ?gnInLongOperation@@3JA    0000000180045ae4     ConEmuPluginBase.obj
 0003:00001ae8       ?gdwPreDetachGuiPID@@3KA   0000000180045ae8     ConEmuPluginBase.obj
 0003:00001aec       ?gdwServerPID@@3KA         0000000180045aec     ConEmuPluginBase.obj
 0003:00001af0       ?gnMainThreadIdInitial@@3KA 0000000180045af0     ConEmuPluginBase.obj
 0003:00001af4       ?gnMonitorThreadId@@3KA    0000000180045af4     ConEmuPluginBase.obj
 0003:00001af8       ?ghMonitorThread@@3PEAXEA  0000000180045af8     ConEmuPluginBase.obj
 0003:00001b00       ?ghSetWndSendTabsEvent@@3PEAXEA 0000000180045b00     ConEmuPluginBase.obj
 0003:00001b08       ?gbRequestUpdateTabs@@3HA  0000000180045b08     ConEmuPluginBase.obj
 0003:00001b0c       ?gbClosingModalViewerEditor@@3HA 0000000180045b0c     ConEmuPluginBase.obj
 0003:00001b10       ?gnAllowDummyMouseEvent@@3JA 0000000180045b10     ConEmuPluginBase.obj
 0003:00001b14       ?gnDataSize@@3KA           0000000180045b14     ConEmuPluginBase.obj
 0003:00001b18       ?csData@@3PEAVMSection@@EA 0000000180045b18     ConEmuPluginBase.obj
 0003:00001b20       ?gpData@@3PEAEEA           0000000180045b20     ConEmuPluginBase.obj
 0003:00001b28       ?gpCursor@@3PEAEEA         0000000180045b28     ConEmuPluginBase.obj
 0003:00001b30       ?gpReqCommandData@@3PEAXEA 0000000180045b30     ConEmuPluginBase.obj
 0003:00001b38       ?ghReqCommandEvent@@3PEAXEA 0000000180045b38     ConEmuPluginBase.obj
 0003:00001b40       ?gbReqCommandWaiting@@3HA  0000000180045b40     ConEmuPluginBase.obj
 0003:00001b44       ?gnMsgTabChanged@@3IA      0000000180045b44     ConEmuPluginBase.obj
 0003:00001b48       ?csTabs@@3PEAVMSection@@EA 0000000180045b48     ConEmuPluginBase.obj
 0003:00001b50       ?gbPlugKeyChanged@@3HA     0000000180045b50     ConEmuPluginBase.obj
 0003:00001b54       ?gbNeedPostTabSend@@3HA    0000000180045b54     ConEmuPluginBase.obj
 0003:00001b58       ?ghRegMonitorKey@@3PEAUHKEY__@@EA 0000000180045b58     ConEmuPluginBase.obj
 0003:00001b60       ?ghRegMonitorEvt@@3PEAXEA  0000000180045b60     ConEmuPluginBase.obj
 0003:00001b68       ?ghPluginSemaphore@@3PEAXEA 0000000180045b68     ConEmuPluginBase.obj
 0003:00001b70       ?gsFarLang@@3PA_WA         0000000180045b70     ConEmuPluginBase.obj
 0003:00001bf0       ?gbNeedPostEditCheck@@3HA  0000000180045bf0     ConEmuPluginBase.obj
 0003:00001bf4       ?gbNeedPostReloadFarInfo@@3HA 0000000180045bf4     ConEmuPluginBase.obj
 0003:00001bf8       ?gbNeedReloadFarDir@@3HA   0000000180045bf8     ConEmuPluginBase.obj
 0003:00001bfc       ?gnNeedPostTabSendTick@@3KA 0000000180045bfc     ConEmuPluginBase.obj
 0003:00001c00       ?gpConMap@@3PEAV?$MFileMapping@UCESERVER_CONSOLE_MAPPING_HDR@@@@EA 0000000180045c00     ConEmuPluginBase.obj
 0003:00001c08       ?gbStartedUnderConsole2@@3HA 0000000180045c08     ConEmuPluginBase.obj
 0003:00001c0c       ?gnSelfPID@@3KA            0000000180045c0c     ConEmuPluginBase.obj
 0003:00001c10       ?ghFarInfoMapping@@3PEAXEA 0000000180045c10     ConEmuPluginBase.obj
 0003:00001c18       ?gpFarInfo@@3PEAUCEFAR_INFO_MAPPING@@EA 0000000180045c18     ConEmuPluginBase.obj
 0003:00001c20       ?gpFarInfoMapping@@3PEAUCEFAR_INFO_MAPPING@@EA 0000000180045c20     ConEmuPluginBase.obj
 0003:00001c28       ?ghFarAliveEvent@@3PEAXEA  0000000180045c28     ConEmuPluginBase.obj
 0003:00001c30       ?ghConEmuCtrlPressed@@3PEAXEA 0000000180045c30     ConEmuPluginBase.obj
 0003:00001c38       ?ghConEmuShiftPressed@@3PEAXEA 0000000180045c38     ConEmuPluginBase.obj
 0003:00001c40       ?gbWaitConsoleInputEmpty@@3HA 0000000180045c40     ConEmuPluginBase.obj
 0003:00001c44       ?gbWaitConsoleWrite@@3HA   0000000180045c44     ConEmuPluginBase.obj
 0003:00001c48       ?ghConsoleInputEmpty@@3PEAXEA 0000000180045c48     ConEmuPluginBase.obj
 0003:00001c50       ?ghConsoleWrite@@3PEAXEA   0000000180045c50     ConEmuPluginBase.obj
 0003:00001c58       ?gbInputSynchroPending@@3_NA 0000000180045c58     ConEmuPluginBase.obj
 0003:00001c59       ?gb_DllUniqueWarned@CPluginBase@@1_NA 0000000180045c59     ConEmuPluginBase.obj
 0003:00001c5a       ?gb_DllUniqueChecked@CPluginBase@@1_NA 0000000180045c5a     ConEmuPluginBase.obj
 0003:00001c5b       ?gb_ProtocolWarned@CPluginBase@@1_NA 0000000180045c5b     ConEmuPluginBase.obj
 0003:00001c5c       ?gnMainThreadId@@3KA       0000000180045c5c     ConEmuPluginBase.obj
 0003:00001c60       ?ghPluginModule@@3PEAUHINSTANCE__@@EA 0000000180045c60     ConEmuPluginBase.obj
 0003:00001c68       ?maxTabCount@@3HA          0000000180045c68     ConEmuPluginBase.obj
 0003:00001c6c       ?lastWindowCount@@3HA      0000000180045c6c     ConEmuPluginBase.obj
 0003:00001c70       ?gszDir1@@3PA_WA           0000000180045c70     ConEmuPluginBase.obj
 0003:00002470       ?gszDir2@@3PA_WA           0000000180046470     ConEmuPluginBase.obj
 0003:00002c70       ?gnCurTabCount@@3HA        0000000180046c70     ConEmuPluginBase.obj
 0003:00002c74       ?gbIgnoreUpdateTabs@@3HA   0000000180046c74     ConEmuPluginBase.obj
 0003:00002c78       ?gpCmdRet@@3PEAUCESERVER_REQ@@EA 0000000180046c78     ConEmuPluginBase.obj
 0003:00002c80       ?ghConEmuWndDC@@3PEAUHWND__@@EA 0000000180046c80     ConEmuPluginBase.obj
 0003:00002c88       ?FarHwnd@@3PEAUHWND__@@EA  0000000180046c88     ConEmuPluginBase.obj
 0003:00002c90       ?gFarVersion@@3UFarVersion@@A 0000000180046c90     ConEmuPluginBase.obj
 0003:00002c9c       ?gbForceSendTabs@@3HA      0000000180046c9c     ConEmuPluginBase.obj
 0003:00002ca0       ?gpConMapInfo@@3PEBUCESERVER_CONSOLE_MAPPING_HDR@@EB 0000000180046ca0     ConEmuPluginBase.obj
 0003:00002ca8       ?gpTabs@@3PEAUCESERVER_REQ@@EA 0000000180046ca8     ConEmuPluginBase.obj
 0003:00002cb0       ?gnCurrentWindowType@@3HA  0000000180046cb0     ConEmuPluginBase.obj
 0003:00002cb4       ?gnSynchroCount@@3HA       0000000180046cb4     ConEmuPluginBase.obj
 0003:00002cb8       ?gPanelRegLeft@@3UPanelViewRegInfo@@A 0000000180046cb8     ConEmuPluginBase.obj
 0003:00002ce8       ?gPanelRegRight@@3UPanelViewRegInfo@@A 0000000180046ce8     ConEmuPluginBase.obj
 0003:00002d18       ?TerminalMode@@3HA         0000000180046d18     ConEmuPluginBase.obj
 0003:00002d38       ?csbi@@3U_CONSOLE_SCREEN_BUFFER_INFO@@A 0000000180046d38     LogBrowser.obj
 0003:00002d4e       ?gbShowAttrsOnly@@3_NA     0000000180046d4e     LogBrowser.obj
 0003:00002d50       ?gnPage@@3HA               0000000180046d50     LogBrowser.obj
 0003:00002d58       ?gbBgPluginsAllowed@@3HA   0000000180046d58     PluginBackground.obj
 0003:00002d5c       ?gbNeedBgActivate@@3HA     0000000180046d5c     PluginBackground.obj
 0003:00002d60       ?gpBgPlugin@@3PEAVCPluginBackground@@EA 0000000180046d60     PluginBackground.obj
 0003:00002d70       ?gszPluginServerPipe@@3PA_WA 0000000180046d70     PluginSrv.obj
 0003:00002f78       ?gpPlugServer@@3PEAU?$PipeServer@UCESERVER_REQ@@@@EA 0000000180046f78     PluginSrv.obj
 0003:00002f80       ?gbForcedServerTermination@@3_NA 0000000180046f80     PluginSrv.obj
 0003:00002f88       ?ghServerTerminateEvent@@3PEAXEA 0000000180046f88     PluginSrv.obj
 0003:00002f90       ?g_LastDeletePtr@@3PEAXEA  0000000180046f90     common-kernel64:Memory.obj
 0003:00002fa8       ?gpLocalSecurity@@3PEAU_SECURITY_ATTRIBUTES@@EA 0000000180046fa8     common-kernel64:ConEmuCheck.obj
 0003:00002fb0       ?ghWorkingModule@@3UHANDLE2@@A 0000000180046fb0     common-kernel64:ConEmuCheck.obj
 0003:00002fb8       ?gfGetRealConsoleWindow@@3P6APEAUHWND__@@XZEA 0000000180046fb8     common-kernel64:ConEmuCheck.obj
 0003:00003000       ?g_ThreadsIdx@@3JA         0000000180047000     common-kernel64:WThreads.obj
 0003:0000b818       ?gbInCommonShutdown@@3HA   000000018004f818     common-kernel64:Common.obj
 0003:0000b820       ?gNullDesc@@3PEAVMNullDesc@@EA 000000018004f820     common-kernel64:MSecurity.obj
 0003:0000b828       ?gfnSearchAppPaths@@3P6A_NPEB_WAEAUCEStr@@_NPEAVCEnvRestorer@@@ZEA 000000018004f828     common-kernel64:WObjects.obj
 0003:0000b844       ?hkFunc@@3UHkFunc@@A       000000018004f844     common-kernel64:HkFunc.obj
 0003:0000b880       ?gsMapHelper@@3UConsoleSectionHelper@@A 000000018004f880     common-user64:WConsoleEx.obj
 0003:0000b890       _tls_index                 000000018004f890     LIBCMT:tlssup.obj
 0003:0000b8e8       __scrt_current_native_startup_state 000000018004f8e8     LIBCMT:utility.obj
 0003:0000b8f0       __scrt_native_startup_lock 000000018004f8f0     LIBCMT:utility.obj
 0003:0000bea0       __scrt_debugger_hook_flag  000000018004fea0     LIBCMT:utility_desktop.obj
 0003:0000beb0       ?__type_info_root_node@@3U__type_info_node@@A 000000018004feb0     LIBCMT:tncleanup.obj
 0003:0000bec0       ?_OptionsStorage@?1??__local_stdio_scanf_options@@9@4_KA 000000018004fec0     LIBCMT:default_local_stdio_options.obj
 0003:0000bec8       __favor                    000000018004fec8     LIBCMT:cpu_disp.obj
 0003:0000bed0       ?__WinRTOutOfMemoryExceptionCallback@@3P6APEAXXZEA 000000018004fed0     libvcruntime:ehhelpers.obj
 0003:0000bf60       __pPurecall                000000018004ff60     libvcruntime:purevirt_data.obj
 0003:0000bf98       ?pArgList@UnDecorator@@0PEAVReplicator@@EA 000000018004ff98     libvcruntime:undname.obj
 0003:0000bfa0       ?pZNameList@UnDecorator@@0PEAVReplicator@@EA 000000018004ffa0     libvcruntime:undname.obj
 0003:0000bfa8       ?pTemplateArgList@UnDecorator@@0PEAVReplicator@@EA 000000018004ffa8     libvcruntime:undname.obj
 0003:0000bfb0       ?gName@UnDecorator@@0PEBDEB 000000018004ffb0     libvcruntime:undname.obj
 0003:0000bfb8       ?name@UnDecorator@@0PEBDEB 000000018004ffb8     libvcruntime:undname.obj
 0003:0000bfc0       ?disableFlags@UnDecorator@@0KA 000000018004ffc0     libvcruntime:undname.obj
 0003:0000bfc4       ?fExplicitTemplateParams@UnDecorator@@0_NA 000000018004ffc4     libvcruntime:undname.obj
 0003:0000bfc5       ?fGetTemplateArgumentList@UnDecorator@@0_NA 000000018004ffc5     libvcruntime:undname.obj
 0003:0000bfc8       ?m_pGetParameter@UnDecorator@@0P6APEADJ@ZEA 000000018004ffc8     libvcruntime:undname.obj
 0003:0000bfd0       ?m_CHPENameOffset@UnDecorator@@0KA 000000018004ffd0     libvcruntime:undname.obj
 0003:0000bfd4       ?m_recursionLevel@UnDecorator@@0KA 000000018004ffd4     libvcruntime:undname.obj
 0003:0000c058       ?c_exit_complete@?1???R<lambda_6e4b09c48022b2350581041d5f6b0c4c>@@QEBA@XZ@4_NA 0000000180050058     libucrt:exit.obj
 0003:0000c168       _environ_table             0000000180050168     libucrt:environment_initialization.obj
 0003:0000c170       _wenviron_table            0000000180050170     libucrt:environment_initialization.obj
 0003:0000c178       __dcrt_initial_wide_environment 0000000180050178     libucrt:environment_initialization.obj
 0003:0000c180       __dcrt_initial_narrow_environment 0000000180050180     libucrt:environment_initialization.obj
 0003:0000c188       __acrt_atexit_table        0000000180050188     libucrt:onexit.obj
 0003:0000c1a0       __acrt_at_quick_exit_table 00000001800501a0     libucrt:onexit.obj
 0003:0000c1c0       _nstream                   00000001800501c0     libucrt:_file.obj
 0003:0000c1c8       __piob                     00000001800501c8     libucrt:_file.obj
 0003:0000c1d8       __acrt_stdout_buffer       00000001800501d8     libucrt:_sftbuf.obj
 0003:0000c1e0       __acrt_stderr_buffer       00000001800501e0     libucrt:_sftbuf.obj
 0003:0000c1e8       __acrt_locale_changed_data 00000001800501e8     libucrt:wsetlocale.obj
 0003:0000c1f0       __acrt_current_locale_data 00000001800501f0     libucrt:nlsdata.obj
 0003:0000c200       __pioinfo                  0000000180050200     libucrt:ioinit.obj
 0003:0000c600       _nhandle                   0000000180050600     libucrt:ioinit.obj
 0003:0000c848       _mbctype                   0000000180050848     libucrt:mbctype.obj
 0003:0000c850       _mbcasemap                 0000000180050850     libucrt:mbctype.obj
 0003:0000c858       __acrt_current_multibyte_data 0000000180050858     libucrt:mbctype.obj
 0003:0000c868       _pgmptr                    0000000180050868     libucrt:argv_data.obj
 0003:0000c870       __argc                     0000000180050870     libucrt:argv_data.obj
 0003:0000c878       __argv                     0000000180050878     libucrt:argv_data.obj
 0003:0000c880       __wargv                    0000000180050880     libucrt:argv_data.obj
 0003:0000c888       _acmdln                    0000000180050888     libucrt:argv_data.obj
 0003:0000c890       _wcmdln                    0000000180050890     libucrt:argv_data.obj
 0003:0000ca50       __acrt_heap                0000000180050a50     libucrt:heap_handle.obj
 0003:0000ca8c       __acrt_lconv_static_null   0000000180050a8c     libucrt:localeconv.obj
 0003:0000ca90       __acrt_lconv_static_W_null 0000000180050a90     libucrt:localeconv.obj
 0003:0000caa4       __fma3_is_available        0000000180050aa4     libucrt:fma3_available.obj
 0003:0000caa8       __use_fma3_lib             0000000180050aa8     libucrt:fma3_available.obj
 0003:0000cab0       ?g_LastSetConsoleFont@@3UMY_CONSOLE_FONT_INFOEX@@A 0000000180050ab0     common-kernel64:WConsole.obj
 0003:0000cb24       __scrt_ucrt_dll_is_in_use  0000000180050b24     <common>
 0003:0000cb28       __dyn_tls_init_callback    0000000180050b28     <common>

 entry point at        0001:0001c3d8

 Static symbols

 0000:fffa9000       .debug$S                   0000000180000000     ConEmu.x64.exp
 0000:fffa9000       .debug$S                   0000000180000000     advapi32:ADVAPI32.dll
 0000:fffa9000       .debug$S                   0000000180000000     advapi32:ADVAPI32.dll
 0000:fffa9000       .debug$S                   0000000180000000     advapi32:ADVAPI32.dll
 0000:fffa9000       .debug$S                   0000000180000000     advapi32:ADVAPI32.dll
 0000:fffa9000       .debug$S                   0000000180000000     advapi32:ADVAPI32.dll
 0000:fffa9000       .debug$S                   0000000180000000     advapi32:ADVAPI32.dll
 0000:fffa9000       .debug$S                   0000000180000000     advapi32:ADVAPI32.dll
 0000:fffa9000       .debug$S                   0000000180000000     advapi32:ADVAPI32.dll
 0000:fffa9000       .debug$S                   0000000180000000     advapi32:ADVAPI32.dll
 0000:fffa9000       .debug$S                   0000000180000000     advapi32:ADVAPI32.dll
 0000:fffa9000       .debug$S                   0000000180000000     advapi32:ADVAPI32.dll
 0000:fffa9000       .debug$S                   0000000180000000     gdi32:GDI32.dll
 0000:fffa9000       .debug$S                   0000000180000000     gdi32:GDI32.dll
 0000:fffa9000       .debug$S                   0000000180000000     gdi32:GDI32.dll
 0000:fffa9000       .debug$S                   0000000180000000     gdi32:GDI32.dll
 0000:fffa9000       .debug$S                   0000000180000000     gdi32:GDI32.dll
 0000:fffa9000       .debug$S                   0000000180000000     gdi32:GDI32.dll
 0000:fffa9000       .debug$S                   0000000180000000     gdi32:GDI32.dll
 0000:fffa9000       .debug$S                   0000000180000000     gdi32:GDI32.dll
 0000:fffa9000       .debug$S                   0000000180000000     gdi32:GDI32.dll
 0000:fffa9000       .debug$S                   0000000180000000     gdi32:GDI32.dll
 0000:fffa9000       .debug$S                   0000000180000000     gdi32:GDI32.dll
 0000:fffa9000       .debug$S                   0000000180000000     gdi32:GDI32.dll
 0000:fffa9000       .debug$S                   0000000180000000     gdi32:GDI32.dll
 0000:fffa9000       .debug$S                   0000000180000000     kernel32:KERNEL32.dll
 0000:fffa9000       .debug$S                   0000000180000000     kernel32:KERNEL32.dll
 0000:fffa9000       .debug$S                   0000000180000000     kernel32:KERNEL32.dll
 0000:fffa9000       .debug$S                   0000000180000000     kernel32:KERNEL32.dll
 0000:fffa9000       .debug$S                   0000000180000000     kernel32:KERNEL32.dll
 0000:fffa9000       .debug$S                   0000000180000000     kernel32:KERNEL32.dll
 0000:fffa9000       .debug$S                   0000000180000000     kernel32:KERNEL32.dll
 0000:fffa9000       .debug$S                   0000000180000000     kernel32:KERNEL32.dll
 0000:fffa9000       .debug$S                   0000000180000000     kernel32:KERNEL32.dll
 0000:fffa9000       .debug$S                   0000000180000000     kernel32:KERNEL32.dll
 0000:fffa9000       .debug$S                   0000000180000000     kernel32:KERNEL32.dll
 0000:fffa9000       .debug$S                   0000000180000000     kernel32:KERNEL32.dll
 0000:fffa9000       .debug$S                   0000000180000000     kernel32:KERNEL32.dll
 0000:fffa9000       .debug$S                   0000000180000000     kernel32:KERNEL32.dll
 0000:fffa9000       .debug$S                   0000000180000000     kernel32:KERNEL32.dll
 0000:fffa9000       .debug$S                   0000000180000000     kernel32:KERNEL32.dll
 0000:fffa9000       .debug$S                   0000000180000000     kernel32:KERNEL32.dll
 0000:fffa9000       .debug$S                   0000000180000000     kernel32:KERNEL32.dll
 0000:fffa9000       .debug$S                   0000000180000000     kernel32:KERNEL32.dll
 0000:fffa9000       .debug$S                   0000000180000000     kernel32:KERNEL32.dll
 0000:fffa9000       .debug$S                   0000000180000000     kernel32:KERNEL32.dll
 0000:fffa9000       .debug$S                   0000000180000000     kernel32:KERNEL32.dll
 0000:fffa9000       .debug$S                   0000000180000000     kernel32:KERNEL32.dll
 0000:fffa9000       .debug$S                   0000000180000000     kernel32:KERNEL32.dll
 0000:fffa9000       .debug$S                   0000000180000000     kernel32:KERNEL32.dll
 0000:fffa9000       .debug$S                   0000000180000000     kernel32:KERNEL32.dll
 0000:fffa9000       .debug$S                   0000000180000000     kernel32:KERNEL32.dll
 0000:fffa9000       .debug$S                   0000000180000000     kernel32:KERNEL32.dll
 0000:fffa9000       .debug$S                   0000000180000000     kernel32:KERNEL32.dll
 0000:fffa9000       .debug$S                   0000000180000000     kernel32:KERNEL32.dll
 0000:fffa9000       .debug$S                   0000000180000000     kernel32:KERNEL32.dll
 0000:fffa9000       .debug$S                   0000000180000000     kernel32:KERNEL32.dll
 0000:fffa9000       .debug$S                   0000000180000000     kernel32:KERNEL32.dll
 0000:fffa9000       .debug$S                   0000000180000000     kernel32:KERNEL32.dll
 0000:fffa9000       .debug$S                   0000000180000000     kernel32:KERNEL32.dll
 0000:fffa9000       .debug$S                   0000000180000000     kernel32:KERNEL32.dll
 0000:fffa9000       .debug$S                   0000000180000000     kernel32:KERNEL32.dll
 0000:fffa9000       .debug$S                   0000000180000000     kernel32:KERNEL32.dll
 0000:fffa9000       .debug$S                   0000000180000000     kernel32:KERNEL32.dll
 0000:fffa9000       .debug$S                   0000000180000000     kernel32:KERNEL32.dll
 0000:fffa9000       .debug$S                   0000000180000000     kernel32:KERNEL32.dll
 0000:fffa9000       .debug$S                   0000000180000000     kernel32:KERNEL32.dll
 0000:fffa9000       .debug$S                   0000000180000000     kernel32:KERNEL32.dll
 0000:fffa9000       .debug$S                   0000000180000000     kernel32:KERNEL32.dll
 0000:fffa9000       .debug$S                   0000000180000000     kernel32:KERNEL32.dll
 0000:fffa9000       .debug$S                   0000000180000000     kernel32:KERNEL32.dll
 0000:fffa9000       .debug$S                   0000000180000000     kernel32:KERNEL32.dll
 0000:fffa9000       .debug$S                   0000000180000000     kernel32:KERNEL32.dll
 0000:fffa9000       .debug$S                   0000000180000000     kernel32:KERNEL32.dll
 0000:fffa9000       .debug$S                   0000000180000000     kernel32:KERNEL32.dll
 0000:fffa9000       .debug$S                   0000000180000000     kernel32:KERNEL32.dll
 0000:fffa9000       .debug$S                   0000000180000000     kernel32:KERNEL32.dll
 0000:fffa9000       .debug$S                   0000000180000000     kernel32:KERNEL32.dll
 0000:fffa9000       .debug$S                   0000000180000000     kernel32:KERNEL32.dll
 0000:fffa9000       .debug$S                   0000000180000000     kernel32:KERNEL32.dll
 0000:fffa9000       .debug$S                   0000000180000000     kernel32:KERNEL32.dll
 0000:fffa9000       .debug$S                   0000000180000000     kernel32:KERNEL32.dll
 0000:fffa9000       .debug$S                   0000000180000000     kernel32:KERNEL32.dll
 0000:fffa9000       .debug$S                   0000000180000000     kernel32:KERNEL32.dll
 0000:fffa9000       .debug$S                   0000000180000000     kernel32:KERNEL32.dll
 0000:fffa9000       .debug$S                   0000000180000000     kernel32:KERNEL32.dll
 0000:fffa9000       .debug$S                   0000000180000000     kernel32:KERNEL32.dll
 0000:fffa9000       .debug$S                   0000000180000000     kernel32:KERNEL32.dll
 0000:fffa9000       .debug$S                   0000000180000000     kernel32:KERNEL32.dll
 0000:fffa9000       .debug$S                   0000000180000000     kernel32:KERNEL32.dll
 0000:fffa9000       .debug$S                   0000000180000000     kernel32:KERNEL32.dll
 0000:fffa9000       .debug$S                   0000000180000000     kernel32:KERNEL32.dll
 0000:fffa9000       .debug$S                   0000000180000000     kernel32:KERNEL32.dll
 0000:fffa9000       .debug$S                   0000000180000000     kernel32:KERNEL32.dll
 0000:fffa9000       .debug$S                   0000000180000000     kernel32:KERNEL32.dll
 0000:fffa9000       .debug$S                   0000000180000000     kernel32:KERNEL32.dll
 0000:fffa9000       .debug$S                   0000000180000000     kernel32:KERNEL32.dll
 0000:fffa9000       .debug$S                   0000000180000000     kernel32:KERNEL32.dll
 0000:fffa9000       .debug$S                   0000000180000000     kernel32:KERNEL32.dll
 0000:fffa9000       .debug$S                   0000000180000000     kernel32:KERNEL32.dll
 0000:fffa9000       .debug$S                   0000000180000000     kernel32:KERNEL32.dll
 0000:fffa9000       .debug$S                   0000000180000000     kernel32:KERNEL32.dll
 0000:fffa9000       .debug$S                   0000000180000000     kernel32:KERNEL32.dll
 0000:fffa9000       .debug$S                   0000000180000000     kernel32:KERNEL32.dll
 0000:fffa9000       .debug$S                   0000000180000000     kernel32:KERNEL32.dll
 0000:fffa9000       .debug$S                   0000000180000000     kernel32:KERNEL32.dll
 0000:fffa9000       .debug$S                   0000000180000000     kernel32:KERNEL32.dll
 0000:fffa9000       .debug$S                   0000000180000000     kernel32:KERNEL32.dll
 0000:fffa9000       .debug$S                   0000000180000000     kernel32:KERNEL32.dll
 0000:fffa9000       .debug$S                   0000000180000000     kernel32:KERNEL32.dll
 0000:fffa9000       .debug$S                   0000000180000000     kernel32:KERNEL32.dll
 0000:fffa9000       .debug$S                   0000000180000000     kernel32:KERNEL32.dll
 0000:fffa9000       .debug$S                   0000000180000000     kernel32:KERNEL32.dll
 0000:fffa9000       .debug$S                   0000000180000000     kernel32:KERNEL32.dll
 0000:fffa9000       .debug$S                   0000000180000000     kernel32:KERNEL32.dll
 0000:fffa9000       .debug$S                   0000000180000000     kernel32:KERNEL32.dll
 0000:fffa9000       .debug$S                   0000000180000000     kernel32:KERNEL32.dll
 0000:fffa9000       .debug$S                   0000000180000000     kernel32:KERNEL32.dll
 0000:fffa9000       .debug$S                   0000000180000000     kernel32:KERNEL32.dll
 0000:fffa9000       .debug$S                   0000000180000000     kernel32:KERNEL32.dll
 0000:fffa9000       .debug$S                   0000000180000000     kernel32:KERNEL32.dll
 0000:fffa9000       .debug$S                   0000000180000000     kernel32:KERNEL32.dll
 0000:fffa9000       .debug$S                   0000000180000000     kernel32:KERNEL32.dll
 0000:fffa9000       .debug$S                   0000000180000000     kernel32:KERNEL32.dll
 0000:fffa9000       .debug$S                   0000000180000000     kernel32:KERNEL32.dll
 0000:fffa9000       .debug$S                   0000000180000000     kernel32:KERNEL32.dll
 0000:fffa9000       .debug$S                   0000000180000000     kernel32:KERNEL32.dll
 0000:fffa9000       .debug$S                   0000000180000000     kernel32:KERNEL32.dll
 0000:fffa9000       .debug$S                   0000000180000000     kernel32:KERNEL32.dll
 0000:fffa9000       .debug$S                   0000000180000000     kernel32:KERNEL32.dll
 0000:fffa9000       .debug$S                   0000000180000000     kernel32:KERNEL32.dll
 0000:fffa9000       .debug$S                   0000000180000000     kernel32:KERNEL32.dll
 0000:fffa9000       .debug$S                   0000000180000000     kernel32:KERNEL32.dll
 0000:fffa9000       .debug$S                   0000000180000000     kernel32:KERNEL32.dll
 0000:fffa9000       .debug$S                   0000000180000000     kernel32:KERNEL32.dll
 0000:fffa9000       .debug$S                   0000000180000000     kernel32:KERNEL32.dll
 0000:fffa9000       .debug$S                   0000000180000000     kernel32:KERNEL32.dll
 0000:fffa9000       .debug$S                   0000000180000000     kernel32:KERNEL32.dll
 0000:fffa9000       .debug$S                   0000000180000000     kernel32:KERNEL32.dll
 0000:fffa9000       .debug$S                   0000000180000000     kernel32:KERNEL32.dll
 0000:fffa9000       .debug$S                   0000000180000000     kernel32:KERNEL32.dll
 0000:fffa9000       .debug$S                   0000000180000000     kernel32:KERNEL32.dll
 0000:fffa9000       .debug$S                   0000000180000000     kernel32:KERNEL32.dll
 0000:fffa9000       .debug$S                   0000000180000000     kernel32:KERNEL32.dll
 0000:fffa9000       .debug$S                   0000000180000000     kernel32:KERNEL32.dll
 0000:fffa9000       .debug$S                   0000000180000000     kernel32:KERNEL32.dll
 0000:fffa9000       .debug$S                   0000000180000000     kernel32:KERNEL32.dll
 0000:fffa9000       .debug$S                   0000000180000000     kernel32:KERNEL32.dll
 0000:fffa9000       .debug$S                   0000000180000000     kernel32:KERNEL32.dll
 0000:fffa9000       .debug$S                   0000000180000000     kernel32:KERNEL32.dll
 0000:fffa9000       .debug$S                   0000000180000000     kernel32:KERNEL32.dll
 0000:fffa9000       .debug$S                   0000000180000000     kernel32:KERNEL32.dll
 0000:fffa9000       .debug$S                   0000000180000000     kernel32:KERNEL32.dll
 0000:fffa9000       .debug$S                   0000000180000000     kernel32:KERNEL32.dll
 0000:fffa9000       .debug$S                   0000000180000000     kernel32:KERNEL32.dll
 0000:fffa9000       .debug$S                   0000000180000000     kernel32:KERNEL32.dll
 0000:fffa9000       .debug$S                   0000000180000000     kernel32:KERNEL32.dll
 0000:fffa9000       .debug$S                   0000000180000000     kernel32:KERNEL32.dll
 0000:fffa9000       .debug$S                   0000000180000000     kernel32:KERNEL32.dll
 0000:fffa9000       .debug$S                   0000000180000000     kernel32:KERNEL32.dll
 0000:fffa9000       .debug$S                   0000000180000000     kernel32:KERNEL32.dll
 0000:fffa9000       .debug$S                   0000000180000000     kernel32:KERNEL32.dll
 0000:fffa9000       .debug$S                   0000000180000000     kernel32:KERNEL32.dll
 0000:fffa9000       .debug$S                   0000000180000000     kernel32:KERNEL32.dll
 0000:fffa9000       .debug$S                   0000000180000000     kernel32:KERNEL32.dll
 0000:fffa9000       .debug$S                   0000000180000000     kernel32:KERNEL32.dll
 0000:fffa9000       .debug$S                   0000000180000000     kernel32:KERNEL32.dll
 0000:fffa9000       .debug$S                   0000000180000000     kernel32:KERNEL32.dll
 0000:fffa9000       .debug$S                   0000000180000000     kernel32:KERNEL32.dll
 0000:fffa9000       .debug$S                   0000000180000000     kernel32:KERNEL32.dll
 0000:fffa9000       .debug$S                   0000000180000000     kernel32:KERNEL32.dll
 0000:fffa9000       .debug$S                   0000000180000000     kernel32:KERNEL32.dll
 0000:fffa9000       .debug$S                   0000000180000000     kernel32:KERNEL32.dll
 0000:fffa9000       .debug$S                   0000000180000000     kernel32:KERNEL32.dll
 0000:fffa9000       .debug$S                   0000000180000000     kernel32:KERNEL32.dll
 0000:fffa9000       .debug$S                   0000000180000000     kernel32:KERNEL32.dll
 0000:fffa9000       .debug$S                   0000000180000000     kernel32:KERNEL32.dll
 0000:fffa9000       .debug$S                   0000000180000000     kernel32:KERNEL32.dll
 0000:fffa9000       .debug$S                   0000000180000000     kernel32:KERNEL32.dll
 0000:fffa9000       .debug$S                   0000000180000000     kernel32:KERNEL32.dll
 0000:fffa9000       .debug$S                   0000000180000000     kernel32:KERNEL32.dll
 0000:fffa9000       .debug$S                   0000000180000000     kernel32:KERNEL32.dll
 0000:fffa9000       .debug$S                   0000000180000000     kernel32:KERNEL32.dll
 0000:fffa9000       .debug$S                   0000000180000000     kernel32:KERNEL32.dll
 0000:fffa9000       .debug$S                   0000000180000000     kernel32:KERNEL32.dll
 0000:fffa9000       .debug$S                   0000000180000000     kernel32:KERNEL32.dll
 0000:fffa9000       .debug$S                   0000000180000000     kernel32:KERNEL32.dll
 0000:fffa9000       .debug$S                   0000000180000000     kernel32:KERNEL32.dll
 0000:fffa9000       .debug$S                   0000000180000000     kernel32:KERNEL32.dll
 0000:fffa9000       .debug$S                   0000000180000000     kernel32:KERNEL32.dll
 0000:fffa9000       .debug$S                   0000000180000000     kernel32:KERNEL32.dll
 0000:fffa9000       .debug$S                   0000000180000000     kernel32:KERNEL32.dll
 0000:fffa9000       .debug$S                   0000000180000000     kernel32:KERNEL32.dll
 0000:fffa9000       .debug$S                   0000000180000000     kernel32:KERNEL32.dll
 0000:fffa9000       .debug$S                   0000000180000000     kernel32:KERNEL32.dll
 0000:fffa9000       .debug$S                   0000000180000000     kernel32:KERNEL32.dll
 0000:fffa9000       .debug$S                   0000000180000000     kernel32:KERNEL32.dll
 0000:fffa9000       .debug$S                   0000000180000000     kernel32:KERNEL32.dll
 0000:fffa9000       .debug$S                   0000000180000000     kernel32:KERNEL32.dll
 0000:fffa9000       .debug$S                   0000000180000000     kernel32:KERNEL32.dll
 0000:fffa9000       .debug$S                   0000000180000000     kernel32:KERNEL32.dll
 0000:fffa9000       .debug$S                   0000000180000000     kernel32:KERNEL32.dll
 0000:fffa9000       .debug$S                   0000000180000000     kernel32:KERNEL32.dll
 0000:fffa9000       .debug$S                   0000000180000000     kernel32:KERNEL32.dll
 0000:fffa9000       .debug$S                   0000000180000000     kernel32:KERNEL32.dll
 0000:fffa9000       .debug$S                   0000000180000000     kernel32:KERNEL32.dll
 0000:fffa9000       .debug$S                   0000000180000000     kernel32:KERNEL32.dll
 0000:fffa9000       .debug$S                   0000000180000000     kernel32:KERNEL32.dll
 0000:fffa9000       .debug$S                   0000000180000000     kernel32:KERNEL32.dll
 0000:fffa9000       .debug$S                   0000000180000000     kernel32:KERNEL32.dll
 0000:fffa9000       .debug$S                   0000000180000000     shell32:SHELL32.dll
 0002:fffce000       .idata$6                   0000000180000000     shell32:SHELL32.dll
 0000:fffa9000       .debug$S                   0000000180000000     user32:USER32.dll
 0000:fffa9000       .debug$S                   0000000180000000     user32:USER32.dll
 0000:fffa9000       .debug$S                   0000000180000000     user32:USER32.dll
 0000:fffa9000       .debug$S                   0000000180000000     user32:USER32.dll
 0000:fffa9000       .debug$S                   0000000180000000     user32:USER32.dll
 0000:fffa9000       .debug$S                   0000000180000000     user32:USER32.dll
 0000:fffa9000       .debug$S                   0000000180000000     user32:USER32.dll
 0000:fffa9000       .debug$S                   0000000180000000     user32:USER32.dll
 0000:fffa9000       .debug$S                   0000000180000000     user32:USER32.dll
 0000:fffa9000       .debug$S                   0000000180000000     user32:USER32.dll
 0000:fffa9000       .debug$S                   0000000180000000     user32:USER32.dll
 0000:fffa9000       .debug$S                   0000000180000000     user32:USER32.dll
 0000:fffa9000       .debug$S                   0000000180000000     user32:USER32.dll
 0000:fffa9000       .debug$S                   0000000180000000     user32:USER32.dll
 0000:fffa9000       .debug$S                   0000000180000000     user32:USER32.dll
 0000:fffa9000       .debug$S                   0000000180000000     user32:USER32.dll
 0000:fffa9000       .debug$S                   0000000180000000     user32:USER32.dll
 0000:fffa9000       .debug$S                   0000000180000000     user32:USER32.dll
 0000:fffa9000       .debug$S                   0000000180000000     user32:USER32.dll
 0000:fffa9000       .debug$S                   0000000180000000     user32:USER32.dll
 0000:fffa9000       .debug$S                   0000000180000000     user32:USER32.dll
 0000:fffa9000       .debug$S                   0000000180000000     user32:USER32.dll
 0000:fffa9000       .debug$S                   0000000180000000     user32:USER32.dll
 0000:fffa9000       .debug$S                   0000000180000000     user32:USER32.dll
 0000:fffa9000       .debug$S                   0000000180000000     user32:USER32.dll
 0000:fffa9000       .debug$S                   0000000180000000     user32:USER32.dll
 0000:fffa9000       .debug$S                   0000000180000000     user32:USER32.dll
 0000:fffa9000       .debug$S                   0000000180000000     user32:USER32.dll
 0000:fffa9000       .debug$S                   0000000180000000     user32:USER32.dll
 0000:fffa9000       .debug$S                   0000000180000000     user32:USER32.dll
 0000:fffa9000       .debug$S                   0000000180000000     user32:USER32.dll
 0000:fffa9000       .debug$S                   0000000180000000     user32:USER32.dll
 0000:fffa9000       .debug$S                   0000000180000000     user32:USER32.dll
 0000:fffa9000       .debug$S                   0000000180000000     user32:USER32.dll
 0000:fffa9000       .debug$S                   0000000180000000     user32:USER32.dll
 0000:fffa9000       .debug$S                   0000000180000000     user32:USER32.dll
 0000:fffa9000       .debug$S                   0000000180000000     user32:USER32.dll
 0000:fffa9000       .debug$S                   0000000180000000     user32:USER32.dll
 0000:fffa9000       .debug$S                   0000000180000000     user32:USER32.dll
 0000:fffa9000       .debug$S                   0000000180000000     user32:USER32.dll
 0000:fffa9000       .debug$S                   0000000180000000     user32:USER32.dll
 0000:fffa9000       .debug$S                   0000000180000000     version:VERSION.dll
 0000:fffa9000       .debug$S                   0000000180000000     version:VERSION.dll
 0000:fffa9000       .debug$S                   0000000180000000     version:VERSION.dll
 0001:00000000       ??__EgsMapHelper@@YAXXZ    0000000180001000 f   common-user64:WConsoleEx.obj
 0001:000012d4       ?CallGuiMacroDlg@@YA_JPEAXHH0@Z 00000001800022d4 f   ConEmuPlugin1900.obj
 0001:000014dc       ?CallGuiMacroProc@@YAXXZ   00000001800024dc f   ConEmuPlugin1900.obj
 0001:00001cbc       ?GetFarSetting@@YAHPEAX_KPEB_W@Z 0000000180002cbc f   ConEmuPlugin1900.obj
 0001:00003dc8       ?CallGuiMacroDlg@@YA_JPEAX_J10@Z 0000000180004dc8 f   ConEmuPlugin2800.obj
 0001:00003fdc       ?CallGuiMacroProc@@YAXXZ   0000000180004fdc f   ConEmuPlugin2800.obj
 0001:0000440c       ?FreeMacroResult@@YAXPEAXPEAUFarMacroValue@@_K@Z 000000018000540c f   ConEmuPlugin2800.obj
 0001:0000458c       ?GetFarSetting@@YAHPEAX_KPEB_W@Z 000000018000558c f   ConEmuPlugin2800.obj
 0001:00006360       ?WExists@@YA_JAEBUWindowInfo@@AEBV?$MArray@UWindowInfo@@@@@Z 0000000180007360 f   ConEmuPlugin2800.obj
 0001:000063c4       ?WLoadWindows@@YA_JAEAV?$MArray@UWindowInfo@@@@H@Z 00000001800073c4 f   ConEmuPlugin2800.obj
 0001:00006d9c       ?CallGuiMacroDlg@@YA_JPEAXHH_J@Z 0000000180007d9c f   ConEmuPlugin995.obj
 0001:00006f84       ?CallGuiMacroProc@@YAXXZ   0000000180007f84 f   ConEmuPlugin995.obj
 0001:00008888       ?CallGuiMacroDlg@@YA_JPEAXHH_J@Z 0000000180009888 f   ConEmuPluginA.obj
 0001:00008b00       ?CallGuiMacroProc@@YAXXZ   0000000180009b00 f   ConEmuPluginA.obj
 0001:0000c7f8       ?LoadFarVersion@@YA_NAEAUFarVersion@@AEAY0CAA@_W@Z 000000018000d7f8 f   ConEmuPluginBase.obj
 0001:0000c9a8       ?LoadModuleVersion@@YA_NPEB_WAEAUtagVS_FIXEDFILEINFO@@PEA_W_K@Z 000000018000d9a8 f   ConEmuPluginBase.obj
 0001:00018d18       initialize_environment     0000000180019d18 f i libucrt:initialization.obj
 0001:00018d18       initialize_global_state_isolation 0000000180019d18 f i libucrt:initialization.obj
 0001:00018d18       report_memory_leaks        0000000180019d18 f i libucrt:initialization.obj
 0001:00018d18       uninitialize_c             0000000180019d18 f i libucrt:initialization.obj
 0001:00018d18       uninitialize_global_state_isolation 0000000180019d18 f i libucrt:initialization.obj
 0001:0001bd00       $$000000                   000000018001cd00     LIBCMT:amdsecgs.obj
 0001:0001bd40       $$000000                   000000018001cd40     LIBCMT:chkstk.obj
 0001:0001be50       ?__scrt_initialize_thread_safe_statics@@YAHXZ 000000018001ce50 f   LIBCMT:thread_safe_statics.obj
 0001:0001bf20       ?__scrt_uninitialize_thread_safe_statics@@YAXXZ 000000018001cf20 f   LIBCMT:thread_safe_statics.obj
 0001:0001c0b8       ?dllmain_crt_dispatch@@YAHQEAUHINSTANCE__@@KQEAX@Z 000000018001d0b8 f   LIBCMT:dll_dllmain.obj
 0001:0001c108       ?dllmain_crt_process_attach@@YAHQEAUHINSTANCE__@@QEAX@Z 000000018001d108 f   LIBCMT:dll_dllmain.obj
 0001:0001c220       ?dllmain_crt_process_detach@@YAH_N@Z 000000018001d220 f   LIBCMT:dll_dllmain.obj
 0001:0001c2a4       ?dllmain_dispatch@@YAHQEAUHINSTANCE__@@KQEAX@Z 000000018001d2a4 f   LIBCMT:dll_dllmain.obj
 0001:0001c950       capture_current_context    000000018001d950 f   LIBCMT:gs_report.obj
 0001:0001c9c0       capture_previous_context   000000018001d9c0 f   LIBCMT:gs_report.obj
 0001:0001d670       $$000000                   000000018001e670     libvcruntime:memcpy.obj
 0001:0001dd10       $$000000                   000000018001ed10     libvcruntime:memset.obj
 0001:0001e250       $$000000                   000000018001f250     libvcruntime:memcmp.obj
 0001:0001ea64       ??$BuildCatchObjectHelperInternal@V__FrameHandler4@@@@YAHPEAUEHExceptionRecord@@PEAXPEAUHandlerType4@FH4@@PEBU_s_CatchableType@@@Z 000000018001fa64 f   libvcruntime:frame.obj
 0001:0001ec68       ??$BuildCatchObjectInternal@V__FrameHandler4@@@@YAXPEAUEHExceptionRecord@@PEAXPEAUHandlerType4@FH4@@PEBU_s_CatchableType@@@Z 000000018001fc68 f   libvcruntime:frame.obj
 0001:0001ed2c       ??$CatchIt@V__FrameHandler4@@@@YAXPEAUEHExceptionRecord@@PEA_KPEAU_CONTEXT@@PEAU_xDISPATCHER_CONTEXT@@PEAUFuncInfo4@FH4@@PEAUHandlerType4@4@PEBU_s_CatchableType@@PEAUTryBlockMapEntry4@4@H1EE@Z 000000018001fd2c f   libvcruntime:frame.obj
 0001:0001ee00       ??$FindHandler@V__FrameHandler4@@@@YAXPEAUEHExceptionRecord@@PEA_KPEAU_CONTEXT@@PEAU_xDISPATCHER_CONTEXT@@PEAUFuncInfo4@FH4@@EH1@Z 000000018001fe00 f   libvcruntime:frame.obj
 0001:0001f32c       ??$FindHandlerForForeignException@V__FrameHandler4@@@@YAXPEAUEHExceptionRecord@@PEA_KPEAU_CONTEXT@@PEAU_xDISPATCHER_CONTEXT@@PEAUFuncInfo4@FH4@@HH1@Z 000000018002032c f   libvcruntime:frame.obj
 0001:000200d4       ?ExFilterRethrow@@YAHPEAU_EXCEPTION_POINTERS@@PEAUEHExceptionRecord@@PEAH@Z 00000001800210d4 f   libvcruntime:frame.obj
 0001:0002015c       ?ExFilterRethrowFH4@@YAHPEAU_EXCEPTION_POINTERS@@PEAUEHExceptionRecord@@HPEAH@Z 000000018002115c f   libvcruntime:frame.obj
 0001:00020474       ?IsInExceptionSpec@@YAEPEAUEHExceptionRecord@@PEBU_s_ESTypeList@@@Z 0000000180021474 f   libvcruntime:frame.obj
 0001:00020564       ?Is_bad_exception_allowed@@YAEPEBU_s_ESTypeList@@@Z 0000000180021564 f   libvcruntime:frame.obj
 0001:00020840       $$000000                   0000000180021840     libvcruntime:notify.obj
 0001:00020928       ?try_get_function@@YAPEAXW4function_id@?A0xdafaeb0c@@QEBDQEBW4module_id@2@2@Z 0000000180021928 f   libvcruntime:winapi_downlevel.obj
 0001:00020c10       $$000000                   0000000180021c10     libvcruntime:handlers.obj
 0001:00020d18       ??$common_vsprintf@Vstandard_base@__crt_stdio_output@@D@@YAH_KQEAD0QEBDQEAU__crt_locale_pointers@@1@Z 0000000180021d18 f   libucrt:output.obj
 0001:00020ee4       ??$common_vsprintf@Vstandard_base@__crt_stdio_output@@_W@@YAH_KQEA_W0QEB_WQEAU__crt_locale_pointers@@QEAD@Z 0000000180021ee4 f   libucrt:output.obj
 0001:000245a8       ??$?RV<lambda_d80eeec6fff315bfe5c115232f3240e3>@@AEAV<lambda_6e4b09c48022b2350581041d5f6b0c4c>@@V<lambda_2358e3775559c9db80273638284d5e45>@@@?$__crt_seh_guarded_call@X@@QEAAX$$QEAV<lambda_d80eeec6fff315bfe5c115232f3240e3>@@AEAV<lambda_6e4b09c48022b2350581041d5f6b0c4c>@@$$QEAV<lambda_2358e3775559c9db80273638284d5e45>@@@Z 00000001800255a8 f   libucrt:exit.obj
 0001:000245e0       ??R<lambda_6e4b09c48022b2350581041d5f6b0c4c>@@QEBA@XZ 00000001800255e0 f   libucrt:exit.obj
 0001:000246a4       ?atexit_exception_filter@@YAHK@Z 00000001800256a4 f   libucrt:exit.obj
 0001:000246b0       ?common_exit@@YAXHW4_crt_exit_cleanup_mode@@W4_crt_exit_return_mode@@@Z 00000001800256b0 f   libucrt:exit.obj
 0001:0002476c       ?exit_or_terminate_process@@YAXI@Z 000000018002576c f   libucrt:exit.obj
 0001:000247b8       ?try_cor_exit_process@@YAXI@Z 00000001800257b8 f   libucrt:exit.obj
 0001:00024840       ??$parse_command_line@D@@YAXPEADPEAPEAD0PEA_K2@Z 0000000180025840 f   libucrt:argv_parsing.obj
 0001:00024bec       ??$common_initialize_environment_nolock@D@@YAHXZ 0000000180025bec f   libucrt:environment_initialization.obj
 0001:00024c58       ??$create_environment@D@@YAQEAPEADQEAD@Z 0000000180025c58 f   libucrt:environment_initialization.obj
 0001:00024d60       ??$free_environment@D@@YAXQEAPEAD@Z 0000000180025d60 f   libucrt:environment_initialization.obj
 0001:00024d60       ??$free_environment@_W@@YAXQEAPEA_W@Z 0000000180025d60 f   libucrt:environment_initialization.obj
 0001:00024da4       ??$uninitialize_environment_internal@D@@YAXAEAPEAPEAD@Z 0000000180025da4 f   libucrt:environment_initialization.obj
 0001:00024dc0       ??$uninitialize_environment_internal@_W@@YAXAEAPEAPEA_W@Z 0000000180025dc0 f   libucrt:environment_initialization.obj
 0001:00024e1c       ??$?RV<lambda_638799b9deba96c50f710eeac98168cd>@@AEAV<lambda_22ebabd17bc4fa466a2aca6d8deb888d>@@V<lambda_a6f7d7db0129f75315ebf26d50c089f1>@@@?$__crt_seh_guarded_call@H@@QEAAH$$QEAV<lambda_638799b9deba96c50f710eeac98168cd>@@AEAV<lambda_22ebabd17bc4fa466a2aca6d8deb888d>@@$$QEAV<lambda_a6f7d7db0129f75315ebf26d50c089f1>@@@Z 0000000180025e1c f   libucrt:onexit.obj
 0001:00024e58       ??$?RV<lambda_7777bce6b2f8c936911f934f8298dc43>@@AEAV<lambda_f03950bc5685219e0bcd2087efbe011e>@@V<lambda_3883c3dff614d5e0c5f61bb1ac94921c>@@@?$__crt_seh_guarded_call@H@@QEAAH$$QEAV<lambda_7777bce6b2f8c936911f934f8298dc43>@@AEAV<lambda_f03950bc5685219e0bcd2087efbe011e>@@$$QEAV<lambda_3883c3dff614d5e0c5f61bb1ac94921c>@@@Z 0000000180025e58 f   libucrt:onexit.obj
 0001:00024e94       ??R<lambda_22ebabd17bc4fa466a2aca6d8deb888d>@@QEBAHXZ 0000000180025e94 f   libucrt:onexit.obj
 0001:00025044       ??R<lambda_f03950bc5685219e0bcd2087efbe011e>@@QEBAHXZ 0000000180026044 f   libucrt:onexit.obj
 0001:00025218       initialize_global_variables 0000000180026218 f   libucrt:initialization.obj
 0001:0002522c       initialize_c               000000018002622c f   libucrt:initialization.obj
 0001:00025250       uninitialize_environment   0000000180026250 f   libucrt:initialization.obj
 0001:00025260       initialize_pointers        0000000180026260 f   libucrt:initialization.obj
 0001:000252a0       uninitialize_vcruntime     00000001800262a0 f   libucrt:initialization.obj
 0001:000252a8       uninitialize_allocated_memory 00000001800262a8 f   libucrt:initialization.obj
 0001:000252e8       uninitialize_allocated_io_buffers 00000001800262e8 f   libucrt:initialization.obj
 0001:000254c0       $$000000                   00000001800264c0     libucrt:strncmp.obj
 0001:00025c50       ??$?RV<lambda_0ae27a3a962d80f24befdcbee591983d>@@AEAV<lambda_8d0ee55de4b1038c4002e0adecdf1839>@@V<lambda_dc504788e8f1664fe9b84e20bfb512f2>@@@?$__crt_seh_guarded_call@X@@QEAAX$$QEAV<lambda_0ae27a3a962d80f24befdcbee591983d>@@AEAV<lambda_8d0ee55de4b1038c4002e0adecdf1839>@@$$QEAV<lambda_dc504788e8f1664fe9b84e20bfb512f2>@@@Z 0000000180026c50 f   libucrt:per_thread_data.obj
 0001:00025c90       ??$?RV<lambda_2d41944a1d46af3157314b8a01080d33>@@AEAV<lambda_8f455de75cd7d7f24b4096f044d8b9e6>@@V<lambda_aa500f224e6afead328df44964fe2772>@@@?$__crt_seh_guarded_call@X@@QEAAX$$QEAV<lambda_2d41944a1d46af3157314b8a01080d33>@@AEAV<lambda_8f455de75cd7d7f24b4096f044d8b9e6>@@$$QEAV<lambda_aa500f224e6afead328df44964fe2772>@@@Z 0000000180026c90 f   libucrt:per_thread_data.obj
 0001:00025cd0       ??$?RV<lambda_aa87e3671a710a21b5dc78c0bdf72e11>@@AEAV<lambda_92619d2358a28f41a33ba319515a20b9>@@V<lambda_6992ecaafeb10aed2b74cb1fae11a551>@@@?$__crt_seh_guarded_call@X@@QEAAX$$QEAV<lambda_aa87e3671a710a21b5dc78c0bdf72e11>@@AEAV<lambda_92619d2358a28f41a33ba319515a20b9>@@$$QEAV<lambda_6992ecaafeb10aed2b74cb1fae11a551>@@@Z 0000000180026cd0 f   libucrt:per_thread_data.obj
 0001:00025d18       ??$?RV<lambda_f2e299630e499de9f9a165e60fcd3db5>@@AEAV<lambda_2ae9d31cdba2644fcbeaf08da7c24588>@@V<lambda_40d01ff24d0e7b3814fdbdcee8eab3c7>@@@?$__crt_seh_guarded_call@X@@QEAAX$$QEAV<lambda_f2e299630e499de9f9a165e60fcd3db5>@@AEAV<lambda_2ae9d31cdba2644fcbeaf08da7c24588>@@$$QEAV<lambda_40d01ff24d0e7b3814fdbdcee8eab3c7>@@@Z 0000000180026d18 f   libucrt:per_thread_data.obj
 0001:00025d78       ?construct_ptd_array@@YAXQEAU__acrt_ptd@@@Z 0000000180026d78 f   libucrt:per_thread_data.obj
 0001:00025e48       ?destroy_fls@@YAXPEAX@Z    0000000180026e48 f   libucrt:per_thread_data.obj
 0001:00025e68       ?destroy_ptd_array@@YAXQEAU__acrt_ptd@@@Z 0000000180026e68 f   libucrt:per_thread_data.obj
 0001:00025f60       ?replace_current_thread_locale_nolock@@YAXQEAU__acrt_ptd@@QEAU__crt_locale_data@@@Z 0000000180026f60 f   libucrt:per_thread_data.obj
 0001:0002631c       ?fp_format_a@@YAHQEBNPEAD_KQEAD2H_NIQEAU__crt_locale_pointers@@@Z 000000018002731c f   libucrt:cvt.obj
 0001:0002668c       ?fp_format_e@@YAHQEBNQEAD_K12H_NIQEAU__crt_locale_pointers@@@Z 000000018002768c f   libucrt:cvt.obj
 0001:00026768       ?fp_format_e_internal@@YAHQEAD_KH_NIQEAU_strflt@@2QEAU__crt_locale_pointers@@@Z 0000000180027768 f   libucrt:cvt.obj
 0001:0002693c       ?fp_format_f_internal@@YAHQEAD_KHQEAU_strflt@@_NQEAU__crt_locale_pointers@@@Z 000000018002793c f   libucrt:cvt.obj
 0001:00026a80       ?fp_format_g@@YAHQEBNQEAD_K12H_NIQEAU__crt_locale_pointers@@@Z 0000000180027a80 f   libucrt:cvt.obj
 0001:0002708c       ??$?RV<lambda_410d79af7f07d98d83a3f525b3859a53>@@AEAV<lambda_3e16ef9562a7dcce91392c22ab16ea36>@@V<lambda_38119f0e861e05405d8a144b9b982f0a>@@@?$__crt_seh_guarded_call@X@@QEAAX$$QEAV<lambda_410d79af7f07d98d83a3f525b3859a53>@@AEAV<lambda_3e16ef9562a7dcce91392c22ab16ea36>@@$$QEAV<lambda_38119f0e861e05405d8a144b9b982f0a>@@@Z 000000018002808c f   libucrt:wsetlocale.obj
 0001:00027138       ?initialize_inherited_file_handles_nolock@@YAXXZ 0000000180028138 f   libucrt:ioinit.obj
 0001:00027228       ?initialize_stdio_handles_nolock@@YAXXZ 0000000180028228 f   libucrt:ioinit.obj
 0001:000276c4       ?<lambda_invoker_cdecl>@<lambda_a1ce4c8ae42411fd470c77163914f50e>@@CAHPEBX0@Z 00000001800286c4 f   libucrt:argv_wildcards.obj
 0001:000279dc       ??$common_expand_argv_wildcards@D@@YAHQEAPEADQEAPEAPEAD@Z 00000001800289dc f   libucrt:argv_wildcards.obj
 0001:00027be8       ??$copy_and_add_argument_to_buffer@D@@YAHQEBD0_KAEAV?$argument_list@D@?A0x5f5c8891@@@Z 0000000180028be8 f   libucrt:argv_wildcards.obj
 0001:00027d70       ??$expand_argument_wildcards@D@@YAHQEAD0AEAV?$argument_list@D@?A0x5f5c8891@@@Z 0000000180028d70 f   libucrt:argv_wildcards.obj
 0001:000282bc       ??$?RV<lambda_efdfa57d1f175319df784efa44bb7b81>@@AEAV<lambda_5f0a4c1567f8adc6734073e5d1e1b35c>@@V<lambda_2e8a7d3640ea6ccb4c2413664c2db6fd>@@@?$__crt_seh_guarded_call@X@@QEAAX$$QEAV<lambda_efdfa57d1f175319df784efa44bb7b81>@@AEAV<lambda_5f0a4c1567f8adc6734073e5d1e1b35c>@@$$QEAV<lambda_2e8a7d3640ea6ccb4c2413664c2db6fd>@@@Z 00000001800292bc f   libucrt:mbctype.obj
 0001:00028478       ?getSystemCP@@YAHH@Z       0000000180029478 f   libucrt:mbctype.obj
 0001:000284f8       ?setSBCS@@YAXPEAU__crt_multibyte_data@@@Z 00000001800294f8 f   libucrt:mbctype.obj
 0001:00028588       ?setSBUpLow@@YAXPEAU__crt_multibyte_data@@@Z 0000000180029588 f   libucrt:mbctype.obj
 0001:0002876c       ?setmbcp_internal@@YAHH_NQEAU__acrt_ptd@@QEAPEAU__crt_multibyte_data@@@Z 000000018002976c f   libucrt:mbctype.obj
 0001:00028930       ?update_thread_multibyte_data_internal@@YAPEAU__crt_multibyte_data@@QEAU__acrt_ptd@@QEAPEAU1@@Z 0000000180029930 f   libucrt:mbctype.obj
 0001:00028d20       ?x_ismbbtype_l@@YAHPEAU__crt_locale_pointers@@IHH@Z 0000000180029d20 f   libucrt:ismbbyte.obj
 0001:00029064       ?try_get_function@@YAPEAXW4function_id@?A0x391cf84c@@QEBDQEBW4module_id@2@2@Z 000000018002a064 f   libucrt:winapi_thunks.obj
 0001:0002974c       ??$?RV<lambda_450d765d439847d4c735a33c368b5fc0>@@AEAV<lambda_44731a7d0e6d81c3e6aa82d741081786>@@V<lambda_601a2a7da3b7a96e9554ac7215c4b07c>@@@?$__crt_seh_guarded_call@P6AXH@Z@@QEAAP6AXH@Z$$QEAV<lambda_450d765d439847d4c735a33c368b5fc0>@@AEAV<lambda_44731a7d0e6d81c3e6aa82d741081786>@@$$QEAV<lambda_601a2a7da3b7a96e9554ac7215c4b07c>@@@Z 000000018002a74c f   libucrt:signal.obj
 0001:00029aa8       ??$?RV<lambda_842d9ff0dc9ef11c61343bbaebe7f885>@@AEAV<lambda_c5860995281e5c4ce005b3de8f5874ee>@@V<lambda_d90129c13df834fdcbf8d2b88dafcf2d>@@@?$__crt_seh_guarded_call@X@@QEAAX$$QEAV<lambda_842d9ff0dc9ef11c61343bbaebe7f885>@@AEAV<lambda_c5860995281e5c4ce005b3de8f5874ee>@@$$QEAV<lambda_d90129c13df834fdcbf8d2b88dafcf2d>@@@Z 000000018002aaa8 f   libucrt:fflush.obj
 0001:00029b44       ??$?RV<lambda_886d6c58226a84441f68b9f2b8217b83>@@AEAV<lambda_ab61a845afdef5b7c387490eaf3616ee>@@V<lambda_f7f22ab5edc0698d5f6905b0d3f44752>@@@?$__crt_seh_guarded_call@X@@QEAAX$$QEAV<lambda_886d6c58226a84441f68b9f2b8217b83>@@AEAV<lambda_ab61a845afdef5b7c387490eaf3616ee>@@$$QEAV<lambda_f7f22ab5edc0698d5f6905b0d3f44752>@@@Z 000000018002ab44 f   libucrt:fflush.obj
 0001:00029c24       ?common_flush_all@@YAH_N@Z 000000018002ac24 f   libucrt:fflush.obj
 0001:0002bb60       memcpy_s                   000000018002cb60 f   libucrt:cfout.obj
 0001:0002beb4       ?free_crt_array_internal@@YAXQEAPEBX_K@Z 000000018002ceb4 f   libucrt:inittime.obj
 0001:0002c954       fallbackMethod             000000018002d954 f   libucrt:strpbrk.obj
 0001:0002cd24       $LN78                      000000018002dd24     libucrt:strpbrk.obj
 0001:0002cd60       $LN77                      000000018002dd60     libucrt:strpbrk.obj
 0001:0002cda0       $LN76                      000000018002dda0     libucrt:strpbrk.obj
 0001:0002ce7c       ?__acrt_LCMapStringA_stat@@YAHPEAU__crt_locale_pointers@@PEB_WKPEBDHPEADHHH@Z 000000018002de7c f   libucrt:lcmapstringa.obj
 0001:0002d22c       ?initialize_multibyte@@YAHXZ 000000018002e22c f   libucrt:multibyte_initializer.obj
 0001:0002d3ac       ??$?RV<lambda_a37b2b86f63e897a80ea819b0eb08c01>@@AEAV<lambda_38ce7e780aa69e748d6df282ebc68efe>@@V<lambda_99fb1378e971ab6e7edea83e3a7a83a2>@@@?$__crt_seh_guarded_call@H@@QEAAH$$QEAV<lambda_a37b2b86f63e897a80ea819b0eb08c01>@@AEAV<lambda_38ce7e780aa69e748d6df282ebc68efe>@@$$QEAV<lambda_99fb1378e971ab6e7edea83e3a7a83a2>@@@Z 000000018002e3ac f   libucrt:commit.obj
 0001:0002d4cc       ?write_double_translated_ansi_nolock@@YA?AUwrite_result@?A0x17268360@@HQEBDI@Z 000000018002e4cc f   libucrt:write.obj
 0001:0002d99c       ?write_text_ansi_nolock@@YA?AUwrite_result@?A0x17268360@@HQEBDI@Z 000000018002e99c f   libucrt:write.obj
 0001:0002daa0       ?write_text_utf16le_nolock@@YA?AUwrite_result@?A0x17268360@@HQEBDI@Z 000000018002eaa0 f   libucrt:write.obj
 0001:0002dbbc       ?write_text_utf8_nolock@@YA?AUwrite_result@?A0x17268360@@HQEBDI@Z 000000018002ebbc f   libucrt:write.obj
 0001:0002e450       $$000000                   000000018002f450     libucrt:log10.obj
 0001:0002e9fc       ??$common_lseek_nolock@_J@@YA_JH_JH@Z 000000018002f9fc f   libucrt:lseek.obj
 0001:0002efb4       _call_matherr              000000018002ffb4 f   libucrt:libm_error.obj
 0001:0002f01c       _exception_enabled         000000018003001c f   libucrt:libm_error.obj
 0001:0002f2b0       _log_special_common        00000001800302b0 f   libucrt:log_special.obj
 0001:0002f348       ??$?RV<lambda_751a882b2c74d4b022dec766aa51a29a>@@AEAV<lambda_628dfdc04ba53c8bfc02c9951375f3f5>@@V<lambda_f6c7be5f7998530c34de24c7437d6b54>@@@?$__crt_seh_guarded_call@H@@QEAAH$$QEAV<lambda_751a882b2c74d4b022dec766aa51a29a>@@AEAV<lambda_628dfdc04ba53c8bfc02c9951375f3f5>@@$$QEAV<lambda_f6c7be5f7998530c34de24c7437d6b54>@@@Z 0000000180030348 f   libucrt:close.obj
 0001:0002f670       $$000000                   0000000180030670     libucrt:fpsr.obj
 0001:0002ffb0       $$000000                   0000000180030fb0     LIBCMT:guard_dispatch.obj
 0001:0002ffd0       $$000000                   0000000180030fd0     LIBCMT:guard_xfg_dispatch.obj
 0001:0002fff0       ?dtor$0@?0??RegisterBackground@@YAHPEAURegisterBackgroundArg@@@Z@4HA 0000000180030ff0 f   ConEmuPlugin.obj
 0001:0003000d       ?catch$0@?0???$_Emplace_reallocate@AEBUWindowInfo@@@?$vector@UWindowInfo@@V?$MArrayAllocator@UWindowInfo@@@@@std@@QEAAPEAUWindowInfo@@QEAU2@AEBU2@@Z@4HA 000000018003100d f   ConEmuPlugin2800.obj
 0001:0003001a       __catch$??$_Emplace_reallocate@AEBUWindowInfo@@@?$vector@UWindowInfo@@V?$MArrayAllocator@UWindowInfo@@@@@std@@QEAAPEAUWindowInfo@@QEAU2@AEBU2@@Z$0 000000018003101a f   ConEmuPlugin2800.obj
 0001:0003003e       ?dtor$0@?0??SetWindow@CPluginW2800@@UEAAXH@Z@4HA 000000018003103e f   ConEmuPlugin2800.obj
 0001:0003004a       ?dtor$0@?0??UpdateConEmuTabsApi@CPluginW2800@@UEAA_NH@Z@4HA 000000018003104a f   ConEmuPlugin2800.obj
 0001:0003006a       ?dtor$1@?0??UpdateConEmuTabsApi@CPluginW2800@@UEAA_NH@Z@4HA 000000018003106a f   ConEmuPlugin2800.obj
 0001:00030076       ?catch$0@?0??insert@?$vector@UWindowInfo@@V?$MArrayAllocator@UWindowInfo@@@@@std@@QEAA?AV?$_Vector_iterator@V?$_Vector_val@U?$_Simple_types@UWindowInfo@@@std@@@std@@@2@V?$_Vector_const_iterator@V?$_Vector_val@U?$_Simple_types@UWindowInfo@@@std@@@std@@@2@_KAEBUWindowInfo@@@Z@4HA 0000000180031076 f   ConEmuPlugin2800.obj
 0001:00030083       __catch$?insert@?$vector@UWindowInfo@@V?$MArrayAllocator@UWindowInfo@@@@@std@@QEAA?AV?$_Vector_iterator@V?$_Vector_val@U?$_Simple_types@UWindowInfo@@@std@@@std@@@2@V?$_Vector_const_iterator@V?$_Vector_val@U?$_Simple_types@UWindowInfo@@@std@@@std@@@2@_KAEBUWindowInfo@@@Z$0 0000000180031083 f   ConEmuPlugin2800.obj
 0001:000300ac       ?dtor$0@?0???0CPluginW995@@QEAA@XZ@4HA 00000001800310ac f   ConEmuPlugin995.obj
 0001:000300ac       ?dtor$0@?0???0CPluginAnsi@@QEAA@XZ@4HA 00000001800310ac f   ConEmuPluginA.obj
 0001:000300b8       ?dtor$0@?0??CheckConEmuDetached@CPluginBase@@SAXXZ@4HA 00000001800310b8 f   ConEmuPluginBase.obj
 0001:000300c4       ?dtor$0@?0??CreateTabs@CPluginBase@@SA_NH@Z@4HA 00000001800310c4 f   ConEmuPluginBase.obj
 0001:000300c4       ?dtor$0@?0??IsCurrentTabModal@CPluginBase@@QEAA_NXZ@4HA 00000001800310c4 f   ConEmuPluginBase.obj
 0001:000300c4       ?dtor$0@?0??SendTabs@CPluginBase@@SAXH_N@Z@4HA 00000001800310c4 f   ConEmuPluginBase.obj
 0001:000300d0       ?dtor$0@?0??DllCheckUnique@CPluginBase@@KA_N_N@Z@4HA 00000001800310d0 f   ConEmuPluginBase.obj
 0001:000300d0       ?dtor$0@?0??ShowProtocolWarning@CPluginBase@@KAXXZ@4HA 00000001800310d0 f   ConEmuPluginBase.obj
 0001:000300dc       ?dtor$1@?0??DllCheckUnique@CPluginBase@@KA_N_N@Z@4HA 00000001800310dc f   ConEmuPluginBase.obj
 0001:000300e8       ?dtor$0@?0??DllMain_ProcessAttach@CPluginBase@@KAXPEAUHINSTANCE__@@@Z@4HA 00000001800310e8 f   ConEmuPluginBase.obj
 0001:000300e8       ?dtor$1@?0??DllMain_ProcessAttach@CPluginBase@@KAXPEAUHINSTANCE__@@@Z@4HA 00000001800310e8 f   ConEmuPluginBase.obj
 0001:000300e8       ?dtor$0@?0???0CPluginBackground@@QEAA@XZ@4HA 00000001800310e8 f   PluginBackground.obj
 0001:00030105       ?dtor$0@?0??MonitorThreadProcW@CPluginBase@@SAKPEAX@Z@4HA 0000000180031105 f   ConEmuPluginBase.obj
 0001:00030105       ?dtor$0@?0??RegisterSubplugin@CPluginBackground@@QEAAHPEAURegisterBackgroundArg@@@Z@4HA 0000000180031105 f   PluginBackground.obj
 0001:00030111       ?dtor$0@?0??Plugin@@YAPEAVCPluginBase@@XZ@4HA 0000000180031111 f   ConEmuPluginBase.obj
 0001:0003012e       ?dtor$1@?0??Plugin@@YAPEAVCPluginBase@@XZ@4HA 000000018003112e f   ConEmuPluginBase.obj
 0001:0003012e       ?dtor$2@?0??Plugin@@YAPEAVCPluginBase@@XZ@4HA 000000018003112e f   ConEmuPluginBase.obj
 0001:0003012e       ?dtor$3@?0??Plugin@@YAPEAVCPluginBase@@XZ@4HA 000000018003112e f   ConEmuPluginBase.obj
 0001:0003014b       ?dtor$0@?0??ProcessCommand@CPluginBase@@QEAA_NKHPEAXPEAPEAUCESERVER_REQ@@_N@Z@4HA 000000018003114b f   ConEmuPluginBase.obj
 0001:00030157       ?dtor$0@?0??RunExternalProgram@CPluginBase@@QEAA_NPEA_W@Z@4HA 0000000180031157 f   ConEmuPluginBase.obj
 0001:00030163       ?dtor$1@?0??RunExternalProgram@CPluginBase@@QEAA_NPEA_W@Z@4HA 0000000180031163 f   ConEmuPluginBase.obj
 0001:0003016f       ?dtor$2@?0??RunExternalProgram@CPluginBase@@QEAA_NPEA_W@Z@4HA 000000018003116f f   ConEmuPluginBase.obj
 0001:0003017b       ?dtor$0@?0??RunExternalProgramW@CPluginBase@@SA_NPEA_W0_N@Z@4HA 000000018003117b f   ConEmuPluginBase.obj
 0001:00030187       ?dtor$1@?0??RunExternalProgramW@CPluginBase@@SA_NPEA_W0_N@Z@4HA 0000000180031187 f   ConEmuPluginBase.obj
 0001:00030193       ?dtor$0@?0??UpdateConEmuTabs@CPluginBase@@QEAA_N_N@Z@4HA 0000000180031193 f   ConEmuPluginBase.obj
 0001:0003019f       ?dtor$0@?0??cmd_OpenEditorLine@CPluginBase@@QEAA_NPEAUCESERVER_REQ_FAREDITOR@@@Z@4HA 000000018003119f f   ConEmuPluginBase.obj
 0001:000301ab       ?dtor$0@?0??LoadThSet@CPluginBackground@@IEAAHH@Z@4HA 00000001800311ab f   PluginBackground.obj
 0001:000301b7       ?dtor$0@?0??UpdateBackground@CPluginBackground@@IEAAXXZ@4HA 00000001800311b7 f   PluginBackground.obj
 0001:000301c3       ?dtor$0@?0??PlugServerCommand@@YAHPEAXPEAUCESERVER_REQ@@AEAPEAU1@AEAK3_J@Z@4HA 00000001800311c3 f   PluginSrv.obj
 0001:000301cf       ?dtor$1@?0??PlugServerCommand@@YAHPEAXPEAUCESERVER_REQ@@AEAPEAU1@AEAK3_J@Z@4HA 00000001800311cf f   PluginSrv.obj
 0001:000301db       ?dtor$0@?0??FindConEmuBaseDir@@YAHAEAY0BAF@_W0PEAUHINSTANCE__@@@Z@4HA 00000001800311db f   common-user64:ConEmuCheckEx.obj
 0001:000301e7       ?dtor$1@?0??FindConEmuBaseDir@@YAHAEAY0BAF@_W0PEAUHINSTANCE__@@@Z@4HA 00000001800311e7 f   common-user64:ConEmuCheckEx.obj
 0001:000301f3       ?dtor$0@?0??SearchAppPaths@@YA_NPEB_WAEAUCEStr@@_NPEAVCEnvRestorer@@@Z@4HA 00000001800311f3 f   common-user64:WFiles.obj
 0001:000301ff       ?fin$0@?0??dllmain_crt_process_attach@@YAHQEAUHINSTANCE__@@QEAX@Z@4HA 00000001800311ff f   LIBCMT:dll_dllmain.obj
 0001:00030216       ?fin$0@?0??dllmain_crt_process_detach@@YAH_N@Z@4HA 0000000180031216 f   LIBCMT:dll_dllmain.obj
 0001:0003022f       ?fin$1@?0??dllmain_crt_process_detach@@YAH_N@Z@4HA 000000018003122f f   LIBCMT:dll_dllmain.obj
 0001:00030243       ?filt$0@?0??dllmain_dispatch@@YAHQEAUHINSTANCE__@@KQEAX@Z@4HA 0000000180031243 f   LIBCMT:dll_dllmain.obj
 0001:00030279       __scrt_is_nonwritable_in_current_image$filt$0 0000000180031279 f   LIBCMT:utility.obj
 0001:00030291       ?filt$0@?0???$_CallSETranslator@V__FrameHandler4@@@@YAHPEAUEHExceptionRecord@@PEA_KPEAU_CONTEXT@@PEAU_xDISPATCHER_CONTEXT@@PEAUFuncInfo4@FH4@@K1H@Z@4HA 0000000180031291 f   libvcruntime:risctrnsctrl.obj
 0001:00030330       __DestructExceptionObject$filt$0 0000000180031330 f   libvcruntime:ehhelpers.obj
 0001:000303c6       ?filt$0@?0??CxxCallCatchBlock@__FrameHandler4@@SAPEAXPEAU_EXCEPTION_RECORD@@@Z@4HA 00000001800313c6 f   libvcruntime:frame.obj
 0001:000303f5       ?fin$1@?0??CxxCallCatchBlock@__FrameHandler4@@SAPEAXPEAU_EXCEPTION_RECORD@@@Z@4HA 00000001800313f5 f   libvcruntime:frame.obj
 0001:00030478       ?filt$0@?0??FrameUnwindToState@__FrameHandler4@@SAXPEA_KPEAU_xDISPATCHER_CONTEXT@@PEAUFuncInfo4@FH4@@H@Z@4HA 0000000180031478 f   libvcruntime:frame.obj
 0001:0003048e       ?fin$1@?0??FrameUnwindToState@__FrameHandler4@@SAXPEA_KPEAU_xDISPATCHER_CONTEXT@@PEAUFuncInfo4@FH4@@H@Z@4HA 000000018003148e f   libvcruntime:frame.obj
 0001:000304b1       ?fin$0@?0???$?RV<lambda_0ae27a3a962d80f24befdcbee591983d>@@AEAV<lambda_8d0ee55de4b1038c4002e0adecdf1839>@@V<lambda_dc504788e8f1664fe9b84e20bfb512f2>@@@?$__crt_seh_guarded_call@X@@QEAAX$$QEAV<lambda_0ae27a3a962d80f24befdcbee591983d>@@AEAV<lambda_8d0ee55de4b1038c4002e0adecdf1839>@@$$QEAV<lambda_dc504788e8f1664fe9b84e20bfb512f2>@@@Z@4HA 00000001800314b1 f   libucrt:per_thread_data.obj
 0001:000304b1       ?fin$0@?0???$?RV<lambda_2d41944a1d46af3157314b8a01080d33>@@AEAV<lambda_8f455de75cd7d7f24b4096f044d8b9e6>@@V<lambda_aa500f224e6afead328df44964fe2772>@@@?$__crt_seh_guarded_call@X@@QEAAX$$QEAV<lambda_2d41944a1d46af3157314b8a01080d33>@@AEAV<lambda_8f455de75cd7d7f24b4096f044d8b9e6>@@$$QEAV<lambda_aa500f224e6afead328df44964fe2772>@@@Z@4HA 00000001800314b1 f   libucrt:per_thread_data.obj
 0001:000304b1       ?fin$0@?0???$?RV<lambda_aa87e3671a710a21b5dc78c0bdf72e11>@@AEAV<lambda_92619d2358a28f41a33ba319515a20b9>@@V<lambda_6992ecaafeb10aed2b74cb1fae11a551>@@@?$__crt_seh_guarded_call@X@@QEAAX$$QEAV<lambda_aa87e3671a710a21b5dc78c0bdf72e11>@@AEAV<lambda_92619d2358a28f41a33ba319515a20b9>@@$$QEAV<lambda_6992ecaafeb10aed2b74cb1fae11a551>@@@Z@4HA 00000001800314b1 f   libucrt:per_thread_data.obj
 0001:000304b1       ?fin$0@?0???$?RV<lambda_f2e299630e499de9f9a165e60fcd3db5>@@AEAV<lambda_2ae9d31cdba2644fcbeaf08da7c24588>@@V<lambda_40d01ff24d0e7b3814fdbdcee8eab3c7>@@@?$__crt_seh_guarded_call@X@@QEAAX$$QEAV<lambda_f2e299630e499de9f9a165e60fcd3db5>@@AEAV<lambda_2ae9d31cdba2644fcbeaf08da7c24588>@@$$QEAV<lambda_40d01ff24d0e7b3814fdbdcee8eab3c7>@@@Z@4HA 00000001800314b1 f   libucrt:per_thread_data.obj
 0001:000304b1       ?fin$0@?0???$?RV<lambda_efdfa57d1f175319df784efa44bb7b81>@@AEAV<lambda_5f0a4c1567f8adc6734073e5d1e1b35c>@@V<lambda_2e8a7d3640ea6ccb4c2413664c2db6fd>@@@?$__crt_seh_guarded_call@X@@QEAAX$$QEAV<lambda_efdfa57d1f175319df784efa44bb7b81>@@AEAV<lambda_5f0a4c1567f8adc6734073e5d1e1b35c>@@$$QEAV<lambda_2e8a7d3640ea6ccb4c2413664c2db6fd>@@@Z@4HA 00000001800314b1 f   libucrt:mbctype.obj
 0001:000304b1       ?fin$0@?0???$?RV<lambda_450d765d439847d4c735a33c368b5fc0>@@AEAV<lambda_44731a7d0e6d81c3e6aa82d741081786>@@V<lambda_601a2a7da3b7a96e9554ac7215c4b07c>@@@?$__crt_seh_guarded_call@P6AXH@Z@@QEAAP6AXH@Z$$QEAV<lambda_450d765d439847d4c735a33c368b5fc0>@@AEAV<lambda_44731a7d0e6d81c3e6aa82d741081786>@@$$QEAV<lambda_601a2a7da3b7a96e9554ac7215c4b07c>@@@Z@4HA 00000001800314b1 f   libucrt:signal.obj
 0001:000304b1       ?fin$0@?0???$?RV<lambda_d80eeec6fff315bfe5c115232f3240e3>@@AEAV<lambda_6e4b09c48022b2350581041d5f6b0c4c>@@V<lambda_2358e3775559c9db80273638284d5e45>@@@?$__crt_seh_guarded_call@X@@QEAAX$$QEAV<lambda_d80eeec6fff315bfe5c115232f3240e3>@@AEAV<lambda_6e4b09c48022b2350581041d5f6b0c4c>@@$$QEAV<lambda_2358e3775559c9db80273638284d5e45>@@@Z@4HA 00000001800314b1 f   libucrt:exit.obj
 0001:000304b1       ?fin$0@?0???$?RV<lambda_638799b9deba96c50f710eeac98168cd>@@AEAV<lambda_22ebabd17bc4fa466a2aca6d8deb888d>@@V<lambda_a6f7d7db0129f75315ebf26d50c089f1>@@@?$__crt_seh_guarded_call@H@@QEAAH$$QEAV<lambda_638799b9deba96c50f710eeac98168cd>@@AEAV<lambda_22ebabd17bc4fa466a2aca6d8deb888d>@@$$QEAV<lambda_a6f7d7db0129f75315ebf26d50c089f1>@@@Z@4HA 00000001800314b1 f   libucrt:onexit.obj
 0001:000304b1       ?fin$0@?0???$?RV<lambda_7777bce6b2f8c936911f934f8298dc43>@@AEAV<lambda_f03950bc5685219e0bcd2087efbe011e>@@V<lambda_3883c3dff614d5e0c5f61bb1ac94921c>@@@?$__crt_seh_guarded_call@H@@QEAAH$$QEAV<lambda_7777bce6b2f8c936911f934f8298dc43>@@AEAV<lambda_f03950bc5685219e0bcd2087efbe011e>@@$$QEAV<lambda_3883c3dff614d5e0c5f61bb1ac94921c>@@@Z@4HA 00000001800314b1 f   libucrt:onexit.obj
 0001:000304cb       ?filt$0@?0???R<lambda_6e4b09c48022b2350581041d5f6b0c4c>@@QEBA@XZ@4HA 00000001800314cb f   libucrt:exit.obj
 0001:000304e6       ?fin$0@?0???$?RV<lambda_410d79af7f07d98d83a3f525b3859a53>@@AEAV<lambda_3e16ef9562a7dcce91392c22ab16ea36>@@V<lambda_38119f0e861e05405d8a144b9b982f0a>@@@?$__crt_seh_guarded_call@X@@QEAAX$$QEAV<lambda_410d79af7f07d98d83a3f525b3859a53>@@AEAV<lambda_3e16ef9562a7dcce91392c22ab16ea36>@@$$QEAV<lambda_38119f0e861e05405d8a144b9b982f0a>@@@Z@4HA 00000001800314e6 f   libucrt:wsetlocale.obj
 0001:00030500       __acrt_initialize_lowio$fin$0 0000000180031500 f   libucrt:ioinit.obj
 0001:00030500       __acrt_lowio_ensure_fh_exists$fin$0 0000000180031500 f   libucrt:osfinfo.obj
 0001:00030519       ?fin$0@?0??update_thread_multibyte_data_internal@@YAPEAU__crt_multibyte_data@@QEAU__acrt_ptd@@QEAPEAU1@@Z@4HA 0000000180031519 f   libucrt:mbctype.obj
 0001:00030532       _query_new_handler$fin$0   0000000180031532 f   libucrt:new_handler.obj
 0001:00030548       raise$fin$0                0000000180031548 f   libucrt:signal.obj
 0001:00030569       ?fin$0@?0???$?RV<lambda_842d9ff0dc9ef11c61343bbaebe7f885>@@AEAV<lambda_c5860995281e5c4ce005b3de8f5874ee>@@V<lambda_d90129c13df834fdcbf8d2b88dafcf2d>@@@?$__crt_seh_guarded_call@X@@QEAAX$$QEAV<lambda_842d9ff0dc9ef11c61343bbaebe7f885>@@AEAV<lambda_c5860995281e5c4ce005b3de8f5874ee>@@$$QEAV<lambda_d90129c13df834fdcbf8d2b88dafcf2d>@@@Z@4HA 0000000180031569 f   libucrt:fflush.obj
 0001:00030584       ?fin$0@?0???$?RV<lambda_886d6c58226a84441f68b9f2b8217b83>@@AEAV<lambda_ab61a845afdef5b7c387490eaf3616ee>@@V<lambda_f7f22ab5edc0698d5f6905b0d3f44752>@@@?$__crt_seh_guarded_call@X@@QEAAX$$QEAV<lambda_886d6c58226a84441f68b9f2b8217b83>@@AEAV<lambda_ab61a845afdef5b7c387490eaf3616ee>@@$$QEAV<lambda_f7f22ab5edc0698d5f6905b0d3f44752>@@@Z@4HA 0000000180031584 f   libucrt:fflush.obj
 0001:000305a1       __acrt_update_thread_locale_data$fin$0 00000001800315a1 f   libucrt:locale_refcounting.obj
 0001:000305ba       _fcloseall$fin$0           00000001800315ba f   libucrt:closeall.obj
 0001:000305d3       ?fin$0@?0???$?RV<lambda_751a882b2c74d4b022dec766aa51a29a>@@AEAV<lambda_628dfdc04ba53c8bfc02c9951375f3f5>@@V<lambda_f6c7be5f7998530c34de24c7437d6b54>@@@?$__crt_seh_guarded_call@H@@QEAAH$$QEAV<lambda_751a882b2c74d4b022dec766aa51a29a>@@AEAV<lambda_628dfdc04ba53c8bfc02c9951375f3f5>@@$$QEAV<lambda_f6c7be5f7998530c34de24c7437d6b54>@@@Z@4HA 00000001800315d3 f   libucrt:close.obj
 0001:000305d3       ?fin$0@?0???$?RV<lambda_a37b2b86f63e897a80ea819b0eb08c01>@@AEAV<lambda_38ce7e780aa69e748d6df282ebc68efe>@@V<lambda_99fb1378e971ab6e7edea83e3a7a83a2>@@@?$__crt_seh_guarded_call@H@@QEAAH$$QEAV<lambda_a37b2b86f63e897a80ea819b0eb08c01>@@AEAV<lambda_38ce7e780aa69e748d6df282ebc68efe>@@$$QEAV<lambda_99fb1378e971ab6e7edea83e3a7a83a2>@@@Z@4HA 00000001800315d3 f   libucrt:commit.obj
 0001:000305ed       _write$fin$0               00000001800315ed f   libucrt:write.obj
 0001:00030604       fclose$fin$0               0000000180031604 f   libucrt:fclose.obj
 0001:0003061c       _ctrlfp$filt$0             000000018003161c f   libucrt:fpctrl.obj
 0001:00030650       _IsNonwritableInCurrentImage$filt$0 0000000180031650 f   LIBCMT:pesect.obj
 0001:00030670       ??__FgsMapHelper@@YAXXZ    0000000180031670 f   common-user64:WConsoleEx.obj
 0002:00000690       ?gsMapHelper$initializer$@@3P6AXXZEA 0000000180032690     common-user64:WConsoleEx.obj
 0002:000006a8       ?__scrt_initialize_tss_var@@3P6AHXZEA 00000001800326a8     LIBCMT:thread_safe_statics.obj
 0002:00004860       GS_ExceptionPointers       0000000180036860     LIBCMT:gs_report.obj
 0002:00004890       ?ExceptionTemplate@?1??UnwindNestedFrames@__FrameHandler4@@SAXPEA_KPEAUEHExceptionRecord@@PEAU_CONTEXT@@0PEAXPEAUFuncInfo4@FH4@@HHPEAUHandlerType4@6@PEAU_xDISPATCHER_CONTEXT@@E@Z@4U_EXCEPTION_RECORD@@B 0000000180036890     libvcruntime:risctrnsctrl.obj
 0002:00004960       ?tokenTable@@3QBUStringLiteral@@B 0000000180036960     libvcruntime:undname.obj
 0002:00004a60       ?nameTable@@3QBUStringLiteral@@B 0000000180036a60     libvcruntime:undname.obj
 0002:00004f90       ?rttiTable@@3QBUStringLiteral@@B 0000000180036f90     libvcruntime:undname.obj
 0002:00004fe0       ?IndirectionName@@3QBUStringLiteral@@B 0000000180036fe0     libvcruntime:undname.obj
 0002:00005040       ?PrefixName@@3QBUStringLiteral@@B 0000000180037040     libvcruntime:undname.obj
 0002:00005718       ?module_names@?A0xdafaeb0c@@3QBQEB_WB 0000000180037718     libvcruntime:winapi_downlevel.obj
 0002:000057d8       ?candidate_modules@?1??try_get_FlsAlloc@@YAP6AKP6AXPEAX@Z@ZXZ@4QBW4module_id@?A0xdafaeb0c@@B 00000001800377d8     libvcruntime:winapi_downlevel.obj
 0002:000057f0       ?candidate_modules@?1??try_get_FlsFree@@YAP6AHK@ZXZ@4QBW4module_id@?A0xdafaeb0c@@B 00000001800377f0     libvcruntime:winapi_downlevel.obj
 0002:00005800       ?candidate_modules@?1??try_get_FlsGetValue@@YAP6APEAXK@ZXZ@4QBW4module_id@?A0xdafaeb0c@@B 0000000180037800     libvcruntime:winapi_downlevel.obj
 0002:00005818       ?candidate_modules@?1??try_get_FlsSetValue@@YAP6AHKPEAX@ZXZ@4QBW4module_id@?A0xdafaeb0c@@B 0000000180037818     libvcruntime:winapi_downlevel.obj
 0002:00005830       ?candidate_modules@?1??try_get_InitializeCriticalSectionEx@@YAP6AHPEAU_RTL_CRITICAL_SECTION@@KK@ZXZ@4QBW4module_id@?A0xdafaeb0c@@B 0000000180037830     libvcruntime:winapi_downlevel.obj
 0002:000058e0       ?errtable@@3QBUerrentry@?A0x31fdb9ec@@B 00000001800378e0     libucrt:errno.obj
 0002:00005b50       __acrt_initializers        0000000180037b50     libucrt:initialization.obj
 0002:00005c50       ?strings@?1??fp_format_nan_or_infinity@@YAHW4__acrt_fp_class@@_NPEAD_K1@Z@4QAY03QEBDA 0000000180037c50     libucrt:cvt.obj
 0002:00006bb8       ?_mb_locale_names@@3QBQEB_WB 0000000180038bb8     libucrt:mbctype.obj
 0002:00006c20       ?module_names@?A0x391cf84c@@3QBQEB_WB 0000000180038c20     libucrt:winapi_thunks.obj
 0002:00007128       ?candidate_modules@?1??try_get_AreFileApisANSI@@YAP6AHXZXZ@4QBW4module_id@?A0x391cf84c@@B 0000000180039128     libucrt:winapi_thunks.obj
 0002:00007140       ?candidate_modules@?1??try_get_FlsAlloc@@YAP6AKP6AXPEAX@Z@ZXZ@4QBW4module_id@?A0x391cf84c@@B 0000000180039140     libucrt:winapi_thunks.obj
 0002:00007148       ?candidate_modules@?1??try_get_FlsFree@@YAP6AHK@ZXZ@4QBW4module_id@?A0x391cf84c@@B 0000000180039148     libucrt:winapi_thunks.obj
 0002:00007150       ?candidate_modules@?1??try_get_FlsGetValue@@YAP6APEAXK@ZXZ@4QBW4module_id@?A0x391cf84c@@B 0000000180039150     libucrt:winapi_thunks.obj
 0002:00007158       ?candidate_modules@?1??try_get_FlsSetValue@@YAP6AHKPEAX@ZXZ@4QBW4module_id@?A0x391cf84c@@B 0000000180039158     libucrt:winapi_thunks.obj
 0002:00007160       ?candidate_modules@?1??try_get_InitializeCriticalSectionEx@@YAP6AHPEAU_RTL_CRITICAL_SECTION@@KK@ZXZ@4QBW4module_id@?A0x391cf84c@@B 0000000180039160     libucrt:winapi_thunks.obj
 0002:00007168       ?candidate_modules@?1??try_get_LCMapStringEx@@YAP6AHPEB_WK0HPEA_WHPEAU_nlsversioninfo@@PEAX_J@ZXZ@4QBW4module_id@?A0x391cf84c@@B 0000000180039168     libucrt:winapi_thunks.obj
 0002:00007180       ?candidate_modules@?1??try_get_LocaleNameToLCID@@YAP6AKPEB_WK@ZXZ@4QBW4module_id@?A0x391cf84c@@B 0000000180039180     libucrt:winapi_thunks.obj
 0002:0000719c       ?candidate_modules@?1??try_get_AppPolicyGetProcessTerminationMethod@@YAP6AJPEAXPEAW4AppPolicyProcessTerminationMethod@@@ZXZ@4QBW4module_id@?A0x391cf84c@@B 000000018003919c     libucrt:winapi_thunks.obj
 0002:00007ae0       ?large_power_indices@?1??multiply_by_power_of_ten@__crt_strtox@@YA_NAEAUbig_integer@2@I@Z@4QBUunpack_index@?1??12@YA_N0I@Z@B 0000000180039ae0     libucrt:cfout.obj
 0002:00007bd0       ?LcidToLocaleNameTable@?A0x881e4c05@@3QBULcidToLocaleName@1@B 0000000180039bd0     libucrt:lcidtoname_downlevel.obj
 0002:00009620       ?LocaleNameToIndexTable@?A0x881e4c05@@3QBULocaleNameIndex@1@B 000000018003b620     libucrt:lcidtoname_downlevel.obj
 0002:0000aec0       __real_ninf                000000018003cec0     libucrt:log10.obj
 0002:0000aed0       __real_inf                 000000018003ced0     libucrt:log10.obj
 0002:0000aee0       __real_neg_qnan            000000018003cee0     libucrt:log10.obj
 0002:0000aef0       __real_qnanbit             000000018003cef0     libucrt:log10.obj
 0002:0000af00       __int_1023                 000000018003cf00     libucrt:log10.obj
 0002:0000af10       __mask_001                 000000018003cf10     libucrt:log10.obj
 0002:0000af20       __mask_mant                000000018003cf20     libucrt:log10.obj
 0002:0000af30       __mask_mant_top8           000000018003cf30     libucrt:log10.obj
 0002:0000af40       __mask_mant9               000000018003cf40     libucrt:log10.obj
 0002:0000af50       __real_log10_e             000000018003cf50     libucrt:log10.obj
 0002:0000af60       __real_log10_e_lead        000000018003cf60     libucrt:log10.obj
 0002:0000af70       __real_log10_e_tail        000000018003cf70     libucrt:log10.obj
 0002:0000af80       __real_log10_2_lead        000000018003cf80     libucrt:log10.obj
 0002:0000af90       __real_log10_2_tail        000000018003cf90     libucrt:log10.obj
 0002:0000afa0       __real_two                 000000018003cfa0     libucrt:log10.obj
 0002:0000afb0       __real_one                 000000018003cfb0     libucrt:log10.obj
 0002:0000afc0       __real_half                000000018003cfc0     libucrt:log10.obj
 0002:0000afd0       __mask_100                 000000018003cfd0     libucrt:log10.obj
 0002:0000afe0       __real_1_over_512          000000018003cfe0     libucrt:log10.obj
 0002:0000aff0       __real_1_over_2            000000018003cff0     libucrt:log10.obj
 0002:0000b000       __real_1_over_3            000000018003d000     libucrt:log10.obj
 0002:0000b010       __real_1_over_4            000000018003d010     libucrt:log10.obj
 0002:0000b020       __real_1_over_5            000000018003d020     libucrt:log10.obj
 0002:0000b030       __real_1_over_6            000000018003d030     libucrt:log10.obj
 0002:0000b040       __real_neg_1023            000000018003d040     libucrt:log10.obj
 0002:0000b050       __mask_2045                000000018003d050     libucrt:log10.obj
 0002:0000b060       __real_threshold           000000018003d060     libucrt:log10.obj
 0002:0000b070       __real_near_one_lt         000000018003d070     libucrt:log10.obj
 0002:0000b080       __real_near_one_gt         000000018003d080     libucrt:log10.obj
 0002:0000b090       __real_min_norm            000000018003d090     libucrt:log10.obj
 0002:0000b0a0       __real_notsign             000000018003d0a0     libucrt:log10.obj
 0002:0000b0b0       __real_ca1                 000000018003d0b0     libucrt:log10.obj
 0002:0000b0c0       __real_ca2                 000000018003d0c0     libucrt:log10.obj
 0002:0000b0d0       __real_ca3                 000000018003d0d0     libucrt:log10.obj
 0002:0000b0e0       __real_ca4                 000000018003d0e0     libucrt:log10.obj
 0002:0000b0f0       __mask_lower               000000018003d0f0     libucrt:log10.obj
 0002:0000b100       __flag_x_zero              000000018003d100     libucrt:log10.obj
 0002:0000b104       __flag_x_neg               000000018003d104     libucrt:log10.obj
 0002:0000b108       __flag_x_nan               000000018003d108     libucrt:log10.obj
 0002:0000c960       __real@433fffffffffffff    000000018003e960     libucrt:fpsr.obj
 0002:0000c968       __real@c33fffffffffffff    000000018003e968     libucrt:fpsr.obj
 0002:0000d6d8       $unwind$?StringCchVPrintfW@@YAJPEA_W_KPEB_WPEAD@Z 000000018003f6d8     ConEmuInjects.obj
 0002:0000d6d8       $unwind$?WaitOverlapped@?$PipeServer@UCESERVER_REQ@@@@IEAAHPEAUPipeInst@1@PEAK@Z 000000018003f6d8     PluginSrv.obj
 0002:0000d6d8       $unwind$??$create_environment@D@@YAQEAPEADQEAD@Z 000000018003f6d8     libucrt:environment_initialization.obj
 0002:0000d6f0       $unwind$?StartupHooks@@YA_NPEAUHINSTANCE__@@@Z 000000018003f6f0     ConEmuInjects.obj
 0002:0000d70c       $unwind$?StartupConsoleHooks@@YAXXZ 000000018003f70c     ConEmuInjects.obj
 0002:0000d70c       $unwind$?ExitFAR@@YAXXZ    000000018003f70c     ConEmuPlugin.obj
 0002:0000d70c       $unwind$?ExitFARW3@@YAXPEAX@Z 000000018003f70c     ConEmuPlugin.obj
 0002:0000d70c       $unwind$ExitFARW           000000018003f70c     ConEmuPlugin.obj
 0002:0000d70c       $unwind$?ShowMessage@CPluginW995@@UEAAHPEB_WH_N@Z 000000018003f70c     ConEmuPlugin995.obj
 0002:0000d70c       $unwind$strtol             000000018003f70c     libucrt:strtox.obj
 0002:0000d70c       $unwind$wcstol             000000018003f70c     libucrt:strtox.obj
 0002:0000d70c       $unwind$wctomb_s           000000018003f70c     libucrt:wctomb.obj
 0002:0000d70c       $unwind$_invalid_parameter_noinfo 000000018003f70c     libucrt:invalid_parameter.obj
 0002:0000d70c       $unwind$_log10_special     000000018003f70c     libucrt:log_special.obj
 0002:0000d70c       $unwind$?_Doraise@bad_alloc@stdext@@MEBAXXZ 000000018003f70c     common-kernel64:CEStr.obj
 0002:0000d714       $unwind$?ShutdownHooks@@YAXXZ 000000018003f714     ConEmuInjects.obj
 0002:0000d714       $unwind$?OnMainThreadActivated@CPluginBase@@QEAAXXZ 000000018003f714     ConEmuPluginBase.obj
 0002:0000d714       $unwind$?UpdateBackground_Exec@CPluginBackground@@KAXPEAURegisterBackgroundArg@@PEAUPaintBackgroundArg@@@Z 000000018003f714     PluginBackground.obj
 0002:0000d720       $unwind$??$swprintf_c@$0EA@@@YAHAEAY0EA@_WPEB_WZZ 000000018003f720     ConEmuInjects.obj
 0002:0000d720       $unwind$??$swprintf_c@$0IA@@@YAHAEAY0IA@_WPEB_WZZ 000000018003f720     ConEmuInjects.obj
 0002:0000d720       $unwind$??$swprintf_c@$0PP@@@YAHAEAY0PP@_WPEB_WZZ 000000018003f720     ConEmuInjects.obj
 0002:0000d720       $unwind$??$swprintf_c@$0BAE@@@YAHAEAY0BAE@_WPEB_WZZ 000000018003f720     ConEmuPluginBase.obj
 0002:0000d720       $unwind$??$swprintf_c@$0DAM@@@YAHAEAY0DAM@_WPEB_WZZ 000000018003f720     ConEmuPluginBase.obj
 0002:0000d720       $unwind$??$swprintf_c@$0EAA@@@YAHAEAY0EAA@_WPEB_WZZ 000000018003f720     ConEmuPluginBase.obj
 0002:0000d720       $unwind$??$swprintf_c@$0MI@@@YAHAEAY0MI@_WPEB_WZZ 000000018003f720     ConEmuPluginBase.obj
 0002:0000d720       $unwind$??$swprintf_c@$09@@YAHAEAY09_WPEB_WZZ 000000018003f720     PluginSrv.obj
 0002:0000d720       $unwind$??$sprintf_c@$0CI@@@YAHAEAY0CI@DPEBDZZ 000000018003f720     common-kernel64:WThreads.obj
 0002:0000d720       $unwind$??$swprintf_c@$0FA@@@YAHAEAY0FA@_WPEB_WZZ 000000018003f720     common-user64:EmergencyShow.obj
 0002:0000d728       $unwind$?OpenPlugin@@YAPEAXH_J@Z 000000018003f728     ConEmuPlugin.obj
 0002:0000d728       $unwind$OpenPluginW        000000018003f728     ConEmuPlugin.obj
 0002:0000d728       $unwind$ProcessSynchroEventW 000000018003f728     ConEmuPlugin.obj
 0002:0000d728       $unwind$??_GCPluginW1900@@UEAAPEAXI@Z 000000018003f728     ConEmuPlugin1900.obj
 0002:0000d728       $unwind$?Open@CPluginW1900@@UEAAPEAXPEBX@Z 000000018003f728     ConEmuPlugin1900.obj
 0002:0000d728       $unwind$??_GCPluginW2800@@UEAAPEAXI@Z 000000018003f728     ConEmuPlugin2800.obj
 0002:0000d728       $unwind$??_Gbad_alloc@std@@UEAAPEAXI@Z 000000018003f728     ConEmuPlugin2800.obj
 0002:0000d728       $unwind$??_Gexception@std@@UEAAPEAXI@Z 000000018003f728     ConEmuPlugin2800.obj
 0002:0000d728       $unwind$??_GCPluginW995@@UEAAPEAXI@Z 000000018003f728     ConEmuPlugin995.obj
 0002:0000d728       $unwind$?LoadFarSettings@CPluginW995@@UEAAXPEAUCEFarInterfaceSettings@@PEAUCEFarPanelSettings@@@Z 000000018003f728     ConEmuPlugin995.obj
 0002:0000d728       $unwind$??_GCPluginAnsi@@UEAAPEAXI@Z 000000018003f728     ConEmuPluginA.obj
 0002:0000d728       $unwind$?GetPluginInfoPtr@CPluginAnsi@@UEAAXPEAX@Z 000000018003f728     ConEmuPluginA.obj
 0002:0000d728       $unwind$?LoadFarSettings@CPluginAnsi@@UEAAXPEAUCEFarInterfaceSettings@@PEAUCEFarPanelSettings@@@Z 000000018003f728     ConEmuPluginA.obj
 0002:0000d728       $unwind$?OutDataAlloc@CPluginBase@@SA_NK@Z 000000018003f728     ConEmuPluginBase.obj
 0002:0000d728       $unwind$?ProcessCommandLine@CPluginBase@@QEAA_NPEA_W@Z 000000018003f728     ConEmuPluginBase.obj
 0002:0000d728       $unwind$?ProcessSynchroEvent@CPluginBase@@QEAAHHPEAX@Z 000000018003f728     ConEmuPluginBase.obj
 0002:0000d728       $unwind$?StopThread@CPluginBase@@QEAAX_N@Z 000000018003f728     ConEmuPluginBase.obj
 0002:0000d728       $unwind$?cmd_GuiChanged@CPluginBase@@QEAAXPEAX@Z 000000018003f728     ConEmuPluginBase.obj
 0002:0000d728       $unwind$?IsParmChanged@CPluginBackground@@IEAA_NPEAUPaintBackgroundArg@@0@Z 000000018003f728     PluginBackground.obj
 0002:0000d728       $unwind$?_PipeServerThread@?$PipeServer@UCESERVER_REQ@@@@KAKPEAX@Z 000000018003f728     PluginSrv.obj
 0002:0000d728       $unwind$_RTC_Initialize    000000018003f728     LIBCMT:initsect.obj
 0002:0000d728       $unwind$_RTC_Terminate     000000018003f728     LIBCMT:initsect.obj
 0002:0000d728       $unwind$?__scrt_initialize_thread_safe_statics@@YAHXZ 000000018003f728     LIBCMT:thread_safe_statics.obj
 0002:0000d728       $unwind$??_Glength_error@std@@UEAAPEAXI@Z 000000018003f728     libcpmt:xthrow.obj
 0002:0000d728       $unwind$??_Glogic_error@std@@UEAAPEAXI@Z 000000018003f728     libcpmt:xthrow.obj
 0002:0000d728       $unwind$__FrameUnwindFilter 000000018003f728     libvcruntime:ehhelpers.obj
 0002:0000d728       $unwind$??_Gbad_exception@std@@UEAAPEAXI@Z 000000018003f728     libvcruntime:frame.obj
 0002:0000d728       $unwind$?ExFilterRethrowFH4@@YAHPEAU_EXCEPTION_POINTERS@@PEAUEHExceptionRecord@@HPEAH@Z 000000018003f728     libvcruntime:frame.obj
 0002:0000d728       $unwind$_FindAndUnlinkFrame 000000018003f728     libvcruntime:risctrnsctrl.obj
 0002:0000d728       $unwind$__vcrt_FlsSetValue 000000018003f728     libvcruntime:winapi_downlevel.obj
 0002:0000d728       $unwind$??$common_initialize_environment_nolock@D@@YAHXZ 000000018003f728     libucrt:environment_initialization.obj
 0002:0000d728       $unwind$__acrt_fp_strflt_to_string 000000018003f728     libucrt:_fptostr.obj
 0002:0000d728       $unwind$_realloc_base      000000018003f728     libucrt:realloc_base.obj
 0002:0000d728       $unwind$?replace_current_thread_locale_nolock@@YAXQEAU__acrt_ptd@@QEAU__crt_locale_data@@@Z 000000018003f728     libucrt:per_thread_data.obj
 0002:0000d728       $unwind$__acrt_execute_uninitializers 000000018003f728     libucrt:shared_initialization.obj
 0002:0000d728       $unwind$__acrt_FlsSetValue 000000018003f728     libucrt:winapi_thunks.obj
 0002:0000d728       $unwind$__acrt_LocaleNameToLCID 000000018003f728     libucrt:winapi_thunks.obj
 0002:0000d728       $unwind$_updatetlocinfoEx_nolock 000000018003f728     libucrt:locale_refcounting.obj
 0002:0000d728       $unwind$_close_nolock      000000018003f728     libucrt:close.obj
 0002:0000d728       $unwind$__acrt_uninitialize_lowio 000000018003f728     libucrt:ioinit.obj
 0002:0000d728       $unwind$__acrt_errno_map_os_error 000000018003f728     libucrt:errno.obj
 0002:0000d728       $unwind$_initterm_e        000000018003f728     libucrt:initterm.obj
 0002:0000d728       $unwind$_fclose_nolock     000000018003f728     libucrt:fclose.obj
 0002:0000d728       $unwind$strncpy_s          000000018003f728     libucrt:strncpy_s.obj
 0002:0000d728       $unwind$?PointToName@@YAPEB_WPEB_W@Z 000000018003f728     common-kernel64:CmdLine.obj
 0002:0000d728       $unwind$?isConsoleClass@@YA_NPEB_W@Z 000000018003f728     common-kernel64:ConEmuCheck.obj
 0002:0000d728       $unwind$?myGetConsoleWindow@@YAPEAUHWND__@@XZ 000000018003f728     common-kernel64:ConEmuCheck.obj
 0002:0000d728       $unwind$??_G?$MToolHelp@UtagPROCESSENTRY32W@@$1?Process32FirstW@@YAHPEAXPEAU1@@Z$1?Process32NextW@@YAH01@Z@@UEAAPEAXI@Z 000000018003f728     common-kernel64:MProcess.obj
 0002:0000d728       $unwind$??_GMToolHelpProcess@@UEAAPEAXI@Z 000000018003f728     common-kernel64:MProcess.obj
 0002:0000d728       $unwind$?Next@?$MToolHelp@UtagPROCESSENTRY32W@@$1?Process32FirstW@@YAHPEAXPEAU1@@Z$1?Process32NextW@@YAH01@Z@@QEAA_NPEAUtagPROCESSENTRY32W@@@Z 000000018003f728     common-kernel64:MProcess.obj
 0002:0000d728       $unwind$?getNext@?$MToolHelp@UtagPROCESSENTRY32W@@$1?Process32FirstW@@YAHPEAXPEAU1@@Z$1?Process32NextW@@YAH01@Z@@IEAA_NXZ 000000018003f728     common-kernel64:MProcess.obj
 0002:0000d728       $unwind$??0MSection@@QEAA@XZ 000000018003f728     common-kernel64:MSection.obj
 0002:0000d728       $unwind$??1MSection@@QEAA@XZ 000000018003f728     common-kernel64:MSection.obj
 0002:0000d728       $unwind$?Unlock@MSection@@IEAAXH@Z 000000018003f728     common-kernel64:MSection.obj
 0002:0000d728       $unwind$??_GMNullDesc@@QEAAPEAXI@Z 000000018003f728     common-kernel64:MSecurity.obj
 0002:0000d734       $unwind$?GetFarHWND2@@YAPEAUHWND__@@H@Z 000000018003f734     ConEmuPlugin.obj
 0002:0000d734       $unwind$?GetPluginInfo@@YAXPEAX@Z 000000018003f734     ConEmuPlugin.obj
 0002:0000d734       $unwind$?GetPluginInfoW@@YAXPEAX@Z 000000018003f734     ConEmuPlugin.obj
 0002:0000d734       $unwind$?IsConsoleActive@@YAHXZ 000000018003f734     ConEmuPlugin.obj
 0002:0000d734       $unwind$?OpenW@@YAPEAXPEBX@Z 000000018003f734     ConEmuPlugin.obj
 0002:0000d734       $unwind$?ProcessEditorEvent@@YAHHPEAX@Z 000000018003f734     ConEmuPlugin.obj
 0002:0000d734       $unwind$?ProcessEditorEventW3@@YA_JPEAX@Z 000000018003f734     ConEmuPlugin.obj
 0002:0000d734       $unwind$?ProcessEditorInput@@YAHPEBU_INPUT_RECORD@@@Z 000000018003f734     ConEmuPlugin.obj
 0002:0000d734       $unwind$?ProcessSynchroEventW3@@YA_JPEAX@Z 000000018003f734     ConEmuPlugin.obj
 0002:0000d734       $unwind$?ProcessViewerEvent@@YAHHPEAX@Z 000000018003f734     ConEmuPlugin.obj
 0002:0000d734       $unwind$?ProcessViewerEventW3@@YA_JPEAX@Z 000000018003f734     ConEmuPlugin.obj
 0002:0000d734       $unwind$?SetStartupInfo@@YAXPEAX@Z 000000018003f734     ConEmuPlugin.obj
 0002:0000d734       $unwind$ProcessEditorEventW 000000018003f734     ConEmuPlugin.obj
 0002:0000d734       $unwind$ProcessEditorInputW 000000018003f734     ConEmuPlugin.obj
 0002:0000d734       $unwind$ProcessViewerEventW 000000018003f734     ConEmuPlugin.obj
 0002:0000d734       $unwind$SetStartupInfoW    000000018003f734     ConEmuPlugin.obj
 0002:0000d734       $unwind$?GetFarRect@CPluginW1900@@UEAA_NAEAU_SMALL_RECT@@@Z 000000018003f734     ConEmuPlugin1900.obj
 0002:0000d734       $unwind$?GetPluginInfoPtr@CPluginW1900@@UEAAXPEAX@Z 000000018003f734     ConEmuPlugin1900.obj
 0002:0000d734       $unwind$?ProcessSynchroEventPtr@CPluginW1900@@UEAAHPEAX@Z 000000018003f734     ConEmuPlugin1900.obj
 0002:0000d734       $unwind$??0bad_alloc@std@@QEAA@AEBV01@@Z 000000018003f734     ConEmuPlugin2800.obj
 0002:0000d734       $unwind$??0exception@std@@QEAA@AEBV01@@Z 000000018003f734     ConEmuPlugin2800.obj
 0002:0000d734       $unwind$?GetFarRect@CPluginW2800@@UEAA_NAEAU_SMALL_RECT@@@Z 000000018003f734     ConEmuPlugin2800.obj
 0002:0000d734       $unwind$?GetPluginInfoPtr@CPluginW2800@@UEAAXPEAX@Z 000000018003f734     ConEmuPlugin2800.obj
 0002:0000d734       $unwind$?ProcessSynchroEventPtr@CPluginW2800@@UEAAHPEAX@Z 000000018003f734     ConEmuPlugin2800.obj
 0002:0000d734       $unwind$?push_back@?$MArray@UWindowInfo@@@@QEAA_JAEBUWindowInfo@@@Z 000000018003f734     ConEmuPlugin2800.obj
 0002:0000d734       $unwind$?GetFarRect@CPluginW995@@UEAA_NAEAU_SMALL_RECT@@@Z 000000018003f734     ConEmuPlugin995.obj
 0002:0000d734       $unwind$?GetPluginInfoPtr@CPluginW995@@UEAAXPEAX@Z 000000018003f734     ConEmuPlugin995.obj
 0002:0000d734       $unwind$?PanelControlApi@CPluginW995@@UEAA_JPEAXH_J0@Z 000000018003f734     ConEmuPlugin995.obj
 0002:0000d734       $unwind$??1?$MFileMapping@UCESERVER_CONSOLE_MAPPING_HDR@@@@QEAA@XZ 000000018003f734     ConEmuPluginBase.obj
 0002:0000d734       $unwind$??_GCPluginBase@@UEAAPEAXI@Z 000000018003f734     ConEmuPluginBase.obj
 0002:0000d734       $unwind$?BackgroundMacroError@CPluginBase@@SAKPEAX@Z 000000018003f734     ConEmuPluginBase.obj
 0002:0000d734       $unwind$?CheckBufferEnabled@CPluginBase@@QEAA_NXZ 000000018003f734     ConEmuPluginBase.obj
 0002:0000d734       $unwind$?CloseMapHeader@CPluginBase@@SAXXZ 000000018003f734     ConEmuPluginBase.obj
 0002:0000d734       $unwind$?DllMain_ProcessDetach@CPluginBase@@KAXXZ 000000018003f734     ConEmuPluginBase.obj
 0002:0000d734       $unwind$?ExecuteSynchro@CPluginBase@@QEAAXXZ 000000018003f734     ConEmuPluginBase.obj
 0002:0000d734       $unwind$?ExitFarCommon@CPluginBase@@QEAAX_N@Z 000000018003f734     ConEmuPluginBase.obj
 0002:0000d734       $unwind$?OnConsolePeekInput@CPluginBase@@SAHPEAUHookCallbackArg@@@Z 000000018003f734     ConEmuPluginBase.obj
 0002:0000d734       $unwind$?OnConsoleReadInputWork@CPluginBase@@SAHPEAUHookCallbackArg@@@Z 000000018003f734     ConEmuPluginBase.obj
 0002:0000d734       $unwind$?OnShellExecuteExW_Except@CPluginBase@@SAHPEAUHookCallbackArg@@@Z 000000018003f734     ConEmuPluginBase.obj
 0002:0000d734       $unwind$?ReloadFarInfoApi@CPluginBase@@IEAA_NXZ 000000018003f734     ConEmuPluginBase.obj
 0002:0000d734       $unwind$?SwitchTabCommand@CPluginBase@@QEAAXW4PluginMenuCommands@@@Z 000000018003f734     ConEmuPluginBase.obj
 0002:0000d734       $unwind$?isMacroActive@CPluginBase@@QEAA_NAEAH@Z 000000018003f734     ConEmuPluginBase.obj
 0002:0000d734       $unwind$?pcc_Disabled@CPluginBase@@SA_NW4PluginMenuCommands@@@Z 000000018003f734     ConEmuPluginBase.obj
 0002:0000d734       $unwind$?pcc_Selected@CPluginBase@@SA_NW4PluginMenuCommands@@@Z 000000018003f734     ConEmuPluginBase.obj
 0002:0000d734       $unwind$??1?$MFileMapping@UPanelViewSetMapping@@@@QEAA@XZ 000000018003f734     PluginBackground.obj
 0002:0000d734       $unwind$?MonitorBackground@CPluginBackground@@QEAAXXZ 000000018003f734     PluginBackground.obj
 0002:0000d734       $unwind$?OnMainThreadActivated@CPluginBackground@@QEAAXHH@Z 000000018003f734     PluginBackground.obj
 0002:0000d734       $unwind$?PlugServerStop@@YAX_N@Z 000000018003f734     PluginSrv.obj
 0002:0000d734       $unwind$__raise_securityfailure 000000018003f734     LIBCMT:gs_report.obj
 0002:0000d734       $unwind$??_Gtype_info@@UEAAPEAXI@Z 000000018003f734     LIBCMT:std_type_info_static.obj
 0002:0000d734       $unwind$_Init_thread_footer 000000018003f734     LIBCMT:thread_safe_statics.obj
 0002:0000d734       $unwind$_Init_thread_header 000000018003f734     LIBCMT:thread_safe_statics.obj
 0002:0000d734       $unwind$_Init_thread_wait  000000018003f734     LIBCMT:thread_safe_statics.obj
 0002:0000d734       $unwind$__scrt_initialize_crt 000000018003f734     LIBCMT:utility.obj
 0002:0000d734       $unwind$__scrt_initialize_onexit_tables 000000018003f734     LIBCMT:utility.obj
 0002:0000d734       $unwind$__scrt_release_startup_lock 000000018003f734     LIBCMT:utility.obj
 0002:0000d734       $unwind$__scrt_uninitialize_crt 000000018003f734     LIBCMT:utility.obj
 0002:0000d734       $unwind$_onexit            000000018003f734     LIBCMT:utility.obj
 0002:0000d734       $unwind$??0length_error@std@@QEAA@AEBV01@@Z 000000018003f734     libcpmt:xthrow.obj
 0002:0000d734       $unwind$??0logic_error@std@@QEAA@AEBV01@@Z 000000018003f734     libcpmt:xthrow.obj
 0002:0000d734       $unwind$_IsExceptionObjectToBeDestroyed 000000018003f734     libvcruntime:ehhelpers.obj
 0002:0000d734       $unwind$??0HandlerMap4@FH4@@QEAA@PEBUTryBlockMapEntry4@1@_KH@Z 000000018003f734     libvcruntime:frame.obj
 0002:0000d734       $unwind$??0bad_exception@std@@QEAA@AEBV01@@Z 000000018003f734     libvcruntime:frame.obj
 0002:0000d734       $unwind$?ExFilterRethrow@@YAHPEAU_EXCEPTION_POINTERS@@PEAUEHExceptionRecord@@PEAH@Z 000000018003f734     libvcruntime:frame.obj
 0002:0000d734       $unwind$__vcrt_uninitialize_locks 000000018003f734     libvcruntime:locks.obj
 0002:0000d734       $unwind$__vcrt_freeptd     000000018003f734     libvcruntime:per_thread_data.obj
 0002:0000d734       $unwind$_CreateFrameInfo   000000018003f734     libvcruntime:risctrnsctrl.obj
 0002:0000d734       $unwind$_SetImageBase      000000018003f734     libvcruntime:risctrnsctrl.obj
 0002:0000d734       $unwind$_SetThrowImageBase 000000018003f734     libvcruntime:risctrnsctrl.obj
 0002:0000d734       $unwind$__std_exception_destroy 000000018003f734     libvcruntime:std_exception.obj
 0002:0000d734       $unwind$__std_type_info_destroy_list 000000018003f734     libvcruntime:std_type_info.obj
 0002:0000d734       $unwind$__vcrt_FlsAlloc    000000018003f734     libvcruntime:winapi_downlevel.obj
 0002:0000d734       $unwind$__vcrt_FlsFree     000000018003f734     libvcruntime:winapi_downlevel.obj
 0002:0000d734       $unwind$__vcrt_FlsGetValue 000000018003f734     libvcruntime:winapi_downlevel.obj
 0002:0000d734       $unwind$_calloc_base       000000018003f734     libucrt:calloc_base.obj
 0002:0000d734       $unwind$_malloc_base       000000018003f734     libucrt:malloc_base.obj
 0002:0000d734       $unwind$_callnewh          000000018003f734     libucrt:new_handler.obj
 0002:0000d734       $unwind$initialize_pointers 000000018003f734     libucrt:initialization.obj
 0002:0000d734       $unwind$uninitialize_allocated_memory 000000018003f734     libucrt:initialization.obj
 0002:0000d734       $unwind$__acrt_initialize_locks 000000018003f734     libucrt:locks.obj
 0002:0000d734       $unwind$__acrt_uninitialize_locks 000000018003f734     libucrt:locks.obj
 0002:0000d734       $unwind$__acrt_freeptd     000000018003f734     libucrt:per_thread_data.obj
 0002:0000d734       $unwind$__acrt_getptd_head 000000018003f734     libucrt:per_thread_data.obj
 0002:0000d734       $unwind$__acrt_get_process_end_policy 000000018003f734     libucrt:win_policies.obj
 0002:0000d734       $unwind$__acrt_AppPolicyGetProcessTerminationMethodInternal 000000018003f734     libucrt:winapi_thunks.obj
 0002:0000d734       $unwind$__acrt_FlsAlloc    000000018003f734     libucrt:winapi_thunks.obj
 0002:0000d734       $unwind$__acrt_FlsFree     000000018003f734     libucrt:winapi_thunks.obj
 0002:0000d734       $unwind$__acrt_FlsGetValue 000000018003f734     libucrt:winapi_thunks.obj
 0002:0000d734       $unwind$__acrt_uninitialize_winapi_thunks 000000018003f734     libucrt:winapi_thunks.obj
 0002:0000d734       $unwind$__acrt_update_locale_info 000000018003f734     libucrt:locale_update.obj
 0002:0000d734       $unwind$__acrt_update_multibyte_info 000000018003f734     libucrt:locale_update.obj
 0002:0000d734       $unwind$__acrt_allocate_buffer_for_argv 000000018003f734     libucrt:argv_parsing.obj
 0002:0000d734       $unwind$?exit_or_terminate_process@@YAXI@Z 000000018003f734     libucrt:exit.obj
 0002:0000d734       $unwind$?try_cor_exit_process@@YAXI@Z 000000018003f734     libucrt:exit.obj
 0002:0000d734       $unwind$__acrt_uninitialize_stdio 000000018003f734     libucrt:_file.obj
 0002:0000d734       $unwind$__acrt_stdio_free_buffer_nolock 000000018003f734     libucrt:_freebuf.obj
 0002:0000d734       $unwind$_fflush_nolock     000000018003f734     libucrt:fflush.obj
 0002:0000d734       $unwind$?state_case_normal@?$output_processor@DV?$string_output_adapter@D@__crt_stdio_output@@V?$standard_base@DV?$string_output_adapter@D@__crt_stdio_output@@@2@@__crt_stdio_output@@AEAA_NXZ 000000018003f734     libucrt:output.obj
 0002:0000d734       $unwind$?type_case_c_tchar@?$output_processor@DV?$string_output_adapter@D@__crt_stdio_output@@V?$standard_base@DV?$string_output_adapter@D@__crt_stdio_output@@@2@@__crt_stdio_output@@AEAA_ND@Z 000000018003f734     libucrt:output.obj
 0002:0000d734       $unwind$?type_case_s@?$output_processor@DV?$string_output_adapter@D@__crt_stdio_output@@V?$standard_base@DV?$string_output_adapter@D@__crt_stdio_output@@@2@@__crt_stdio_output@@AEAA_NXZ 000000018003f734     libucrt:output.obj
 0002:0000d734       $unwind$strcpy_s           000000018003f734     libucrt:strcpy_s.obj
 0002:0000d734       $unwind$_clrfp             000000018003f734     libucrt:fpctrl.obj
 0002:0000d734       $unwind$_set_statfp        000000018003f734     libucrt:fpctrl.obj
 0002:0000d734       $unwind$_clearfp           000000018003f734     libucrt:ieee.obj
 0002:0000d734       $unwind$fegetenv           000000018003f734     libucrt:fegetenv.obj
 0002:0000d734       $unwind$feholdexcept       000000018003f734     libucrt:feholdexcept.obj
 0002:0000d734       $unwind$fesetenv           000000018003f734     libucrt:fesetenv.obj
 0002:0000d734       $unwind$??0CEStr@@QEAA@$$QEAPEA_W@Z 000000018003f734     common-kernel64:CEStr.obj
 0002:0000d734       $unwind$??1CEStr@@QEAA@XZ  000000018003f734     common-kernel64:CEStr.obj
 0002:0000d734       $unwind$??4CEStr@@QEAAAEAU0@PEB_W@Z 000000018003f734     common-kernel64:CEStr.obj
 0002:0000d734       $unwind$??_Gbad_alloc@stdext@@UEAAPEAXI@Z 000000018003f734     common-kernel64:CEStr.obj
 0002:0000d734       $unwind$??_Gexception@stdext@@UEAAPEAXI@Z 000000018003f734     common-kernel64:CEStr.obj
 0002:0000d734       $unwind$?GetMaxCount@CEStr@@QEAA_JXZ 000000018003f734     common-kernel64:CEStr.obj
 0002:0000d734       $unwind$?IsEnvBlockVariableValid@@YA_NPEB_W@Z 000000018003f734     common-kernel64:Common.obj
 0002:0000d734       $unwind$??1CEnvStrings@@QEAA@XZ 000000018003f734     common-kernel64:EnvVar.obj
 0002:0000d734       $unwind$?Clear@CEnvRestorer@@QEAAXXZ 000000018003f734     common-kernel64:EnvVar.obj
 0002:0000d734       $unwind$?SavePathVar@CEnvRestorer@@QEAAXPEB_W@Z 000000018003f734     common-kernel64:EnvVar.obj
 0002:0000d734       $unwind$?Free@MModule@@QEAAXXZ 000000018003f734     common-kernel64:MModule.obj
 0002:0000d734       $unwind$??0?$MToolHelp@UtagPROCESSENTRY32W@@$1?Process32FirstW@@YAHPEAXPEAU1@@Z$1?Process32NextW@@YAH01@Z@@QEAA@KK@Z 000000018003f734     common-kernel64:MProcess.obj
 0002:0000d734       $unwind$??0MSectionThread@@QEAA@PEAVMSection@@@Z 000000018003f734     common-kernel64:MSection.obj
 0002:0000d734       $unwind$??1MSectionLock@@QEAA@XZ 000000018003f734     common-kernel64:MSection.obj
 0002:0000d734       $unwind$?Lock@MSectionLock@@QEAAHPEAVMSection@@HK@Z 000000018003f734     common-kernel64:MSection.obj
 0002:0000d734       $unwind$?Unlock@MSectionLock@@QEAAXXZ 000000018003f734     common-kernel64:MSection.obj
 0002:0000d734       $unwind$??0MSectionSimple@@QEAA@_N@Z 000000018003f734     common-kernel64:MSectionSimple.obj
 0002:0000d734       $unwind$??1MSectionSimple@@QEAA@XZ 000000018003f734     common-kernel64:MSectionSimple.obj
 0002:0000d734       $unwind$?Close@MSectionSimple@@QEAAXXZ 000000018003f734     common-kernel64:MSectionSimple.obj
 0002:0000d734       $unwind$?Init@MSectionSimple@@QEAAXXZ 000000018003f734     common-kernel64:MSectionSimple.obj
 0002:0000d734       $unwind$?TryEnter@MSectionSimple@@QEAA_NXZ 000000018003f734     common-kernel64:MSectionSimple.obj
 0002:0000d734       $unwind$??1?$MFileMapping@UConEmuGuiMapping@@@@QEAA@XZ 000000018003f734     common-user64:ConEmuCheckEx.obj
 0002:0000d734       $unwind$?GetAllMonitorsWorkspace@@YA?AUtagRECT@@XZ 000000018003f734     common-user64:Monitors.obj
 0002:0000d734       $unwind$?SetConEmuEnvVarChild@@YAXPEAUHWND__@@0@Z 000000018003f734     common-user64:SetEnvVar.obj
 0002:0000d73c       $unwind$?RegisterPanelView@@YAHPEAUPanelViewInit@@@Z 000000018003f73c     ConEmuPlugin.obj
 0002:0000d758       $unwind$?RegisterBackground@@YAHPEAURegisterBackgroundArg@@@Z 000000018003f758     ConEmuPlugin.obj
 0002:0000d768       $cppxdata$?RegisterBackground@@YAHPEAURegisterBackgroundArg@@@Z 000000018003f768     ConEmuPlugin.obj
 0002:0000d771       $stateUnwindMap$?RegisterBackground@@YAHPEAURegisterBackgroundArg@@@Z 000000018003f771     ConEmuPlugin.obj
 0002:0000d777       $ip2state$?RegisterBackground@@YAHPEAURegisterBackgroundArg@@@Z 000000018003f777     ConEmuPlugin.obj
 0002:0000d77c       $unwind$?dtor$0@?0??RegisterBackground@@YAHPEAURegisterBackgroundArg@@@Z@4HA 000000018003f77c     ConEmuPlugin.obj
 0002:0000d77c       $unwind$?dtor$0@?0??UpdateConEmuTabsApi@CPluginW2800@@UEAA_NH@Z@4HA 000000018003f77c     ConEmuPlugin2800.obj
 0002:0000d77c       $unwind$?dtor$0@?0??DllMain_ProcessAttach@CPluginBase@@KAXPEAUHINSTANCE__@@@Z@4HA 000000018003f77c     ConEmuPluginBase.obj
 0002:0000d77c       $unwind$?dtor$0@?0??Plugin@@YAPEAVCPluginBase@@XZ@4HA 000000018003f77c     ConEmuPluginBase.obj
 0002:0000d77c       $unwind$?dtor$1@?0??DllMain_ProcessAttach@CPluginBase@@KAXPEAUHINSTANCE__@@@Z@4HA 000000018003f77c     ConEmuPluginBase.obj
 0002:0000d77c       $unwind$?dtor$1@?0??Plugin@@YAPEAVCPluginBase@@XZ@4HA 000000018003f77c     ConEmuPluginBase.obj
 0002:0000d77c       $unwind$?dtor$2@?0??Plugin@@YAPEAVCPluginBase@@XZ@4HA 000000018003f77c     ConEmuPluginBase.obj
 0002:0000d77c       $unwind$?dtor$3@?0??Plugin@@YAPEAVCPluginBase@@XZ@4HA 000000018003f77c     ConEmuPluginBase.obj
 0002:0000d77c       $unwind$?dtor$0@?0???0CPluginBackground@@QEAA@XZ@4HA 000000018003f77c     PluginBackground.obj
 0002:0000d77c       $unwind$?fin$0@?0??dllmain_crt_process_attach@@YAHQEAUHINSTANCE__@@QEAX@Z@4HA 000000018003f77c     LIBCMT:dll_dllmain.obj
 0002:0000d77c       $unwind$?fin$0@?0??dllmain_crt_process_detach@@YAH_N@Z@4HA 000000018003f77c     LIBCMT:dll_dllmain.obj
 0002:0000d77c       $unwind$?fin$1@?0??dllmain_crt_process_detach@@YAH_N@Z@4HA 000000018003f77c     LIBCMT:dll_dllmain.obj
 0002:0000d77c       $unwind$_IsNonwritableInCurrentImage$filt$0 000000018003f77c     LIBCMT:pesect.obj
 0002:0000d77c       $unwind$?filt$0@?0??CxxCallCatchBlock@__FrameHandler4@@SAPEAXPEAU_EXCEPTION_RECORD@@@Z@4HA 000000018003f77c     libvcruntime:frame.obj
 0002:0000d77c       $unwind$_query_new_handler$fin$0 000000018003f77c     libucrt:new_handler.obj
 0002:0000d77c       $unwind$?fin$0@?0???$?RV<lambda_0ae27a3a962d80f24befdcbee591983d>@@AEAV<lambda_8d0ee55de4b1038c4002e0adecdf1839>@@V<lambda_dc504788e8f1664fe9b84e20bfb512f2>@@@?$__crt_seh_guarded_call@X@@QEAAX$$QEAV<lambda_0ae27a3a962d80f24befdcbee591983d>@@AEAV<lambda_8d0ee55de4b1038c4002e0adecdf1839>@@$$QEAV<lambda_dc504788e8f1664fe9b84e20bfb512f2>@@@Z@4HA 000000018003f77c     libucrt:per_thread_data.obj
 0002:0000d77c       $unwind$?fin$0@?0???$?RV<lambda_2d41944a1d46af3157314b8a01080d33>@@AEAV<lambda_8f455de75cd7d7f24b4096f044d8b9e6>@@V<lambda_aa500f224e6afead328df44964fe2772>@@@?$__crt_seh_guarded_call@X@@QEAAX$$QEAV<lambda_2d41944a1d46af3157314b8a01080d33>@@AEAV<lambda_8f455de75cd7d7f24b4096f044d8b9e6>@@$$QEAV<lambda_aa500f224e6afead328df44964fe2772>@@@Z@4HA 000000018003f77c     libucrt:per_thread_data.obj
 0002:0000d77c       $unwind$?fin$0@?0???$?RV<lambda_aa87e3671a710a21b5dc78c0bdf72e11>@@AEAV<lambda_92619d2358a28f41a33ba319515a20b9>@@V<lambda_6992ecaafeb10aed2b74cb1fae11a551>@@@?$__crt_seh_guarded_call@X@@QEAAX$$QEAV<lambda_aa87e3671a710a21b5dc78c0bdf72e11>@@AEAV<lambda_92619d2358a28f41a33ba319515a20b9>@@$$QEAV<lambda_6992ecaafeb10aed2b74cb1fae11a551>@@@Z@4HA 000000018003f77c     libucrt:per_thread_data.obj
 0002:0000d77c       $unwind$?fin$0@?0???$?RV<lambda_f2e299630e499de9f9a165e60fcd3db5>@@AEAV<lambda_2ae9d31cdba2644fcbeaf08da7c24588>@@V<lambda_40d01ff24d0e7b3814fdbdcee8eab3c7>@@@?$__crt_seh_guarded_call@X@@QEAAX$$QEAV<lambda_f2e299630e499de9f9a165e60fcd3db5>@@AEAV<lambda_2ae9d31cdba2644fcbeaf08da7c24588>@@$$QEAV<lambda_40d01ff24d0e7b3814fdbdcee8eab3c7>@@@Z@4HA 000000018003f77c     libucrt:per_thread_data.obj
 0002:0000d77c       $unwind$__acrt_update_thread_locale_data$fin$0 000000018003f77c     libucrt:locale_refcounting.obj
 0002:0000d77c       $unwind$?fin$0@?0???$?RV<lambda_410d79af7f07d98d83a3f525b3859a53>@@AEAV<lambda_3e16ef9562a7dcce91392c22ab16ea36>@@V<lambda_38119f0e861e05405d8a144b9b982f0a>@@@?$__crt_seh_guarded_call@X@@QEAAX$$QEAV<lambda_410d79af7f07d98d83a3f525b3859a53>@@AEAV<lambda_3e16ef9562a7dcce91392c22ab16ea36>@@$$QEAV<lambda_38119f0e861e05405d8a144b9b982f0a>@@@Z@4HA 000000018003f77c     libucrt:wsetlocale.obj
 0002:0000d77c       $unwind$?fin$0@?0???$?RV<lambda_751a882b2c74d4b022dec766aa51a29a>@@AEAV<lambda_628dfdc04ba53c8bfc02c9951375f3f5>@@V<lambda_f6c7be5f7998530c34de24c7437d6b54>@@@?$__crt_seh_guarded_call@H@@QEAAH$$QEAV<lambda_751a882b2c74d4b022dec766aa51a29a>@@AEAV<lambda_628dfdc04ba53c8bfc02c9951375f3f5>@@$$QEAV<lambda_f6c7be5f7998530c34de24c7437d6b54>@@@Z@4HA 000000018003f77c     libucrt:close.obj
 0002:0000d77c       $unwind$?fin$0@?0???$?RV<lambda_a37b2b86f63e897a80ea819b0eb08c01>@@AEAV<lambda_38ce7e780aa69e748d6df282ebc68efe>@@V<lambda_99fb1378e971ab6e7edea83e3a7a83a2>@@@?$__crt_seh_guarded_call@H@@QEAAH$$QEAV<lambda_a37b2b86f63e897a80ea819b0eb08c01>@@AEAV<lambda_38ce7e780aa69e748d6df282ebc68efe>@@$$QEAV<lambda_99fb1378e971ab6e7edea83e3a7a83a2>@@@Z@4HA 000000018003f77c     libucrt:commit.obj
 0002:0000d77c       $unwind$__acrt_initialize_lowio$fin$0 000000018003f77c     libucrt:ioinit.obj
 0002:0000d77c       $unwind$__acrt_lowio_ensure_fh_exists$fin$0 000000018003f77c     libucrt:osfinfo.obj
 0002:0000d77c       $unwind$_write$fin$0       000000018003f77c     libucrt:write.obj
 0002:0000d77c       $unwind$?fin$0@?0???$?RV<lambda_efdfa57d1f175319df784efa44bb7b81>@@AEAV<lambda_5f0a4c1567f8adc6734073e5d1e1b35c>@@V<lambda_2e8a7d3640ea6ccb4c2413664c2db6fd>@@@?$__crt_seh_guarded_call@X@@QEAAX$$QEAV<lambda_efdfa57d1f175319df784efa44bb7b81>@@AEAV<lambda_5f0a4c1567f8adc6734073e5d1e1b35c>@@$$QEAV<lambda_2e8a7d3640ea6ccb4c2413664c2db6fd>@@@Z@4HA 000000018003f77c     libucrt:mbctype.obj
 0002:0000d77c       $unwind$?fin$0@?0??update_thread_multibyte_data_internal@@YAPEAU__crt_multibyte_data@@QEAU__acrt_ptd@@QEAPEAU1@@Z@4HA 000000018003f77c     libucrt:mbctype.obj
 0002:0000d77c       $unwind$?fin$0@?0???$?RV<lambda_450d765d439847d4c735a33c368b5fc0>@@AEAV<lambda_44731a7d0e6d81c3e6aa82d741081786>@@V<lambda_601a2a7da3b7a96e9554ac7215c4b07c>@@@?$__crt_seh_guarded_call@P6AXH@Z@@QEAAP6AXH@Z$$QEAV<lambda_450d765d439847d4c735a33c368b5fc0>@@AEAV<lambda_44731a7d0e6d81c3e6aa82d741081786>@@$$QEAV<lambda_601a2a7da3b7a96e9554ac7215c4b07c>@@@Z@4HA 000000018003f77c     libucrt:signal.obj
 0002:0000d77c       $unwind$raise$fin$0        000000018003f77c     libucrt:signal.obj
 0002:0000d77c       $unwind$?filt$0@?0???R<lambda_6e4b09c48022b2350581041d5f6b0c4c>@@QEBA@XZ@4HA 000000018003f77c     libucrt:exit.obj
 0002:0000d77c       $unwind$?fin$0@?0???$?RV<lambda_d80eeec6fff315bfe5c115232f3240e3>@@AEAV<lambda_6e4b09c48022b2350581041d5f6b0c4c>@@V<lambda_2358e3775559c9db80273638284d5e45>@@@?$__crt_seh_guarded_call@X@@QEAAX$$QEAV<lambda_d80eeec6fff315bfe5c115232f3240e3>@@AEAV<lambda_6e4b09c48022b2350581041d5f6b0c4c>@@$$QEAV<lambda_2358e3775559c9db80273638284d5e45>@@@Z@4HA 000000018003f77c     libucrt:exit.obj
 0002:0000d77c       $unwind$?fin$0@?0???$?RV<lambda_638799b9deba96c50f710eeac98168cd>@@AEAV<lambda_22ebabd17bc4fa466a2aca6d8deb888d>@@V<lambda_a6f7d7db0129f75315ebf26d50c089f1>@@@?$__crt_seh_guarded_call@H@@QEAAH$$QEAV<lambda_638799b9deba96c50f710eeac98168cd>@@AEAV<lambda_22ebabd17bc4fa466a2aca6d8deb888d>@@$$QEAV<lambda_a6f7d7db0129f75315ebf26d50c089f1>@@@Z@4HA 000000018003f77c     libucrt:onexit.obj
 0002:0000d77c       $unwind$?fin$0@?0???$?RV<lambda_7777bce6b2f8c936911f934f8298dc43>@@AEAV<lambda_f03950bc5685219e0bcd2087efbe011e>@@V<lambda_3883c3dff614d5e0c5f61bb1ac94921c>@@@?$__crt_seh_guarded_call@H@@QEAAH$$QEAV<lambda_7777bce6b2f8c936911f934f8298dc43>@@AEAV<lambda_f03950bc5685219e0bcd2087efbe011e>@@$$QEAV<lambda_3883c3dff614d5e0c5f61bb1ac94921c>@@@Z@4HA 000000018003f77c     libucrt:onexit.obj
 0002:0000d77c       $unwind$_fcloseall$fin$0   000000018003f77c     libucrt:closeall.obj
 0002:0000d77c       $unwind$fclose$fin$0       000000018003f77c     libucrt:fclose.obj
 0002:0000d77c       $unwind$?fin$0@?0???$?RV<lambda_842d9ff0dc9ef11c61343bbaebe7f885>@@AEAV<lambda_c5860995281e5c4ce005b3de8f5874ee>@@V<lambda_d90129c13df834fdcbf8d2b88dafcf2d>@@@?$__crt_seh_guarded_call@X@@QEAAX$$QEAV<lambda_842d9ff0dc9ef11c61343bbaebe7f885>@@AEAV<lambda_c5860995281e5c4ce005b3de8f5874ee>@@$$QEAV<lambda_d90129c13df834fdcbf8d2b88dafcf2d>@@@Z@4HA 000000018003f77c     libucrt:fflush.obj
 0002:0000d77c       $unwind$?fin$0@?0???$?RV<lambda_886d6c58226a84441f68b9f2b8217b83>@@AEAV<lambda_ab61a845afdef5b7c387490eaf3616ee>@@V<lambda_f7f22ab5edc0698d5f6905b0d3f44752>@@@?$__crt_seh_guarded_call@X@@QEAAX$$QEAV<lambda_886d6c58226a84441f68b9f2b8217b83>@@AEAV<lambda_ab61a845afdef5b7c387490eaf3616ee>@@$$QEAV<lambda_f7f22ab5edc0698d5f6905b0d3f44752>@@@Z@4HA 000000018003f77c     libucrt:fflush.obj
 0002:0000d77c       $unwind$_ctrlfp$filt$0     000000018003f77c     libucrt:fpctrl.obj
 0002:0000d784       $unwind$?SyncExecute@@YAHPEAUHINSTANCE__@@P6AX_J@Z1@Z 000000018003f784     ConEmuPlugin.obj
 0002:0000d78c       $unwind$?ActivateConsole@@YAHXZ 000000018003f78c     ConEmuPlugin.obj
 0002:0000d7a0       $unwind$?GetMinFarVersion@@YAHXZ 000000018003f7a0     ConEmuPlugin.obj
 0002:0000d7a0       $unwind$DllMain            000000018003f7a0     ConEmuPlugin.obj
 0002:0000d7a0       $unwind$?CheckPanelExist@CPluginW1900@@UEAA_NXZ 000000018003f7a0     ConEmuPlugin1900.obj
 0002:0000d7a0       $unwind$?ExecuteSynchroApi@CPluginW1900@@UEAA_NXZ 000000018003f7a0     ConEmuPlugin1900.obj
 0002:0000d7a0       $unwind$?GetActiveWindowType@CPluginW1900@@UEAAHXZ 000000018003f7a0     ConEmuPlugin1900.obj
 0002:0000d7a0       $unwind$?IsMacroActive@CPluginW1900@@UEAA_NXZ 000000018003f7a0     ConEmuPlugin1900.obj
 0002:0000d7a0       $unwind$?ProcessEditorInputPtr@CPluginW1900@@UEAAHPEBX@Z 000000018003f7a0     ConEmuPlugin1900.obj
 0002:0000d7a0       $unwind$?RedrawAll@CPluginW1900@@UEAAXXZ 000000018003f7a0     ConEmuPlugin1900.obj
 0002:0000d7a0       $unwind$?SetWindow@CPluginW1900@@UEAAXH@Z 000000018003f7a0     ConEmuPlugin1900.obj
 0002:0000d7a0       $unwind$?ShowUserScreen@CPluginW1900@@UEAAX_N@Z 000000018003f7a0     ConEmuPlugin1900.obj
 0002:0000d7a0       $unwind$?CheckPanelExist@CPluginW2800@@UEAA_NXZ 000000018003f7a0     ConEmuPlugin2800.obj
 0002:0000d7a0       $unwind$?ExecuteSynchroApi@CPluginW2800@@UEAA_NXZ 000000018003f7a0     ConEmuPlugin2800.obj
 0002:0000d7a0       $unwind$?GetActiveWindowType@CPluginW2800@@UEAAHXZ 000000018003f7a0     ConEmuPlugin2800.obj
 0002:0000d7a0       $unwind$?IsMacroActive@CPluginW2800@@UEAA_NXZ 000000018003f7a0     ConEmuPlugin2800.obj
 0002:0000d7a0       $unwind$?ProcessEditorInputPtr@CPluginW2800@@UEAAHPEBX@Z 000000018003f7a0     ConEmuPlugin2800.obj
 0002:0000d7a0       $unwind$?RedrawAll@CPluginW2800@@UEAAXXZ 000000018003f7a0     ConEmuPlugin2800.obj
 0002:0000d7a0       $unwind$?ShowUserScreen@CPluginW2800@@UEAAX_N@Z 000000018003f7a0     ConEmuPlugin2800.obj
 0002:0000d7a0       $unwind$?_Xlength@?$vector@UWindowInfo@@V?$MArrayAllocator@UWindowInfo@@@@@std@@CAXXZ 000000018003f7a0     ConEmuPlugin2800.obj
 0002:0000d7a0       $unwind$?deallocate@?$MArrayAllocator@UWindowInfo@@@@QEAAXPEAUWindowInfo@@_K@Z 000000018003f7a0     ConEmuPlugin2800.obj
 0002:0000d7a0       $unwind$?CheckPanelExist@CPluginW995@@UEAA_NXZ 000000018003f7a0     ConEmuPlugin995.obj
 0002:0000d7a0       $unwind$?ExecuteSynchroApi@CPluginW995@@UEAA_NXZ 000000018003f7a0     ConEmuPlugin995.obj
 0002:0000d7a0       $unwind$?ProcessEditorInputPtr@CPluginW995@@UEAAHPEBX@Z 000000018003f7a0     ConEmuPlugin995.obj
 0002:0000d7a0       $unwind$?RedrawAll@CPluginW995@@UEAAXXZ 000000018003f7a0     ConEmuPlugin995.obj
 0002:0000d7a0       $unwind$?SetWindow@CPluginW995@@UEAAXH@Z 000000018003f7a0     ConEmuPlugin995.obj
 0002:0000d7a0       $unwind$?ShowUserScreen@CPluginW995@@UEAAX_N@Z 000000018003f7a0     ConEmuPlugin995.obj
 0002:0000d7a0       $unwind$?StopWaitEndSynchro@CPluginW995@@UEAAXXZ 000000018003f7a0     ConEmuPlugin995.obj
 0002:0000d7a0       $unwind$?CheckPanelExist@CPluginAnsi@@UEAA_NXZ 000000018003f7a0     ConEmuPluginA.obj
 0002:0000d7a0       $unwind$?ExitFar@CPluginAnsi@@UEAAXXZ 000000018003f7a0     ConEmuPluginA.obj
 0002:0000d7a0       $unwind$?PanelControlApi@CPluginAnsi@@UEAA_JPEAXH_J0@Z 000000018003f7a0     ConEmuPluginA.obj
 0002:0000d7a0       $unwind$?RedrawAll@CPluginAnsi@@UEAAXXZ 000000018003f7a0     ConEmuPluginA.obj
 0002:0000d7a0       $unwind$?SetWindow@CPluginAnsi@@UEAAXH@Z 000000018003f7a0     ConEmuPluginA.obj
 0002:0000d7a0       $unwind$?ShowUserScreen@CPluginAnsi@@UEAAX_N@Z 000000018003f7a0     ConEmuPluginA.obj
 0002:0000d7a0       $unwind$?EmergencyShow@CPluginBase@@KAXXZ 000000018003f7a0     ConEmuPluginBase.obj
 0002:0000d7a0       $unwind$?OnConsolePeekInputPost@CPluginBase@@SAHPEAUHookCallbackArg@@@Z 000000018003f7a0     ConEmuPluginBase.obj
 0002:0000d7a0       $unwind$?OnConsoleWasAttached@CPluginBase@@SAHPEAUHookCallbackArg@@@Z 000000018003f7a0     ConEmuPluginBase.obj
 0002:0000d7a0       $unwind$?OnCurDirChanged@CPluginBase@@SAXXZ 000000018003f7a0     ConEmuPluginBase.obj
 0002:0000d7a0       $unwind$?OnGetNumberOfConsoleInputEventsPost@CPluginBase@@SAHPEAUHookCallbackArg@@@Z 000000018003f7a0     ConEmuPluginBase.obj
 0002:0000d7a0       $unwind$?TouchReadPeekConsoleInputs@CPluginBase@@SAXH@Z 000000018003f7a0     ConEmuPluginBase.obj
 0002:0000d7a0       $unwind$?cmd_FarSetChanged@@YAXPEAUFAR_REQ_FARSETCHANGED@@@Z 000000018003f7a0     PluginSrv.obj
 0002:0000d7a0       $unwind$__scrt_initialize_default_local_stdio_options 000000018003f7a0     LIBCMT:default_local_stdio_options.obj
 0002:0000d7a0       $unwind$?dllmain_crt_dispatch@@YAHQEAUHINSTANCE__@@KQEAX@Z 000000018003f7a0     LIBCMT:dll_dllmain.obj
 0002:0000d7a0       $unwind$__report_rangecheckfailure 000000018003f7a0     LIBCMT:gs_report.obj
 0002:0000d7a0       $unwind$__GSHandlerCheck   000000018003f7a0     LIBCMT:gshandler.obj
 0002:0000d7a0       $unwind$?__scrt_uninitialize_thread_safe_statics@@YAXXZ 000000018003f7a0     LIBCMT:thread_safe_statics.obj
 0002:0000d7a0       $unwind$_Init_thread_notify 000000018003f7a0     LIBCMT:thread_safe_statics.obj
 0002:0000d7a0       $unwind$__scrt_acquire_startup_lock 000000018003f7a0     LIBCMT:utility.obj
 0002:0000d7a0       $unwind$__scrt_dllmain_after_initialize_c 000000018003f7a0     LIBCMT:utility.obj
 0002:0000d7a0       $unwind$__scrt_dllmain_before_initialize_c 000000018003f7a0     LIBCMT:utility.obj
 0002:0000d7a0       $unwind$__scrt_dllmain_crt_thread_attach 000000018003f7a0     LIBCMT:utility.obj
 0002:0000d7a0       $unwind$__scrt_dllmain_crt_thread_detach 000000018003f7a0     LIBCMT:utility.obj
 0002:0000d7a0       $unwind$__scrt_dllmain_uninitialize_c 000000018003f7a0     LIBCMT:utility.obj
 0002:0000d7a0       $unwind$__scrt_dllmain_uninitialize_critical 000000018003f7a0     LIBCMT:utility.obj
 0002:0000d7a0       $unwind$atexit             000000018003f7a0     LIBCMT:utility.obj
 0002:0000d7a0       $unwind$__std_terminate    000000018003f7a0     libvcruntime:ehhelpers.obj
 0002:0000d7a0       $unwind$__vcrt_initialize  000000018003f7a0     libvcruntime:initialization.obj
 0002:0000d7a0       $unwind$__vcrt_thread_attach 000000018003f7a0     libvcruntime:initialization.obj
 0002:0000d7a0       $unwind$__vcrt_thread_detach 000000018003f7a0     libvcruntime:initialization.obj
 0002:0000d7a0       $unwind$__vcrt_uninitialize 000000018003f7a0     libvcruntime:initialization.obj
 0002:0000d7a0       $unwind$__vcrt_uninitialize_critical 000000018003f7a0     libvcruntime:initialization.obj
 0002:0000d7a0       $unwind$__vcrt_initialize_locks 000000018003f7a0     libvcruntime:locks.obj
 0002:0000d7a0       $unwind$__vcrt_freefls     000000018003f7a0     libvcruntime:per_thread_data.obj
 0002:0000d7a0       $unwind$__vcrt_getptd      000000018003f7a0     libvcruntime:per_thread_data.obj
 0002:0000d7a0       $unwind$__vcrt_initialize_ptd 000000018003f7a0     libvcruntime:per_thread_data.obj
 0002:0000d7a0       $unwind$__vcrt_uninitialize_ptd 000000018003f7a0     libvcruntime:per_thread_data.obj
 0002:0000d7a0       $unwind$_purecall          000000018003f7a0     libvcruntime:purevirt.obj
 0002:0000d7a0       $unwind$?FrameUnwindToEmptyState@__FrameHandler4@@SAXPEA_KPEAU_xDISPATCHER_CONTEXT@@PEAUFuncInfo4@FH4@@@Z 000000018003f7a0     libvcruntime:risctrnsctrl.obj
 0002:0000d7a0       $unwind$_GetImageBase      000000018003f7a0     libvcruntime:risctrnsctrl.obj
 0002:0000d7a0       $unwind$_GetThrowImageBase 000000018003f7a0     libvcruntime:risctrnsctrl.obj
 0002:0000d7a0       $unwind$__dcrt_terminate_console_output 000000018003f7a0     libucrt:initcon.obj
 0002:0000d7a0       $unwind$??$uninitialize_environment_internal@D@@YAXAEAPEAPEAD@Z 000000018003f7a0     libucrt:environment_initialization.obj
 0002:0000d7a0       $unwind$??$uninitialize_environment_internal@_W@@YAXAEAPEAPEA_W@Z 000000018003f7a0     libucrt:environment_initialization.obj
 0002:0000d7a0       $unwind$__dcrt_uninitialize_environments_nolock 000000018003f7a0     libucrt:environment_initialization.obj
 0002:0000d7a0       $unwind$?__c32rtomb_utf8@__crt_mbstring@@YA_KPEAD_UPEAU_Mbstatet@@@Z 000000018003f7a0     libucrt:c32rtomb.obj
 0002:0000d7a0       $unwind$__acrt_initialize_heap 000000018003f7a0     libucrt:heap_handle.obj
 0002:0000d7a0       $unwind$_msize_base        000000018003f7a0     libucrt:msize.obj
 0002:0000d7a0       $unwind$?initialize_multibyte@@YAHXZ 000000018003f7a0     libucrt:multibyte_initializer.obj
 0002:0000d7a0       $unwind$__acrt_thread_attach 000000018003f7a0     libucrt:initialization.obj
 0002:0000d7a0       $unwind$__acrt_thread_detach 000000018003f7a0     libucrt:initialization.obj
 0002:0000d7a0       $unwind$__acrt_uninitialize 000000018003f7a0     libucrt:initialization.obj
 0002:0000d7a0       $unwind$__acrt_uninitialize_critical 000000018003f7a0     libucrt:initialization.obj
 0002:0000d7a0       $unwind$initialize_c       000000018003f7a0     libucrt:initialization.obj
 0002:0000d7a0       $unwind$uninitialize_allocated_io_buffers 000000018003f7a0     libucrt:initialization.obj
 0002:0000d7a0       $unwind$uninitialize_environment 000000018003f7a0     libucrt:initialization.obj
 0002:0000d7a0       $unwind$__acrt_initialize_ptd 000000018003f7a0     libucrt:per_thread_data.obj
 0002:0000d7a0       $unwind$__acrt_uninitialize_ptd 000000018003f7a0     libucrt:per_thread_data.obj
 0002:0000d7a0       $unwind$__acrt_AreFileApisANSI 000000018003f7a0     libucrt:winapi_thunks.obj
 0002:0000d7a0       $unwind$__pctype_func      000000018003f7a0     libucrt:ctype.obj
 0002:0000d7a0       $unwind$__acrt_release_locale_ref 000000018003f7a0     libucrt:locale_refcounting.obj
 0002:0000d7a0       $unwind$_isatty            000000018003f7a0     libucrt:isatty.obj
 0002:0000d7a0       $unwind$_get_osfhandle     000000018003f7a0     libucrt:osfinfo.obj
 0002:0000d7a0       $unwind$__acrt_initialize_multibyte 000000018003f7a0     libucrt:mbctype.obj
 0002:0000d7a0       $unwind$__acrt_update_thread_multibyte_data 000000018003f7a0     libucrt:mbctype.obj
 0002:0000d7a0       $unwind$__doserrno         000000018003f7a0     libucrt:errno.obj
 0002:0000d7a0       $unwind$_errno             000000018003f7a0     libucrt:errno.obj
 0002:0000d7a0       $unwind$_invoke_watson     000000018003f7a0     libucrt:invalid_parameter.obj
 0002:0000d7a0       $unwind$abort              000000018003f7a0     libucrt:abort.obj
 0002:0000d7a0       $unwind$__acrt_initialize_command_line 000000018003f7a0     libucrt:argv_data.obj
 0002:0000d7a0       $unwind$_fileno            000000018003f7a0     libucrt:fileno.obj
 0002:0000d7a0       $unwind$?state_case_normal_tchar@?$output_processor@DV?$string_output_adapter@D@__crt_stdio_output@@V?$standard_base@DV?$string_output_adapter@D@__crt_stdio_output@@@2@@__crt_stdio_output@@AEAA_ND@Z 000000018003f7a0     libucrt:output.obj
 0002:0000d7a0       $unwind$?state_case_size@?$output_processor@DV?$string_output_adapter@D@__crt_stdio_output@@V?$standard_base@DV?$string_output_adapter@D@__crt_stdio_output@@@2@@__crt_stdio_output@@AEAA_NXZ 000000018003f7a0     libucrt:output.obj
 0002:0000d7a0       $unwind$?state_case_size@?$output_processor@_WV?$string_output_adapter@_W@__crt_stdio_output@@V?$standard_base@_WV?$string_output_adapter@_W@__crt_stdio_output@@@2@@__crt_stdio_output@@AEAA_NXZ 000000018003f7a0     libucrt:output.obj
 0002:0000d7a0       $unwind$_statfp            000000018003f7a0     libucrt:fpctrl.obj
 0002:0000d7a0       $unwind$_set_errno_from_matherr 000000018003f7a0     libucrt:fpexcept.obj
 0002:0000d7a0       $unwind$?PointToExt@@YAPEB_WPEB_W@Z 000000018003f7a0     common-kernel64:CmdLine.obj
 0002:0000d7a0       $unwind$?ExecuteFreeResult@@YAXAEAPEAUCESERVER_REQ@@@Z 000000018003f7a0     common-kernel64:ConEmuCheck.obj
 0002:0000d7a0       $unwind$?_Xlength@?$vector@UtagPROCESSENTRY32W@@V?$MArrayAllocator@UtagPROCESSENTRY32W@@@@@std@@CAXXZ 000000018003f7a0     common-kernel64:MProcess.obj
 0002:0000d7a0       $unwind$?LocalSecurity@@YAPEAU_SECURITY_ATTRIBUTES@@XZ 000000018003f7a0     common-kernel64:MSecurity.obj
 0002:0000d7a0       $unwind$?ShutdownSecurity@@YAXXZ 000000018003f7a0     common-kernel64:MSecurity.obj
 0002:0000d7a0       $unwind$??2@YAPEAX_K@Z     000000018003f7a0     common-kernel64:Memory.obj
 0002:0000d7a0       $unwind$?HeapDeinitialize@@YAXXZ 000000018003f7a0     common-kernel64:Memory.obj
 0002:0000d7a0       $unwind$?HeapInitialize@@YA_NXZ 000000018003f7a0     common-kernel64:Memory.obj
 0002:0000d7a0       $unwind$?xf_calloc@@YAPEAX_K0@Z 000000018003f7a0     common-kernel64:Memory.obj
 0002:0000d7a0       $unwind$?xf_free@@YAXPEAX@Z 000000018003f7a0     common-kernel64:Memory.obj
 0002:0000d7a0       $unwind$?xf_malloc@@YAPEAX_K@Z 000000018003f7a0     common-kernel64:Memory.obj
 0002:0000d7a0       $unwind$?IsWin6@@YA_NXZ    000000018003f7a0     common-kernel64:WObjects.obj
 0002:0000d7a0       $unwind$??__FgsMapHelper@@YAXXZ 000000018003f7a0     common-user64:WConsoleEx.obj
 0002:0000d7a0       $unwind$?apiShowWindow@@YA_NPEAUHWND__@@H@Z 000000018003f7a0     common-user64:WUser.obj
 0002:0000d7a0       $unwind$?apiShowWindowAsync@@YA_NPEAUHWND__@@H@Z 000000018003f7a0     common-user64:WUser.obj
 0002:0000d7a8       $unwind$?SetupExportsFar3@@YAXXZ 000000018003f7a8     ConEmuPlugin.obj
 0002:0000d7a8       $unwind$?StopPipeServer@?$PipeServer@UCESERVER_REQ@@@@QEAAX_NAEA_N@Z 000000018003f7a8     PluginSrv.obj
 0002:0000d7c4       $unwind$?Color2FgIndex@Far3Color@@SAXKAEAGPEBK@Z 000000018003f7c4     ConEmuPlugin1900.obj
 0002:0000d7c4       $unwind$?StringCchCatW@@YAJPEA_W_KPEB_W@Z 000000018003f7c4     ConEmuPluginBase.obj
 0002:0000d7c4       $unwind$??$type_case_integer_parse_into_buffer@I@?$output_processor@DV?$string_output_adapter@D@__crt_stdio_output@@V?$standard_base@DV?$string_output_adapter@D@__crt_stdio_output@@@2@@__crt_stdio_output@@AEAAXII_N@Z 000000018003f7c4     libucrt:output.obj
 0002:0000d7c4       $unwind$??$type_case_integer_parse_into_buffer@I@?$output_processor@_WV?$string_output_adapter@_W@__crt_stdio_output@@V?$standard_base@_WV?$string_output_adapter@_W@__crt_stdio_output@@@2@@__crt_stdio_output@@AEAAXII_N@Z 000000018003f7c4     libucrt:output.obj
 0002:0000d7c4       $unwind$??$type_case_integer_parse_into_buffer@_K@?$output_processor@DV?$string_output_adapter@D@__crt_stdio_output@@V?$standard_base@DV?$string_output_adapter@D@__crt_stdio_output@@@2@@__crt_stdio_output@@AEAAX_KI_N@Z 000000018003f7c4     libucrt:output.obj
 0002:0000d7c4       $unwind$??$type_case_integer_parse_into_buffer@_K@?$output_processor@_WV?$string_output_adapter@_W@__crt_stdio_output@@V?$standard_base@_WV?$string_output_adapter@_W@__crt_stdio_output@@@2@@__crt_stdio_output@@AEAAX_KI_N@Z 000000018003f7c4     libucrt:output.obj
 0002:0000d7cc       $unwind$?Color2BgIndex@Far3Color@@SAXKHAEAGPEBK@Z 000000018003f7cc     ConEmuPlugin1900.obj
 0002:0000d7cc       $unwind$?SetDcPanelRect@CPluginBackground@@IEAAXPEAUtagRECT@@PEAUBkPanelInfo@@PEAUPaintBackgroundArg@@@Z 000000018003f7cc     PluginBackground.obj
 0002:0000d7d8       $unwind$?FarColor_3_2@@YAEAEBUFarColor@@_N@Z 000000018003f7d8     ConEmuPlugin1900.obj
 0002:0000d7d8       $unwind$?Set@CEStr@@QEAAPEB_WPEB_W_J@Z 000000018003f7d8     common-kernel64:CEStr.obj
 0002:0000d7ec       $unwind$??0CPluginW1900@@QEAA@XZ 000000018003f7ec     ConEmuPlugin1900.obj
 0002:0000d7ec       $unwind$??0CPluginW2800@@QEAA@XZ 000000018003f7ec     ConEmuPlugin2800.obj
 0002:0000d7fc       $unwind$?ExitFar@CPluginW1900@@UEAAXXZ 000000018003f7fc     ConEmuPlugin1900.obj
 0002:0000d7fc       $unwind$?ExitFar@CPluginW2800@@UEAAXXZ 000000018003f7fc     ConEmuPlugin2800.obj
 0002:0000d7fc       $unwind$?ExitFar@CPluginW995@@UEAAXXZ 000000018003f7fc     ConEmuPlugin995.obj
 0002:0000d7fc       $unwind$??0length_error@std@@QEAA@PEBD@Z 000000018003f7fc     libcpmt:xthrow.obj
 0002:0000d7fc       $unwind$?__mbrtowc_utf8@__crt_mbstring@@YA_KPEA_WPEBD_KPEAU_Mbstatet@@@Z 000000018003f7fc     libucrt:mbrtowc.obj
 0002:0000d804       $unwind$?GetEditorModifiedState@CPluginW1900@@UEAAKXZ 000000018003f804     ConEmuPlugin1900.obj
 0002:0000d804       $unwind$?GetEditorModifiedState@CPluginAnsi@@UEAAKXZ 000000018003f804     ConEmuPluginA.obj
 0002:0000d814       $unwind$?GetMsg@CPluginW1900@@UEAAPEB_WHPEA_W_K@Z 000000018003f814     ConEmuPlugin1900.obj
 0002:0000d814       $unwind$?LoadFarColors@CPluginW1900@@UEAAXAEAY0BAA@E@Z 000000018003f814     ConEmuPlugin1900.obj
 0002:0000d814       $unwind$?GetMsg@CPluginW2800@@UEAAPEB_WHPEA_W_K@Z 000000018003f814     ConEmuPlugin2800.obj
 0002:0000d814       $unwind$?LoadFarColors@CPluginW2800@@UEAAXAEAY0BAA@E@Z 000000018003f814     ConEmuPlugin2800.obj
 0002:0000d814       $unwind$?Open@CPluginW2800@@UEAAPEAXPEBX@Z 000000018003f814     ConEmuPlugin2800.obj
 0002:0000d814       $unwind$?GetMsg@CPluginW995@@UEAAPEB_WHPEA_W_K@Z 000000018003f814     ConEmuPlugin995.obj
 0002:0000d814       $unwind$??0MWow64Disable@@QEAA@XZ 000000018003f814     ConEmuPluginBase.obj
 0002:0000d814       $unwind$?FillLoadedParm@CPluginBase@@SAXPEAUConEmuLoadedArg@@PEAUHINSTANCE__@@H@Z 000000018003f814     ConEmuPluginBase.obj
 0002:0000d814       $unwind$?OutDataRealloc@CPluginBase@@SA_NK@Z 000000018003f814     ConEmuPluginBase.obj
 0002:0000d814       $unwind$?OutDataWrite@CPluginBase@@SA_NPEAXK@Z 000000018003f814     ConEmuPluginBase.obj
 0002:0000d814       $unwind$?ProcessEditorViewerEvent@CPluginBase@@QEAAHHH@Z 000000018003f814     ConEmuPluginBase.obj
 0002:0000d814       $unwind$?SetRootRegKey@CPluginBase@@IEAAXPEA_W@Z 000000018003f814     ConEmuPluginBase.obj
 0002:0000d814       $unwind$?ToOem@CPluginBase@@SAPEADPEB_W@Z 000000018003f814     ConEmuPluginBase.obj
 0002:0000d814       $unwind$?cmd_SetWindow@CPluginBase@@QEAA_NPEAX_N@Z 000000018003f814     ConEmuPluginBase.obj
 0002:0000d814       $unwind$?CheckPanelFolders@CPluginBackground@@IEAAXH@Z 000000018003f814     PluginBackground.obj
 0002:0000d814       $unwind$?ReallocItems@CPluginBackground@@IEAAXH@Z 000000018003f814     PluginBackground.obj
 0002:0000d814       $unwind$_DllMainCRTStartup 000000018003f814     LIBCMT:dll_dllmain.obj
 0002:0000d814       $unwind$__vcrt_getptd_noexit 000000018003f814     libvcruntime:per_thread_data.obj
 0002:0000d814       $unwind$__vcrt_InitializeCriticalSectionEx 000000018003f814     libvcruntime:winapi_downlevel.obj
 0002:0000d814       $unwind$memcpy_s           000000018003f814     libucrt:cfout.obj
 0002:0000d814       $unwind$__acrt_getptd      000000018003f814     libucrt:per_thread_data.obj
 0002:0000d814       $unwind$__acrt_getptd_noexit 000000018003f814     libucrt:per_thread_data.obj
 0002:0000d814       $unwind$__acrt_execute_initializers 000000018003f814     libucrt:shared_initialization.obj
 0002:0000d814       $unwind$__acrt_InitializeCriticalSectionEx 000000018003f814     libucrt:winapi_thunks.obj
 0002:0000d814       $unwind$?free_crt_array_internal@@YAXQEAPEBX_K@Z 000000018003f814     libucrt:inittime.obj
 0002:0000d814       $unwind$??$common_lseek_nolock@_J@@YA_JH_JH@Z 000000018003f814     libucrt:lseek.obj
 0002:0000d814       $unwind$__acrt_stdio_flush_nolock 000000018003f814     libucrt:fflush.obj
 0002:0000d814       $unwind$??0_LocaleUpdate@@QEAA@QEAU__crt_locale_pointers@@@Z 000000018003f814     libucrt:output.obj
 0002:0000d814       $unwind$?type_case_Z@?$output_processor@_WV?$string_output_adapter@_W@__crt_stdio_output@@V?$standard_base@_WV?$string_output_adapter@_W@__crt_stdio_output@@@2@@__crt_stdio_output@@AEAA_NXZ 000000018003f814     libucrt:output.obj
 0002:0000d814       $unwind$?type_case_n@?$output_processor@DV?$string_output_adapter@D@__crt_stdio_output@@V?$standard_base@DV?$string_output_adapter@D@__crt_stdio_output@@@2@@__crt_stdio_output@@AEAA_NXZ 000000018003f814     libucrt:output.obj
 0002:0000d814       $unwind$?type_case_n@?$output_processor@_WV?$string_output_adapter@_W@__crt_stdio_output@@V?$standard_base@_WV?$string_output_adapter@_W@__crt_stdio_output@@@2@@__crt_stdio_output@@AEAA_NXZ 000000018003f814     libucrt:output.obj
 0002:0000d814       $unwind$?type_case_s@?$output_processor@_WV?$string_output_adapter@_W@__crt_stdio_output@@V?$standard_base@_WV?$string_output_adapter@_W@__crt_stdio_output@@@2@@__crt_stdio_output@@AEAA_NXZ 000000018003f814     libucrt:output.obj
 0002:0000d814       $unwind$_exception_enabled 000000018003f814     libucrt:libm_error.obj
 0002:0000d814       $unwind$?AttachInt@CEStr@@AEAAPEB_WAEAPEA_W@Z 000000018003f814     common-kernel64:CEStr.obj
 0002:0000d814       $unwind$?Unquote@@YAPEB_WPEA_W_N@Z 000000018003f814     common-kernel64:CmdLine.obj
 0002:0000d814       $unwind$?IsEnvBlockVariableValid@@YA_NPEB_WAEAPEB_W@Z 000000018003f814     common-kernel64:Common.obj
 0002:0000d814       $unwind$?apiGetCurrentConsoleFontEx@@YAHPEAXHPEAUMY_CONSOLE_FONT_INFOEX@@@Z 000000018003f814     common-kernel64:WConsole.obj
 0002:0000d814       $unwind$?apiSetCurrentConsoleFontEx@@YAHPEAXHPEAUMY_CONSOLE_FONT_INFOEX@@@Z 000000018003f814     common-kernel64:WConsole.obj
 0002:0000d824       $unwind$?GetPanelInfo@CPluginW1900@@UEAA_NKPEAUCEPanelInfo@@@Z 000000018003f824     ConEmuPlugin1900.obj
 0002:0000d824       $unwind$?GetPanelInfo@CPluginW2800@@UEAA_NKPEAUCEPanelInfo@@@Z 000000018003f824     ConEmuPlugin2800.obj
 0002:0000d844       $unwind$?GetPanelItemInfo@CPluginW1900@@UEAA_NAEBUCEPanelInfo@@_N_JAEAU_WIN32_FIND_DATAW@@PEAPEA_W@Z 000000018003f844     ConEmuPlugin1900.obj
 0002:0000d858       $unwind$?GetPanelDir@CPluginW1900@@UEAAPEA_WKPEA_WH@Z 000000018003f858     ConEmuPlugin1900.obj
 0002:0000d858       $unwind$?GetPanelDir@CPluginW2800@@UEAAPEA_WKPEA_WH@Z 000000018003f858     ConEmuPlugin2800.obj
 0002:0000d878       $unwind$?InputBox@CPluginW1900@@UEAA_NPEB_W000AEAPEA_W@Z 000000018003f878     ConEmuPlugin1900.obj
 0002:0000d878       $unwind$?InputBox@CPluginW2800@@UEAA_NPEB_W000AEAPEA_W@Z 000000018003f878     ConEmuPlugin2800.obj
 0002:0000d88c       $unwind$?LoadFarSettings@CPluginW1900@@UEAAXPEAUCEFarInterfaceSettings@@PEAUCEFarPanelSettings@@@Z 000000018003f88c     ConEmuPlugin1900.obj
 0002:0000d88c       $unwind$?LoadFarSettings@CPluginW2800@@UEAAXPEAUCEFarInterfaceSettings@@PEAUCEFarPanelSettings@@@Z 000000018003f88c     ConEmuPlugin2800.obj
 0002:0000d8a0       $unwind$?OpenEditor@CPluginW1900@@UEAA_NPEB_W_N11HH@Z 000000018003f8a0     ConEmuPlugin1900.obj
 0002:0000d8a0       $unwind$?OpenEditor@CPluginW2800@@UEAA_NPEB_W_N11HH@Z 000000018003f8a0     ConEmuPlugin2800.obj
 0002:0000d8a0       $unwind$?OpenEditor@CPluginW995@@UEAA_NPEB_W_N11HH@Z 000000018003f8a0     ConEmuPlugin995.obj
 0002:0000d8b0       $unwind$?PanelControlApi@CPluginW1900@@UEAA_JPEAXH_J0@Z 000000018003f8b0     ConEmuPlugin1900.obj
 0002:0000d8b0       $unwind$?PanelControlApi@CPluginW2800@@UEAA_JPEAXH_J0@Z 000000018003f8b0     ConEmuPlugin2800.obj
 0002:0000d8b0       $unwind$__GSHandlerCheckCommon 000000018003f8b0     LIBCMT:gshandler.obj
 0002:0000d8b0       $unwind$__acrt_WideCharToMultiByte 000000018003f8b0     libucrt:widechartomultibyte.obj
 0002:0000d8b8       $unwind$?PostMacroApi@CPluginW1900@@UEAAXPEB_WPEAU_INPUT_RECORD@@_N@Z 000000018003f8b8     ConEmuPlugin1900.obj
 0002:0000d8dc       $unwind$?SetStartupInfoPtr@CPluginW1900@@UEAAXPEAX@Z 000000018003f8dc     ConEmuPlugin1900.obj
 0002:0000d8dc       $unwind$?SetStartupInfoPtr@CPluginW2800@@UEAAXPEAX@Z 000000018003f8dc     ConEmuPlugin2800.obj
 0002:0000d8f8       $unwind$?ShowMessage@CPluginW1900@@UEAAHPEB_WH_N@Z 000000018003f8f8     ConEmuPlugin1900.obj
 0002:0000d8f8       $unwind$?ShowMessage@CPluginW2800@@UEAAHPEB_WH_N@Z 000000018003f8f8     ConEmuPlugin2800.obj
 0002:0000d8f8       $unwind$?ToOem@CPluginBase@@SAXPEB_WPEAD_J@Z 000000018003f8f8     ConEmuPluginBase.obj
 0002:0000d8f8       $unwind$?_Xlength_error@std@@YAXPEBD@Z 000000018003f8f8     libcpmt:xthrow.obj
 0002:0000d8f8       $unwind$_raise_exc         000000018003f8f8     libucrt:fpexcept.obj
 0002:0000d900       $unwind$?ShowPluginMenu@CPluginW1900@@UEAAHPEAUConEmuPluginMenuItem@@HH@Z 000000018003f900     ConEmuPlugin1900.obj
 0002:0000d900       $unwind$?ShowPluginMenu@CPluginW2800@@UEAAHPEAUConEmuPluginMenuItem@@HH@Z 000000018003f900     ConEmuPlugin2800.obj
 0002:0000d918       $unwind$?UpdateConEmuTabsApi@CPluginW1900@@UEAA_NH@Z 000000018003f918     ConEmuPlugin1900.obj
 0002:0000d940       $unwind$?GetFarSetting@@YAHPEAX_KPEB_W@Z 000000018003f940     ConEmuPlugin1900.obj
 0002:0000d940       $unwind$?GetFarSetting@@YAHPEAX_KPEB_W@Z 000000018003f940     ConEmuPlugin2800.obj
 0002:0000d940       $unwind$_call_matherr      000000018003f940     libucrt:libm_error.obj
 0002:0000d948       $unwind$?CallGuiMacroDlg@@YA_JPEAXHH0@Z 000000018003f948     ConEmuPlugin1900.obj
 0002:0000d968       $unwind$?CallGuiMacroProc@@YAXXZ 000000018003f968     ConEmuPlugin1900.obj
 0002:0000d984       $unwind$GetGlobalInfoW     000000018003f984     ConEmuPlugin2800.obj
 0002:0000d98c       $unwind$?GetEditorModifiedState@CPluginW2800@@UEAAKXZ 000000018003f98c     ConEmuPlugin2800.obj
 0002:0000d99c       $unwind$?GetPanelItemInfo@CPluginW2800@@UEAA_NAEBUCEPanelInfo@@_N_JAEAU_WIN32_FIND_DATAW@@PEAPEA_W@Z 000000018003f99c     ConEmuPlugin2800.obj
 0002:0000d9b4       $unwind$?PostMacroApi@CPluginW2800@@UEAAXPEB_WPEAU_INPUT_RECORD@@_N@Z 000000018003f9b4     ConEmuPlugin2800.obj
 0002:0000d9d8       $unwind$?SetWindow@CPluginW2800@@UEAAXH@Z 000000018003f9d8     ConEmuPlugin2800.obj
 0002:0000d9f0       $cppxdata$?SetWindow@CPluginW2800@@UEAAXH@Z 000000018003f9f0     ConEmuPlugin2800.obj
 0002:0000d9f9       $stateUnwindMap$?SetWindow@CPluginW2800@@UEAAXH@Z 000000018003f9f9     ConEmuPlugin2800.obj
 0002:0000da05       $ip2state$?SetWindow@CPluginW2800@@UEAAXH@Z 000000018003fa05     ConEmuPlugin2800.obj
 0002:0000da10       $unwind$?UpdateConEmuTabsApi@CPluginW2800@@UEAA_NH@Z 000000018003fa10     ConEmuPlugin2800.obj
 0002:0000da60       $cppxdata$?UpdateConEmuTabsApi@CPluginW2800@@UEAA_NH@Z 000000018003fa60     ConEmuPlugin2800.obj
 0002:0000da69       $stateUnwindMap$?UpdateConEmuTabsApi@CPluginW2800@@UEAA_NH@Z 000000018003fa69     ConEmuPlugin2800.obj
 0002:0000da7b       $ip2state$?UpdateConEmuTabsApi@CPluginW2800@@UEAA_NH@Z 000000018003fa7b     ConEmuPlugin2800.obj
 0002:0000da8c       $unwind$?insert@?$vector@UWindowInfo@@V?$MArrayAllocator@UWindowInfo@@@@@std@@QEAA?AV?$_Vector_iterator@V?$_Vector_val@U?$_Simple_types@UWindowInfo@@@std@@@std@@@2@V?$_Vector_const_iterator@V?$_Vector_val@U?$_Simple_types@UWindowInfo@@@std@@@std@@@2@_KAEBUWindowInfo@@@Z 000000018003fa8c     ConEmuPlugin2800.obj
 0002:0000daac       $cppxdata$?insert@?$vector@UWindowInfo@@V?$MArrayAllocator@UWindowInfo@@@@@std@@QEAA?AV?$_Vector_iterator@V?$_Vector_val@U?$_Simple_types@UWindowInfo@@@std@@@std@@@2@V?$_Vector_const_iterator@V?$_Vector_val@U?$_Simple_types@UWindowInfo@@@std@@@std@@@2@_KAEBUWindowInfo@@@Z 000000018003faac     ConEmuPlugin2800.obj
 0002:0000dab9       $stateUnwindMap$??$_Emplace_reallocate@AEBUWindowInfo@@@?$vector@UWindowInfo@@V?$MArrayAllocator@UWindowInfo@@@@@std@@QEAAPEAUWindowInfo@@QEAU2@AEBU2@@Z 000000018003fab9     ConEmuPlugin2800.obj
 0002:0000dab9       $stateUnwindMap$?insert@?$vector@UWindowInfo@@V?$MArrayAllocator@UWindowInfo@@@@@std@@QEAA?AV?$_Vector_iterator@V?$_Vector_val@U?$_Simple_types@UWindowInfo@@@std@@@std@@@2@V?$_Vector_const_iterator@V?$_Vector_val@U?$_Simple_types@UWindowInfo@@@std@@@std@@@2@_KAEBUWindowInfo@@@Z 000000018003fab9     ConEmuPlugin2800.obj
 0002:0000dabc       $tryMap$?insert@?$vector@UWindowInfo@@V?$MArrayAllocator@UWindowInfo@@@@@std@@QEAA?AV?$_Vector_iterator@V?$_Vector_val@U?$_Simple_types@UWindowInfo@@@std@@@std@@@2@V?$_Vector_const_iterator@V?$_Vector_val@U?$_Simple_types@UWindowInfo@@@std@@@std@@@2@_KAEBUWindowInfo@@@Z 000000018003fabc     ConEmuPlugin2800.obj
 0002:0000dac4       $handlerMap$?insert@?$vector@UWindowInfo@@V?$MArrayAllocator@UWindowInfo@@@@@std@@QEAA?AV?$_Vector_iterator@V?$_Vector_val@U?$_Simple_types@UWindowInfo@@@std@@@std@@@2@V?$_Vector_const_iterator@V?$_Vector_val@U?$_Simple_types@UWindowInfo@@@std@@@std@@@2@_KAEBUWindowInfo@@@Z 000000018003fac4     ConEmuPlugin2800.obj
 0002:0000dacb       $ip2state$?insert@?$vector@UWindowInfo@@V?$MArrayAllocator@UWindowInfo@@@@@std@@QEAA?AV?$_Vector_iterator@V?$_Vector_val@U?$_Simple_types@UWindowInfo@@@std@@@std@@@2@V?$_Vector_const_iterator@V?$_Vector_val@U?$_Simple_types@UWindowInfo@@@std@@@std@@@2@_KAEBUWindowInfo@@@Z 000000018003facb     ConEmuPlugin2800.obj
 0002:0000dad0       $unwind$?catch$0@?0???$_Emplace_reallocate@AEBUWindowInfo@@@?$vector@UWindowInfo@@V?$MArrayAllocator@UWindowInfo@@@@@std@@QEAAPEAUWindowInfo@@QEAU2@AEBU2@@Z@4HA 000000018003fad0     ConEmuPlugin2800.obj
 0002:0000dad0       $unwind$?catch$0@?0??insert@?$vector@UWindowInfo@@V?$MArrayAllocator@UWindowInfo@@@@@std@@QEAA?AV?$_Vector_iterator@V?$_Vector_val@U?$_Simple_types@UWindowInfo@@@std@@@std@@@2@V?$_Vector_const_iterator@V?$_Vector_val@U?$_Simple_types@UWindowInfo@@@std@@@std@@@2@_KAEBUWindowInfo@@@Z@4HA 000000018003fad0     ConEmuPlugin2800.obj
 0002:0000dad8       $unwind$?insert@?$MArray@UWindowInfo@@@@QEAA_J_JAEBUWindowInfo@@0@Z 000000018003fad8     ConEmuPlugin2800.obj
 0002:0000dad8       $unwind$_mbsdec_l          000000018003fad8     libucrt:mbsdec.obj
 0002:0000dae4       $unwind$?erase@?$MArray@UWindowInfo@@@@QEAAX_J0@Z 000000018003fae4     ConEmuPlugin2800.obj
 0002:0000daf4       $unwind$??1?$MArray@UWindowInfo@@@@QEAA@XZ 000000018003faf4     ConEmuPlugin2800.obj
 0002:0000db04       $cppxdata$??1?$MArray@UWindowInfo@@@@QEAA@XZ 000000018003fb04     ConEmuPlugin2800.obj
 0002:0000db0d       $stateUnwindMap$??1?$MArray@UWindowInfo@@@@QEAA@XZ 000000018003fb0d     ConEmuPlugin2800.obj
 0002:0000db13       $ip2state$??1?$MArray@UWindowInfo@@@@QEAA@XZ 000000018003fb13     ConEmuPlugin2800.obj
 0002:0000db18       $unwind$?WLoadWindows@@YA_JAEAV?$MArray@UWindowInfo@@@@H@Z 000000018003fb18     ConEmuPlugin2800.obj
 0002:0000db30       $unwind$?CallGuiMacroDlg@@YA_JPEAX_J10@Z 000000018003fb30     ConEmuPlugin2800.obj
 0002:0000db50       $unwind$?CallGuiMacroProc@@YAXXZ 000000018003fb50     ConEmuPlugin2800.obj
 0002:0000db74       $unwind$??$_Emplace_reallocate@AEBUWindowInfo@@@?$vector@UWindowInfo@@V?$MArrayAllocator@UWindowInfo@@@@@std@@QEAAPEAUWindowInfo@@QEAU2@AEBU2@@Z 000000018003fb74     ConEmuPlugin2800.obj
 0002:0000db90       $cppxdata$??$_Emplace_reallocate@AEBUWindowInfo@@@?$vector@UWindowInfo@@V?$MArrayAllocator@UWindowInfo@@@@@std@@QEAAPEAUWindowInfo@@QEAU2@AEBU2@@Z 000000018003fb90     ConEmuPlugin2800.obj
 0002:0000db9d       $tryMap$??$_Emplace_reallocate@AEBUWindowInfo@@@?$vector@UWindowInfo@@V?$MArrayAllocator@UWindowInfo@@@@@std@@QEAAPEAUWindowInfo@@QEAU2@AEBU2@@Z 000000018003fb9d     ConEmuPlugin2800.obj
 0002:0000dba5       $handlerMap$??$_Emplace_reallocate@AEBUWindowInfo@@@?$vector@UWindowInfo@@V?$MArrayAllocator@UWindowInfo@@@@@std@@QEAAPEAUWindowInfo@@QEAU2@AEBU2@@Z 000000018003fba5     ConEmuPlugin2800.obj
 0002:0000dbac       $ip2state$??$_Emplace_reallocate@AEBUWindowInfo@@@?$vector@UWindowInfo@@V?$MArrayAllocator@UWindowInfo@@@@@std@@QEAAPEAUWindowInfo@@QEAU2@AEBU2@@Z 000000018003fbac     ConEmuPlugin2800.obj
 0002:0000dbb0       $unwind$??0CPluginW995@@QEAA@XZ 000000018003fbb0     ConEmuPlugin995.obj
 0002:0000dbcc       $cppxdata$??0CPluginW995@@QEAA@XZ 000000018003fbcc     ConEmuPlugin995.obj
 0002:0000dbd5       $stateUnwindMap$??0CPluginW995@@QEAA@XZ 000000018003fbd5     ConEmuPlugin995.obj
 0002:0000dbd5       $stateUnwindMap$??0CPluginAnsi@@QEAA@XZ 000000018003fbd5     ConEmuPluginA.obj
 0002:0000dbdc       $ip2state$??0CPluginW995@@QEAA@XZ 000000018003fbdc     ConEmuPlugin995.obj
 0002:0000dbe4       $unwind$?GetActiveWindowType@CPluginW995@@UEAAHXZ 000000018003fbe4     ConEmuPlugin995.obj
 0002:0000dbe4       $unwind$?GetMacroArea@CPluginW995@@UEAAHXZ 000000018003fbe4     ConEmuPlugin995.obj
 0002:0000dbe4       $unwind$?IsMacroActive@CPluginW995@@UEAA_NXZ 000000018003fbe4     ConEmuPlugin995.obj
 0002:0000dbe4       $unwind$?PostMacroApi@CPluginW995@@UEAAXPEB_WPEAU_INPUT_RECORD@@_N@Z 000000018003fbe4     ConEmuPlugin995.obj
 0002:0000dbe4       $unwind$?IsMacroActive@CPluginAnsi@@UEAA_NXZ 000000018003fbe4     ConEmuPluginA.obj
 0002:0000dbe4       $unwind$fallbackMethod     000000018003fbe4     libucrt:strpbrk.obj
 0002:0000dbf4       $unwind$?GetEditorModifiedState@CPluginW995@@UEAAKXZ 000000018003fbf4     ConEmuPlugin995.obj
 0002:0000dc04       $unwind$?GetPanelInfo@CPluginW995@@UEAA_NKPEAUCEPanelInfo@@@Z 000000018003fc04     ConEmuPlugin995.obj
 0002:0000dc20       $unwind$?GetPanelItemInfo@CPluginW995@@UEAA_NAEBUCEPanelInfo@@_N_JAEAU_WIN32_FIND_DATAW@@PEAPEA_W@Z 000000018003fc20     ConEmuPlugin995.obj
 0002:0000dc34       $unwind$?GetPanelDir@CPluginW995@@UEAAPEA_WKPEA_WH@Z 000000018003fc34     ConEmuPlugin995.obj
 0002:0000dc50       $unwind$?InputBox@CPluginW995@@UEAA_NPEB_W000AEAPEA_W@Z 000000018003fc50     ConEmuPlugin995.obj
 0002:0000dc68       $unwind$?LoadFarColors@CPluginW995@@UEAAXAEAY0BAA@E@Z 000000018003fc68     ConEmuPlugin995.obj
 0002:0000dc68       $unwind$?LoadFarColors@CPluginAnsi@@UEAAXAEAY0BAA@E@Z 000000018003fc68     ConEmuPluginA.obj
 0002:0000dc80       $unwind$?SetStartupInfoPtr@CPluginW995@@UEAAXPEAX@Z 000000018003fc80     ConEmuPlugin995.obj
 0002:0000dc80       $unwind$?SetStartupInfoPtr@CPluginAnsi@@UEAAXPEAX@Z 000000018003fc80     ConEmuPluginA.obj
 0002:0000dc94       $unwind$?ShowPluginMenu@CPluginW995@@UEAAHPEAUConEmuPluginMenuItem@@HH@Z 000000018003fc94     ConEmuPlugin995.obj
 0002:0000dcac       $unwind$?UpdateConEmuTabsApi@CPluginW995@@UEAA_NH@Z 000000018003fcac     ConEmuPlugin995.obj
 0002:0000dcd0       $unwind$?WaitEndSynchro@CPluginW995@@UEAAXXZ 000000018003fcd0     ConEmuPlugin995.obj
 0002:0000dce4       $unwind$?CallGuiMacroDlg@@YA_JPEAXHH_J@Z 000000018003fce4     ConEmuPlugin995.obj
 0002:0000dd00       $unwind$?CallGuiMacroProc@@YAXXZ 000000018003fd00     ConEmuPlugin995.obj
 0002:0000dd1c       $unwind$??0CPluginAnsi@@QEAA@XZ 000000018003fd1c     ConEmuPluginA.obj
 0002:0000dd2c       $cppxdata$??0CPluginAnsi@@QEAA@XZ 000000018003fd2c     ConEmuPluginA.obj
 0002:0000dd35       $ip2state$??0CPluginAnsi@@QEAA@XZ 000000018003fd35     ConEmuPluginA.obj
 0002:0000dd3c       $unwind$?GetActiveWindowType@CPluginAnsi@@UEAAHXZ 000000018003fd3c     ConEmuPluginA.obj
 0002:0000dd50       $unwind$?GetMsg@CPluginAnsi@@UEAAPEB_WHPEA_W_K@Z 000000018003fd50     ConEmuPluginA.obj
 0002:0000dd50       $unwind$?GetPanelItemInfo@CPluginAnsi@@UEAA_NAEBUCEPanelInfo@@_N_JAEAU_WIN32_FIND_DATAW@@PEAPEA_W@Z 000000018003fd50     ConEmuPluginA.obj
 0002:0000dd50       $unwind$?ToUnicode@CPluginBase@@SAPEA_WPEBD@Z 000000018003fd50     ConEmuPluginBase.obj
 0002:0000dd50       $unwind$?getStateFromIterators@UWMap4@FH4@@SAHAEBViterator@12@H0H0@Z 000000018003fd50     libvcruntime:frame.obj
 0002:0000dd50       $unwind$strpbrk            000000018003fd50     libucrt:strpbrk.obj
 0002:0000dd50       $unwind$?_VerifyVersionInfo@@YA_NPEAU_OSVERSIONINFOEXW@@K_K@Z 000000018003fd50     common-kernel64:WObjects.obj
 0002:0000dd60       $unwind$?GetPanelDir@CPluginAnsi@@UEAAPEA_WKPEA_WH@Z 000000018003fd60     ConEmuPluginA.obj
 0002:0000dd7c       $unwind$?GetPanelInfo@CPluginAnsi@@UEAA_NKPEAUCEPanelInfo@@@Z 000000018003fd7c     ConEmuPluginA.obj
 0002:0000dda0       $unwind$?InputBox@CPluginAnsi@@UEAA_NPEB_W000AEAPEA_W@Z 000000018003fda0     ConEmuPluginA.obj
 0002:0000ddc4       $unwind$?OpenEditor@CPluginAnsi@@UEAA_NPEB_W_N11HH@Z 000000018003fdc4     ConEmuPluginA.obj
 0002:0000dde0       $unwind$?PostMacroApi@CPluginAnsi@@UEAAXPEB_WPEAU_INPUT_RECORD@@_N@Z 000000018003fde0     ConEmuPluginA.obj
 0002:0000ddf4       $unwind$?ShowMessage@CPluginAnsi@@UEAAHPEB_WH_N@Z 000000018003fdf4     ConEmuPluginA.obj
 0002:0000ddf4       $unwind$?OnWriteConsoleOutput@CPluginBase@@SAHPEAUHookCallbackArg@@@Z 000000018003fdf4     ConEmuPluginBase.obj
 0002:0000ddf4       $unwind$?PanelControl@CPluginBase@@QEAA_JPEAXH_J0@Z 000000018003fdf4     ConEmuPluginBase.obj
 0002:0000ddf4       $unwind$??$__acrt_mbs_to_wcs_cp@U__crt_win32_buffer_internal_dynamic_resizing@@@@YAHQEBDAEAV?$__crt_win32_buffer@_WU__crt_win32_buffer_internal_dynamic_resizing@@@@I@Z 000000018003fdf4     libucrt:argv_wildcards.obj
 0002:0000ddf4       $unwind$?StringCchVPrintfA@@YAJPEAD_KPEBD0@Z 000000018003fdf4     common-kernel64:MStrSafe.obj
 0002:0000ddf4       $unwind$?apiCreateThread@@YAPEAXP6AKPEAX@Z0PEAKPEBDH@Z 000000018003fdf4     common-kernel64:WThreads.obj
 0002:0000ddf4       $unwind$?IsConEmuExeExist@@YAHPEB_WAEAY0BAF@_W@Z 000000018003fdf4     common-user64:ConEmuCheckEx.obj
 0002:0000de0c       $unwind$?ShowPluginMenu@CPluginAnsi@@UEAAHPEAUConEmuPluginMenuItem@@HH@Z 000000018003fe0c     ConEmuPluginA.obj
 0002:0000de28       $unwind$?UpdateConEmuTabsApi@CPluginAnsi@@UEAA_NH@Z 000000018003fe28     ConEmuPluginA.obj
 0002:0000de50       $unwind$?CallGuiMacroDlg@@YA_JPEAXHH_J@Z 000000018003fe50     ConEmuPluginA.obj
 0002:0000de6c       $unwind$?CallGuiMacroProc@@YAXXZ 000000018003fe6c     ConEmuPluginA.obj
 0002:0000de8c       $unwind$?InitRootRegKey@CPluginBase@@IEAAXXZ 000000018003fe8c     ConEmuPluginBase.obj
 0002:0000dea8       $unwind$?DllMain_ProcessAttach@CPluginBase@@KAXPEAUHINSTANCE__@@@Z 000000018003fea8     ConEmuPluginBase.obj
 0002:0000deb8       $cppxdata$?DllMain_ProcessAttach@CPluginBase@@KAXPEAUHINSTANCE__@@@Z 000000018003feb8     ConEmuPluginBase.obj
 0002:0000dec1       $stateUnwindMap$?DllMain_ProcessAttach@CPluginBase@@KAXPEAUHINSTANCE__@@@Z 000000018003fec1     ConEmuPluginBase.obj
 0002:0000decc       $ip2state$?DllMain_ProcessAttach@CPluginBase@@KAXPEAUHINSTANCE__@@@Z 000000018003fecc     ConEmuPluginBase.obj
 0002:0000ded8       $unwind$?DllCheckUnique@CPluginBase@@KA_N_N@Z 000000018003fed8     ConEmuPluginBase.obj
 0002:0000df04       $cppxdata$?DllCheckUnique@CPluginBase@@KA_N_N@Z 000000018003ff04     ConEmuPluginBase.obj
 0002:0000df0d       $stateUnwindMap$?DllCheckUnique@CPluginBase@@KA_N_N@Z 000000018003ff0d     ConEmuPluginBase.obj
 0002:0000df1a       $ip2state$?DllCheckUnique@CPluginBase@@KA_N_N@Z 000000018003ff1a     ConEmuPluginBase.obj
 0002:0000df28       $unwind$?ShowProtocolWarning@CPluginBase@@KAXXZ 000000018003ff28     ConEmuPluginBase.obj
 0002:0000df40       $cppxdata$?ShowProtocolWarning@CPluginBase@@KAXXZ 000000018003ff40     ConEmuPluginBase.obj
 0002:0000df49       $stateUnwindMap$?ShowProtocolWarning@CPluginBase@@KAXXZ 000000018003ff49     ConEmuPluginBase.obj
 0002:0000df50       $ip2state$?ShowProtocolWarning@CPluginBase@@KAXXZ 000000018003ff50     ConEmuPluginBase.obj
 0002:0000df58       $unwind$?ShowMessageBox@CPluginBase@@KAHPEB_WI@Z 000000018003ff58     ConEmuPluginBase.obj
 0002:0000df74       $unwind$?ShowMessageGui@CPluginBase@@QEAAHHH@Z 000000018003ff74     ConEmuPluginBase.obj
 0002:0000df8c       $unwind$?UpdatePanelDirs@CPluginBase@@QEAAXXZ 000000018003ff8c     ConEmuPluginBase.obj
 0002:0000dfac       $unwind$?StorePanelDirs@CPluginBase@@QEAA_NPEB_W0@Z 000000018003ffac     ConEmuPluginBase.obj
 0002:0000dfac       $unwind$?try_get_function@@YAPEAXW4function_id@?A0xdafaeb0c@@QEBDQEBW4module_id@2@2@Z 000000018003ffac     libvcruntime:winapi_downlevel.obj
 0002:0000dfac       $unwind$?try_get_function@@YAPEAXW4function_id@?A0x391cf84c@@QEBDQEBW4module_id@2@2@Z 000000018003ffac     libucrt:winapi_thunks.obj
 0002:0000dfc8       $unwind$?RunExternalProgram@CPluginBase@@QEAA_NPEA_W@Z 000000018003ffc8     ConEmuPluginBase.obj
 0002:0000dfe8       $cppxdata$?RunExternalProgram@CPluginBase@@QEAA_NPEA_W@Z 000000018003ffe8     ConEmuPluginBase.obj
 0002:0000dff1       $stateUnwindMap$?RunExternalProgram@CPluginBase@@QEAA_NPEA_W@Z 000000018003fff1     ConEmuPluginBase.obj
 0002:0000e004       $ip2state$?RunExternalProgram@CPluginBase@@QEAA_NPEA_W@Z 0000000180040004     ConEmuPluginBase.obj
 0002:0000e010       $unwind$?ShowPluginMenu@CPluginBase@@QEAAXW4PluginCallCommands@@@Z 0000000180040010     ConEmuPluginBase.obj
 0002:0000e030       $unwind$?ShowConsoleInfo@CPluginBase@@QEAAXXZ 0000000180040030     ConEmuPluginBase.obj
 0002:0000e058       $unwind$?StartDebugger@CPluginBase@@QEAA_NXZ 0000000180040058     ConEmuPluginBase.obj
 0002:0000e07c       $unwind$?Attach2Gui@CPluginBase@@QEAA_N_N@Z 000000018004007c     ConEmuPluginBase.obj
 0002:0000e0a0       $unwind$?FindServerCmd@CPluginBase@@QEAA_NKAEAK_N@Z 00000001800400a0     ConEmuPluginBase.obj
 0002:0000e0bc       $unwind$?ShowMessage@CPluginBase@@QEAAHHH@Z 00000001800400bc     ConEmuPluginBase.obj
 0002:0000e0d4       $unwind$?UpdateConEmuTabs@CPluginBase@@QEAA_N_N@Z 00000001800400d4     ConEmuPluginBase.obj
 0002:0000e0f8       $cppxdata$?UpdateConEmuTabs@CPluginBase@@QEAA_N_N@Z 00000001800400f8     ConEmuPluginBase.obj
 0002:0000e101       $stateUnwindMap$?UpdateConEmuTabs@CPluginBase@@QEAA_N_N@Z 0000000180040101     ConEmuPluginBase.obj
 0002:0000e108       $ip2state$?UpdateConEmuTabs@CPluginBase@@QEAA_N_N@Z 0000000180040108     ConEmuPluginBase.obj
 0002:0000e110       $unwind$?CheckResources@CPluginBase@@QEAAX_N@Z 0000000180040110     ConEmuPluginBase.obj
 0002:0000e12c       $unwind$?InitResources@CPluginBase@@QEAAXXZ 000000018004012c     ConEmuPluginBase.obj
 0002:0000e150       $unwind$?OpenPluginCommon@CPluginBase@@QEAAPEAXH_J_N@Z 0000000180040150     ConEmuPluginBase.obj
 0002:0000e164       $unwind$?ProcessSetWindowCommand@CPluginBase@@QEAAXXZ 0000000180040164     ConEmuPluginBase.obj
 0002:0000e178       $unwind$?CommonPluginStartup@CPluginBase@@QEAAXXZ 0000000180040178     ConEmuPluginBase.obj
 0002:0000e18c       $unwind$?ProcessCommand@CPluginBase@@QEAA_NKHPEAXPEAPEAUCESERVER_REQ@@_N@Z 000000018004018c     ConEmuPluginBase.obj
 0002:0000e1b0       $cppxdata$?ProcessCommand@CPluginBase@@QEAA_NKHPEAXPEAPEAUCESERVER_REQ@@_N@Z 00000001800401b0     ConEmuPluginBase.obj
 0002:0000e1b9       $stateUnwindMap$?ProcessCommand@CPluginBase@@QEAA_NKHPEAXPEAPEAUCESERVER_REQ@@_N@Z 00000001800401b9     ConEmuPluginBase.obj
 0002:0000e1c0       $ip2state$?ProcessCommand@CPluginBase@@QEAA_NKHPEAXPEAPEAUCESERVER_REQ@@_N@Z 00000001800401c0     ConEmuPluginBase.obj
 0002:0000e1cc       $unwind$?FarSetConsoleSize@CPluginBase@@SA_NFF@Z 00000001800401cc     ConEmuPluginBase.obj
 0002:0000e1e8       $unwind$?ReloadFarInfo@CPluginBase@@QEAA_N_N@Z 00000001800401e8     ConEmuPluginBase.obj
 0002:0000e208       $unwind$?FillUpdateBackground@CPluginBase@@QEAAXPEAUPaintBackgroundArg@@@Z 0000000180040208     ConEmuPluginBase.obj
 0002:0000e220       $unwind$?GetPanelInfo@CPluginBase@@QEAA_NKPEAUBkPanelInfo@@@Z 0000000180040220     ConEmuPluginBase.obj
 0002:0000e238       $unwind$?ProcessDragFrom@CPluginBase@@QEAAXXZ 0000000180040238     ConEmuPluginBase.obj
 0002:0000e260       $unwind$?ProcessDragTo@CPluginBase@@QEAAXXZ 0000000180040260     ConEmuPluginBase.obj
 0002:0000e284       $unwind$?IsCurrentTabModal@CPluginBase@@QEAA_NXZ 0000000180040284     ConEmuPluginBase.obj
 0002:0000e294       $cppxdata$?IsCurrentTabModal@CPluginBase@@QEAA_NXZ 0000000180040294     ConEmuPluginBase.obj
 0002:0000e29d       $stateUnwindMap$?CreateTabs@CPluginBase@@SA_NH@Z 000000018004029d     ConEmuPluginBase.obj
 0002:0000e29d       $stateUnwindMap$?IsCurrentTabModal@CPluginBase@@QEAA_NXZ 000000018004029d     ConEmuPluginBase.obj
 0002:0000e29d       $stateUnwindMap$?SendTabs@CPluginBase@@SAXH_N@Z 000000018004029d     ConEmuPluginBase.obj
 0002:0000e2a4       $ip2state$?IsCurrentTabModal@CPluginBase@@QEAA_NXZ 00000001800402a4     ConEmuPluginBase.obj
 0002:0000e2ac       $unwind$?ShowTabsList@CPluginBase@@QEAAXXZ 00000001800402ac     ConEmuPluginBase.obj
 0002:0000e2c0       $unwind$?ShowPanelsList@CPluginBase@@QEAAXXZ 00000001800402c0     ConEmuPluginBase.obj
 0002:0000e2d8       $unwind$?EditViewConsoleOutput@CPluginBase@@QEAAX_N@Z 00000001800402d8     ConEmuPluginBase.obj
 0002:0000e2d8       $unwind$?x_ismbbtype_l@@YAHPEAU__crt_locale_pointers@@IHH@Z 00000001800402d8     libucrt:ismbbyte.obj
 0002:0000e2e8       $unwind$?PrintText@CPluginBase@@QEAA_NPEB_W@Z 00000001800402e8     ConEmuPluginBase.obj
 0002:0000e300       $unwind$?cmd_OpenEditorLine@CPluginBase@@QEAA_NPEAUCESERVER_REQ_FAREDITOR@@@Z 0000000180040300     ConEmuPluginBase.obj
 0002:0000e31c       $cppxdata$?cmd_OpenEditorLine@CPluginBase@@QEAA_NPEAUCESERVER_REQ_FAREDITOR@@@Z 000000018004031c     ConEmuPluginBase.obj
 0002:0000e325       $stateUnwindMap$?cmd_OpenEditorLine@CPluginBase@@QEAA_NPEAUCESERVER_REQ_FAREDITOR@@@Z 0000000180040325     ConEmuPluginBase.obj
 0002:0000e32c       $ip2state$?cmd_OpenEditorLine@CPluginBase@@QEAA_NPEAUCESERVER_REQ_FAREDITOR@@@Z 000000018004032c     ConEmuPluginBase.obj
 0002:0000e334       $unwind$?cmd_RedrawFarCall@CPluginBase@@QEAA_NAEAPEAUCESERVER_REQ@@PEAPEAU2@@Z 0000000180040334     ConEmuPluginBase.obj
 0002:0000e334       $unwind$_invalid_parameter 0000000180040334     libucrt:invalid_parameter.obj
 0002:0000e348       $unwind$?cmd_LeftClickSync@CPluginBase@@QEAAXPEAX@Z 0000000180040348     ConEmuPluginBase.obj
 0002:0000e35c       $unwind$?cmd_EMenu@CPluginBase@@QEAAXPEAX@Z 000000018004035c     ConEmuPluginBase.obj
 0002:0000e378       $unwind$?cmd_ExternalCallback@CPluginBase@@QEAA_NPEAX@Z 0000000180040378     ConEmuPluginBase.obj
 0002:0000e388       $unwind$?cmd_ConSetFont@CPluginBase@@QEAAXPEAX@Z 0000000180040388     ConEmuPluginBase.obj
 0002:0000e398       $unwind$?OnPanelViewCallbacks@CPluginBase@@SA_NPEAUHookCallbackArg@@P6AHPEAXPEAU_INPUT_RECORD@@KPEAKPEAH@Z5@Z 0000000180040398     ConEmuPluginBase.obj
 0002:0000e3b0       $unwind$?OnConsoleReadInputPost@CPluginBase@@SAHPEAUHookCallbackArg@@@Z 00000001800403b0     ConEmuPluginBase.obj
 0002:0000e3d0       $unwind$?OnConsoleDetaching@CPluginBase@@SAHPEAUHookCallbackArg@@@Z 00000001800403d0     ConEmuPluginBase.obj
 0002:0000e3e0       $unwind$?OnLibraryLoaded@CPluginBase@@SAXPEAUHINSTANCE__@@@Z 00000001800403e0     ConEmuPluginBase.obj
 0002:0000e3f0       $unwind$?NotifyConEmuUnloaded@CPluginBase@@SAXXZ 00000001800403f0     ConEmuPluginBase.obj
 0002:0000e40c       $unwind$?LoadFarVersion@CPluginBase@@SA_NXZ 000000018004040c     ConEmuPluginBase.obj
 0002:0000e424       $unwind$?UngetDummyMouseEvent@CPluginBase@@SA_N_NPEAUHookCallbackArg@@@Z 0000000180040424     ConEmuPluginBase.obj
 0002:0000e438       $unwind$?OnConsolePeekReadInput@CPluginBase@@SAX_N@Z 0000000180040438     ConEmuPluginBase.obj
 0002:0000e450       $unwind$?ActivatePlugin@CPluginBase@@QEAA_NKPEAXK@Z 0000000180040450     ConEmuPluginBase.obj
 0002:0000e464       $unwind$?WaitPluginActivation@CPluginBase@@SAKKPEAPEAXHK@Z 0000000180040464     ConEmuPluginBase.obj
 0002:0000e480       $unwind$?MonitorThreadProcW@CPluginBase@@SAKPEAX@Z 0000000180040480     ConEmuPluginBase.obj
 0002:0000e4a8       $cppxdata$?MonitorThreadProcW@CPluginBase@@SAKPEAX@Z 00000001800404a8     ConEmuPluginBase.obj
 0002:0000e4b1       $stateUnwindMap$?MonitorThreadProcW@CPluginBase@@SAKPEAX@Z 00000001800404b1     ConEmuPluginBase.obj
 0002:0000e4b1       $stateUnwindMap$?RegisterSubplugin@CPluginBackground@@QEAAHPEAURegisterBackgroundArg@@@Z 00000001800404b1     PluginBackground.obj
 0002:0000e4b8       $ip2state$?MonitorThreadProcW@CPluginBase@@SAKPEAX@Z 00000001800404b8     ConEmuPluginBase.obj
 0002:0000e4c4       $unwind$?CheckConEmuDetached@CPluginBase@@SAXXZ 00000001800404c4     ConEmuPluginBase.obj
 0002:0000e4e0       $cppxdata$?CheckConEmuDetached@CPluginBase@@SAXXZ 00000001800404e0     ConEmuPluginBase.obj
 0002:0000e4e9       $stateUnwindMap$?CheckConEmuDetached@CPluginBase@@SAXXZ 00000001800404e9     ConEmuPluginBase.obj
 0002:0000e4f0       $ip2state$?CheckConEmuDetached@CPluginBase@@SAXXZ 00000001800404f0     ConEmuPluginBase.obj
 0002:0000e4f8       $unwind$?OpenMapHeader@CPluginBase@@SAHXZ 00000001800404f8     ConEmuPluginBase.obj
 0002:0000e50c       $unwind$?InitHWND@CPluginBase@@SAXXZ 000000018004050c     ConEmuPluginBase.obj
 0002:0000e524       $unwind$?GetMainThreadId@CPluginBase@@SAKXZ 0000000180040524     ConEmuPluginBase.obj
 0002:0000e53c       $unwind$?RunExternalProgramW@CPluginBase@@SA_NPEA_W0_N@Z 000000018004053c     ConEmuPluginBase.obj
 0002:0000e55c       $cppxdata$?RunExternalProgramW@CPluginBase@@SA_NPEA_W0_N@Z 000000018004055c     ConEmuPluginBase.obj
 0002:0000e565       $stateUnwindMap$?RunExternalProgramW@CPluginBase@@SA_NPEA_W0_N@Z 0000000180040565     ConEmuPluginBase.obj
 0002:0000e577       $ip2state$?RunExternalProgramW@CPluginBase@@SA_NPEA_W0_N@Z 0000000180040577     ConEmuPluginBase.obj
 0002:0000e588       $unwind$?CreateTabs@CPluginBase@@SA_NH@Z 0000000180040588     ConEmuPluginBase.obj
 0002:0000e598       $cppxdata$?CreateTabs@CPluginBase@@SA_NH@Z 0000000180040598     ConEmuPluginBase.obj
 0002:0000e5a1       $ip2state$?CreateTabs@CPluginBase@@SA_NH@Z 00000001800405a1     ConEmuPluginBase.obj
 0002:0000e5a8       $unwind$?AddTab@CPluginBase@@QEAA_NAEAHH_N1HPEB_W2HHHH@Z 00000001800405a8     ConEmuPluginBase.obj
 0002:0000e5cc       $unwind$?SendTabs@CPluginBase@@SAXH_N@Z 00000001800405cc     ConEmuPluginBase.obj
 0002:0000e5e0       $cppxdata$?SendTabs@CPluginBase@@SAXH_N@Z 00000001800405e0     ConEmuPluginBase.obj
 0002:0000e5e9       $ip2state$?SendTabs@CPluginBase@@SAXH_N@Z 00000001800405e9     ConEmuPluginBase.obj
 0002:0000e5f4       $unwind$?CloseTabs@CPluginBase@@SAXXZ 00000001800405f4     ConEmuPluginBase.obj
 0002:0000e604       $unwind$?LoadPanelTabsFromRegistry@CPluginBase@@IEAAXXZ 0000000180040604     ConEmuPluginBase.obj
 0002:0000e610       $unwind$?Plugin@@YAPEAVCPluginBase@@XZ 0000000180040610     ConEmuPluginBase.obj
 0002:0000e620       $cppxdata$?Plugin@@YAPEAVCPluginBase@@XZ 0000000180040620     ConEmuPluginBase.obj
 0002:0000e629       $stateUnwindMap$?Plugin@@YAPEAVCPluginBase@@XZ 0000000180040629     ConEmuPluginBase.obj
 0002:0000e63e       $ip2state$?Plugin@@YAPEAVCPluginBase@@XZ 000000018004063e     ConEmuPluginBase.obj
 0002:0000e654       $unwind$?LoadModuleVersion@@YA_NPEB_WAEAUtagVS_FIXEDFILEINFO@@PEA_W_K@Z 0000000180040654     ConEmuPluginBase.obj
 0002:0000e674       $unwind$?LoadFarVersion@@YA_NAEAUFarVersion@@AEAY0CAA@_W@Z 0000000180040674     ConEmuPluginBase.obj
 0002:0000e690       $unwind$??1MWow64Disable@@QEAA@XZ 0000000180040690     ConEmuPluginBase.obj
 0002:0000e6a0       $cppxdata$??1MWow64Disable@@QEAA@XZ 00000001800406a0     ConEmuPluginBase.obj
 0002:0000e6a5       $ip2state$??1MWow64Disable@@QEAA@XZ 00000001800406a5     ConEmuPluginBase.obj
 0002:0000e6a8       $unwind$?LoadThSet@CPluginBackground@@IEAAHH@Z 00000001800406a8     PluginBackground.obj
 0002:0000e6d4       $cppxdata$?LoadThSet@CPluginBackground@@IEAAHH@Z 00000001800406d4     PluginBackground.obj
 0002:0000e6dd       $stateUnwindMap$?LoadThSet@CPluginBackground@@IEAAHH@Z 00000001800406dd     PluginBackground.obj
 0002:0000e6e4       $ip2state$?LoadThSet@CPluginBackground@@IEAAHH@Z 00000001800406e4     PluginBackground.obj
 0002:0000e6ec       $unwind$?UpdateBackground@CPluginBackground@@IEAAXXZ 00000001800406ec     PluginBackground.obj
 0002:0000e718       $cppxdata$?UpdateBackground@CPluginBackground@@IEAAXXZ 0000000180040718     PluginBackground.obj
 0002:0000e721       $stateUnwindMap$?UpdateBackground@CPluginBackground@@IEAAXXZ 0000000180040721     PluginBackground.obj
 0002:0000e728       $ip2state$?UpdateBackground@CPluginBackground@@IEAAXXZ 0000000180040728     PluginBackground.obj
 0002:0000e734       $unwind$??0CPluginBackground@@QEAA@XZ 0000000180040734     PluginBackground.obj
 0002:0000e750       $cppxdata$??0CPluginBackground@@QEAA@XZ 0000000180040750     PluginBackground.obj
 0002:0000e759       $stateUnwindMap$??0CPluginBackground@@QEAA@XZ 0000000180040759     PluginBackground.obj
 0002:0000e75f       $ip2state$??0CPluginBackground@@QEAA@XZ 000000018004075f     PluginBackground.obj
 0002:0000e768       $unwind$??1CPluginBackground@@QEAA@XZ 0000000180040768     PluginBackground.obj
 0002:0000e780       $cppxdata$??1CPluginBackground@@QEAA@XZ 0000000180040780     PluginBackground.obj
 0002:0000e785       $ip2state$??1CPluginBackground@@QEAA@XZ 0000000180040785     PluginBackground.obj
 0002:0000e788       $unwind$?RegisterSubplugin@CPluginBackground@@QEAAHPEAURegisterBackgroundArg@@@Z 0000000180040788     PluginBackground.obj
 0002:0000e7a0       $cppxdata$?RegisterSubplugin@CPluginBackground@@QEAAHPEAURegisterBackgroundArg@@@Z 00000001800407a0     PluginBackground.obj
 0002:0000e7a9       $ip2state$?RegisterSubplugin@CPluginBackground@@QEAAHPEAURegisterBackgroundArg@@@Z 00000001800407a9     PluginBackground.obj
 0002:0000e7b4       $unwind$?PlugServerStart@@YA_NXZ 00000001800407b4     PluginSrv.obj
 0002:0000e7bc       $unwind$?PlugServerCommand@@YAHPEAXPEAUCESERVER_REQ@@AEAPEAU1@AEAK3_J@Z 00000001800407bc     PluginSrv.obj
 0002:0000e7e0       $cppxdata$?PlugServerCommand@@YAHPEAXPEAUCESERVER_REQ@@AEAPEAU1@AEAK3_J@Z 00000001800407e0     PluginSrv.obj
 0002:0000e7e9       $stateUnwindMap$?PlugServerCommand@@YAHPEAXPEAUCESERVER_REQ@@AEAPEAU1@AEAK3_J@Z 00000001800407e9     PluginSrv.obj
 0002:0000e7f6       $ip2state$?PlugServerCommand@@YAHPEAXPEAUCESERVER_REQ@@AEAPEAU1@AEAK3_J@Z 00000001800407f6     PluginSrv.obj
 0002:0000e808       $unwind$?PlugServerFree@@YAXPEAUCESERVER_REQ@@_J@Z 0000000180040808     PluginSrv.obj
 0002:0000e808       $unwind$_putwch_nolock     0000000180040808     libucrt:putwch.obj
 0002:0000e810       $unwind$?DumpError@?$PipeServer@UCESERVER_REQ@@@@IEAAXPEAUPipeInst@1@PEB_WH@Z 0000000180040810     PluginSrv.obj
 0002:0000e82c       $unwind$?PipeServerRead@?$PipeServer@UCESERVER_REQ@@@@IEAAHPEAUPipeInst@1@@Z 000000018004082c     PluginSrv.obj
 0002:0000e850       $unwind$?PipeServerWrite@?$PipeServer@UCESERVER_REQ@@@@IEAAHPEAUPipeInst@1@PEBXKPEAKH@Z 0000000180040850     PluginSrv.obj
 0002:0000e86c       $unwind$?WaitForClient@?$PipeServer@UCESERVER_REQ@@@@IEAA_NPEAUPipeInst@1@AEAH1@Z 000000018004086c     PluginSrv.obj
 0002:0000e888       $unwind$?WriteDummyAnswer@?$PipeServer@UCESERVER_REQ@@@@IEAAHPEAUPipeInst@1@@Z 0000000180040888     PluginSrv.obj
 0002:0000e89c       $unwind$?PipeServerThread@?$PipeServer@UCESERVER_REQ@@@@IEAAKPEAUPipeInst@1@@Z 000000018004089c     PluginSrv.obj
 0002:0000e8b4       $unwind$?StartPipeInstance@?$PipeServer@UCESERVER_REQ@@@@IEAA_NPEAUPipeInst@1@@Z 00000001800408b4     PluginSrv.obj
 0002:0000e8cc       $unwind$?StartPipeServer@?$PipeServer@UCESERVER_REQ@@@@QEAA_N_NPEB_W_JPEAU_SECURITY_ATTRIBUTES@@P6AHPEAXPEAUCESERVER_REQ@@AEAPEAU3@AEAK72@ZP6AX52@ZP6AH42@ZP6AH42@ZP6AH42@Z@Z 00000001800408cc     PluginSrv.obj
 0002:0000e8cc       $unwind$__GSHandlerCheck_EH4 00000001800408cc     LIBCMT:gshandlereh4.obj
 0002:0000e8cc       $unwind$__GSHandlerCheck_SEH 00000001800408cc     LIBCMT:gshandlerseh.obj
 0002:0000e8cc       $unwind$??$TypeMatchHelper@V__FrameHandler3@@@@YAHPEBU_s_HandlerType@@PEBU_s_CatchableType@@PEBU_s_ThrowInfo@@@Z 00000001800408cc     libvcruntime:frame.obj
 0002:0000e8cc       $unwind$??$TypeMatchHelper@V__FrameHandler4@@@@YAHPEAUHandlerType4@FH4@@PEBU_s_CatchableType@@PEBU_s_ThrowInfo@@@Z 00000001800408cc     libvcruntime:frame.obj
 0002:0000e8cc       $unwind$?initialize_stdio_handles_nolock@@YAXXZ 00000001800408cc     libucrt:ioinit.obj
 0002:0000e8cc       $unwind$__acrt_initialize_stdio 00000001800408cc     libucrt:_file.obj
 0002:0000e8cc       $unwind$?GetBuffer@CEStr@@QEAAPEA_W_J@Z 00000001800408cc     common-kernel64:CEStr.obj
 0002:0000e8cc       $unwind$?ExecuteNewCmd@@YA_NAEAPEAUCESERVER_REQ@@AEAKK_K@Z 00000001800408cc     common-kernel64:ConEmuCheck.obj
 0002:0000e8cc       $unwind$?WaitUnlocked@MSection@@IEAAXKK@Z 00000001800408cc     common-kernel64:MSection.obj
 0002:0000e8e4       $unwind$?GetConEmuHWND@@YAPEAUHWND__@@H@Z 00000001800408e4     common-kernel64:ConEmuCheck.obj
 0002:0000e900       $unwind$?isConsoleWindow@@YA_NPEAUHWND__@@@Z 0000000180040900     common-kernel64:ConEmuCheck.obj
 0002:0000e918       $unwind$?GuiMessageBox@@YAHPEAUHWND__@@PEB_W1H@Z 0000000180040918     common-kernel64:ConEmuCheck.obj
 0002:0000e938       $unwind$?ExecuteOpenPipe@@YAPEAXPEB_WAEAY0CAI@_W0KKHPEAXH@Z 0000000180040938     common-kernel64:ConEmuCheck.obj
 0002:0000e950       $unwind$__scrt_dllmain_exception_filter 0000000180040950     LIBCMT:utility.obj
 0002:0000e950       $unwind$?Is_bad_exception_allowed@@YAEPEBU_s_ESTypeList@@@Z 0000000180040950     libvcruntime:frame.obj
 0002:0000e950       $unwind$_ischartype_l      0000000180040950     libucrt:strtox.obj
 0002:0000e950       $unwind$_recalloc_base     0000000180040950     libucrt:recalloc.obj
 0002:0000e950       $unwind$__acrt_free_locale 0000000180040950     libucrt:locale_refcounting.obj
 0002:0000e950       $unwind$__acrt_lowio_create_handle_array 0000000180040950     libucrt:osfinfo.obj
 0002:0000e950       $unwind$?setSBCS@@YAXPEAU__crt_multibyte_data@@@Z 0000000180040950     libucrt:mbctype.obj
 0002:0000e950       $unwind$_seh_filter_exe    0000000180040950     libucrt:exception_filter.obj
 0002:0000e950       $unwind$_initterm          0000000180040950     libucrt:initterm.obj
 0002:0000e950       $unwind$??$ensure_buffer_is_big_enough@D@formatting_buffer@__crt_stdio_output@@QEAA_N_K@Z 0000000180040950     libucrt:output.obj
 0002:0000e950       $unwind$??$ensure_buffer_is_big_enough@_W@formatting_buffer@__crt_stdio_output@@QEAA_N_K@Z 0000000180040950     libucrt:output.obj
 0002:0000e950       $unwind$?ExecuteNewCmd@@YAPEAUCESERVER_REQ@@K_K@Z 0000000180040950     common-kernel64:ConEmuCheck.obj
 0002:0000e950       $unwind$??0CEnvStrings@@QEAA@PEA_W@Z 0000000180040950     common-kernel64:EnvVar.obj
 0002:0000e950       $unwind$?ExpandEnvStr@@YAPEA_WPEB_W@Z 0000000180040950     common-kernel64:EnvVar.obj
 0002:0000e950       $unwind$?GetEnvVar@@YAPEA_WPEB_W@Z 0000000180040950     common-kernel64:EnvVar.obj
 0002:0000e950       $unwind$?Init@HkFunc@@QEAA_NPEB_WPEAUHINSTANCE__@@@Z 0000000180040950     common-kernel64:HkFunc.obj
 0002:0000e950       $unwind$?AddRef@MSection@@IEAAXK@Z 0000000180040950     common-kernel64:MSection.obj
 0002:0000e950       $unwind$?Lock@MSection@@IEAAHHK@Z 0000000180040950     common-kernel64:MSection.obj
 0002:0000e950       $unwind$?ReleaseRef@MSection@@IEAAHK@Z 0000000180040950     common-kernel64:MSection.obj
 0002:0000e950       $unwind$?lstrdup@@YAPEA_WPEB_W_K@Z 0000000180040950     common-kernel64:MStrDup.obj
 0002:0000e950       $unwind$?IsModuleValid@@YA_NPEAUHINSTANCE__@@H@Z 0000000180040950     common-kernel64:WModuleCheck.obj
 0002:0000e964       $unwind$??$free_environment@D@@YAXQEAPEAD@Z 0000000180040964     libucrt:environment_initialization.obj
 0002:0000e964       $unwind$??$free_environment@_W@@YAXQEAPEA_W@Z 0000000180040964     libucrt:environment_initialization.obj
 0002:0000e964       $unwind$?SetCommand@CESERVER_REQ_NEWCMD@@QEAAXPEB_W@Z 0000000180040964     common-kernel64:Common.obj
 0002:0000e964       $unwind$?ExecutePrepareCmd@@YAXPEAUCESERVER_REQ@@K_K@Z 0000000180040964     common-kernel64:ConEmuCheck.obj
 0002:0000e964       $unwind$?ExecutePrepareCmd@@YAXPEAUCESERVER_REQ_HDR@@K_K@Z 0000000180040964     common-kernel64:ConEmuCheck.obj
 0002:0000e970       $unwind$?ExecuteGuiCmd@@YAPEAUCESERVER_REQ@@PEAUHWND__@@PEAU1@0H@Z 0000000180040970     common-kernel64:ConEmuCheck.obj
 0002:0000e990       $unwind$?ExecuteSrvCmd@@YAPEAUCESERVER_REQ@@KPEAU1@PEAUHWND__@@HKH@Z 0000000180040990     common-kernel64:ConEmuCheck.obj
 0002:0000e9b4       $unwind$?ExecuteCmd@@YAPEAUCESERVER_REQ@@PEB_WPEAU1@KPEAUHWND__@@HKH@Z 00000001800409b4     common-kernel64:ConEmuCheck.obj
 0002:0000e9d8       $unwind$?LoadSrvMapping@@YAHPEAUHWND__@@AEAUCESERVER_CONSOLE_MAPPING_HDR@@@Z 00000001800409d8     common-kernel64:ConEmuCheck.obj
 0002:0000e9f8       $unwind$?ModuleName@@YAPEB_WPEB_W@Z 00000001800409f8     common-kernel64:ConEmuCheck.obj
 0002:0000ea0c       $unwind$?sprintf_c@@YAHPEAD_JPEBDZZ 0000000180040a0c     common-kernel64:MStrSafe.obj
 0002:0000ea0c       $unwind$?swprintf_c@@YAHPEA_W_JPEB_WZZ 0000000180040a0c     common-kernel64:MStrSafe.obj
 0002:0000ea18       $unwind$?msprintf@@YAPEB_WPEA_W_KPEB_WZZ 0000000180040a18     common-kernel64:MStrSafe.obj
 0002:0000ea38       $unwind$?lstrcmpni@@YAHPEB_W0H@Z 0000000180040a38     common-kernel64:MStrSafe.obj
 0002:0000ea58       $unwind$?IsFilePath@@YA_NPEB_W_N@Z 0000000180040a58     common-kernel64:CmdLine.obj
 0002:0000ea70       $unwind$?apiTerminateThreadEx@@YAHPEAXKPEBDH@Z 0000000180040a70     common-kernel64:WThreads.obj
 0002:0000ea8c       $unwind$?SetThreadName@@YAXKPEAD@Z 0000000180040a8c     common-kernel64:WThreads.obj
 0002:0000eaac       $unwind$?apiThreadHelper@@YAKPEAX@Z 0000000180040aac     common-kernel64:WThreads.obj
 0002:0000eac0       $unwind$?lstrmerge@@YAPEA_WPEB_W00000000@Z 0000000180040ac0     common-kernel64:MStrDup.obj
 0002:0000eae0       $unwind$?lstrmerge@@YA_NPEAPEA_WPEB_W1111111@Z 0000000180040ae0     common-kernel64:MStrDup.obj
 0002:0000eaec       $unwind$?SetEnvStrings@CESERVER_REQ_NEWCMD@@QEAAXPEB_WK@Z 0000000180040aec     common-kernel64:Common.obj
 0002:0000eb08       $unwind$?LoadAdvApi@MNullDesc@@IEAAHXZ 0000000180040b08     common-kernel64:MSecurity.obj
 0002:0000eb1c       $unwind$?LocalSecurity@MNullDesc@@QEAAPEAU_SECURITY_ATTRIBUTES@@XZ 0000000180040b1c     common-kernel64:MSecurity.obj
 0002:0000eb38       $unwind$?type_case_a@?$output_processor@DV?$string_output_adapter@D@__crt_stdio_output@@V?$standard_base@DV?$string_output_adapter@D@__crt_stdio_output@@@2@@__crt_stdio_output@@AEAA_NXZ 0000000180040b38     libucrt:output.obj
 0002:0000eb38       $unwind$??0CEStr@@QEAA@PEB_W00000000@Z 0000000180040b38     common-kernel64:CEStr.obj
 0002:0000eb44       $unwind$?FileExists@@YA_NPEB_WPEAK@Z 0000000180040b44     common-kernel64:WObjects.obj
 0002:0000eb64       $unwind$?IsWinVerOrHigher@@YA_NG@Z 0000000180040b64     common-kernel64:WObjects.obj
 0002:0000eb74       $unwind$?isTerminalMode@@YA_NXZ 0000000180040b74     common-kernel64:MProcess.obj
 0002:0000eb8c       $unwind$__dcrt_lowio_ensure_console_output_initialized 0000000180040b8c     libucrt:initcon.obj
 0002:0000eb8c       $unwind$_isleadbyte_l      0000000180040b8c     libucrt:_wctype.obj
 0002:0000eb8c       $unwind$?getSystemCP@@YAHH@Z 0000000180040b8c     libucrt:mbctype.obj
 0002:0000eb8c       $unwind$?Close@?$MToolHelp@UtagPROCESSENTRY32W@@$1?Process32FirstW@@YAHPEAXPEAU1@@Z$1?Process32NextW@@YAH01@Z@@QEAAX_N@Z 0000000180040b8c     common-kernel64:MProcess.obj
 0002:0000eb94       $unwind$?Find@?$MToolHelp@UtagPROCESSENTRY32W@@$1?Process32FirstW@@YAHPEAXPEAU1@@Z$1?Process32NextW@@YAH01@Z@@QEAA_NP6A_NPEAUtagPROCESSENTRY32W@@_J@Z10@Z 0000000180040b94     common-kernel64:MProcess.obj
 0002:0000ebac       $unwind$??$_Emplace_reallocate@AEBUtagPROCESSENTRY32W@@@?$vector@UtagPROCESSENTRY32W@@V?$MArrayAllocator@UtagPROCESSENTRY32W@@@@@std@@QEAAPEAUtagPROCESSENTRY32W@@QEAU2@AEBU2@@Z 0000000180040bac     common-kernel64:MProcess.obj
 0002:0000ebc8       $unwind$??$parse_command_line@D@@YAXPEADPEAPEAD0PEA_K2@Z 0000000180040bc8     libucrt:argv_parsing.obj
 0002:0000ebc8       $unwind$?MyEnterCriticalSection@MSection@@IEAA_NK@Z 0000000180040bc8     common-kernel64:MSection.obj
 0002:0000ebc8       $unwind$?CheckCallbackPtr@@YA_NPEAUHINSTANCE__@@_KPEAP6A_JXZHHH@Z 0000000180040bc8     common-kernel64:WModuleCheck.obj
 0002:0000ebe4       $unwind$?RecreateAndLock@MSectionSimple@@QEAA_NXZ 0000000180040be4     common-kernel64:MSectionSimple.obj
 0002:0000ebec       $unwind$?SetConEmuEnvVar@@YAXPEAUHWND__@@@Z 0000000180040bec     common-user64:SetEnvVar.obj
 0002:0000ebfc       $unwind$?SetConEmuEnvHWND@@YAXPEB_WPEAUHWND__@@@Z 0000000180040bfc     common-user64:SetEnvVar.obj
 0002:0000ec0c       $unwind$?FindConEmuBaseDir@@YAHAEAY0BAF@_W0PEAUHINSTANCE__@@@Z 0000000180040c0c     common-user64:ConEmuCheckEx.obj
 0002:0000ec34       $cppxdata$?FindConEmuBaseDir@@YAHAEAY0BAF@_W0PEAUHINSTANCE__@@@Z 0000000180040c34     common-user64:ConEmuCheckEx.obj
 0002:0000ec3d       $stateUnwindMap$?FindConEmuBaseDir@@YAHAEAY0BAF@_W0PEAUHINSTANCE__@@@Z 0000000180040c3d     common-user64:ConEmuCheckEx.obj
 0002:0000ec4b       $ip2state$?FindConEmuBaseDir@@YAHAEAY0BAF@_W0PEAUHINSTANCE__@@@Z 0000000180040c4b     common-user64:ConEmuCheckEx.obj
 0002:0000ec60       $unwind$?EvaluateDefaultFontWidth@@YAHHPEB_W@Z 0000000180040c60     common-user64:EmergencyShow.obj
 0002:0000ec7c       $unwind$?SetUserFriendlyFont@@YAXPEAUHWND__@@HH@Z 0000000180040c7c     common-user64:EmergencyShow.obj
 0002:0000eca0       $unwind$?CorrectConsolePos@@YAXPEAUHWND__@@@Z 0000000180040ca0     common-user64:EmergencyShow.obj
 0002:0000ecb8       $unwind$?EmergencyShow@@YAXPEAUHWND__@@HH@Z 0000000180040cb8     common-user64:EmergencyShow.obj
 0002:0000ecd4       $unwind$?SearchAppPaths@@YA_NPEB_WAEAUCEStr@@_NPEAVCEnvRestorer@@@Z 0000000180040cd4     common-user64:WFiles.obj
 0002:0000ecfc       $cppxdata$?SearchAppPaths@@YA_NPEB_WAEAUCEStr@@_NPEAVCEnvRestorer@@@Z 0000000180040cfc     common-user64:WFiles.obj
 0002:0000ed05       $stateUnwindMap$?SearchAppPaths@@YA_NPEB_WAEAUCEStr@@_NPEAVCEnvRestorer@@@Z 0000000180040d05     common-user64:WFiles.obj
 0002:0000ed0d       $ip2state$?SearchAppPaths@@YA_NPEB_WAEAUCEStr@@_NPEAVCEnvRestorer@@@Z 0000000180040d0d     common-user64:WFiles.obj
 0002:0000ed18       $unwind$?SetConsoleInfo@@YAHPEAUHWND__@@PEAUCONSOLE_INFO@@@Z 0000000180040d18     common-user64:WConsoleEx.obj
 0002:0000ed34       $unwind$?GetConsoleSizeInfo@@YAXPEAUCONSOLE_INFO@@@Z 0000000180040d34     common-user64:WConsoleEx.obj
 0002:0000ed44       $unwind$?SetConsoleFontSizeTo@@YAXPEAUHWND__@@HHPEB_WGG@Z 0000000180040d44     common-user64:WConsoleEx.obj
 0002:0000ed64       $unwind$?UpdateComspec@@YAXPEAUConEmuComspec@@_N@Z 0000000180040d64     common-user64:WUser.obj
 0002:0000ed7c       $unwind$?write_string@?$string_output_adapter@D@__crt_stdio_output@@QEBAXQEBDHQEAHAEAV__crt_deferred_errno_cache@@@Z 0000000180040d7c     libucrt:output.obj
 0002:0000ed7c       $unwind$?SetEnvVarExpanded@@YAXPEB_W0@Z 0000000180040d7c     common-user64:WUser.obj
 0002:0000ed98       $xdatasym                  0000000180040d98     LIBCMT:amdsecgs.obj
 0002:0000eda0       $xdatasym                  0000000180040da0     LIBCMT:chkstk.obj
 0002:0000eda8       $unwind$?dllmain_crt_process_attach@@YAHQEAUHINSTANCE__@@QEAX@Z 0000000180040da8     LIBCMT:dll_dllmain.obj
 0002:0000ede4       $unwind$?dllmain_crt_process_detach@@YAH_N@Z 0000000180040de4     LIBCMT:dll_dllmain.obj
 0002:0000ee38       $unwind$?dllmain_dispatch@@YAHQEAUHINSTANCE__@@KQEAX@Z 0000000180040e38     LIBCMT:dll_dllmain.obj
 0002:0000ee60       $unwind$?filt$0@?0??dllmain_dispatch@@YAHQEAUHINSTANCE__@@KQEAX@Z@4HA 0000000180040e60     LIBCMT:dll_dllmain.obj
 0002:0000ee60       $unwind$?filt$0@?0??FrameUnwindToState@__FrameHandler4@@SAXPEA_KPEAU_xDISPATCHER_CONTEXT@@PEAUFuncInfo4@FH4@@H@Z@4HA 0000000180040e60     libvcruntime:frame.obj
 0002:0000ee60       $unwind$?fin$1@?0??FrameUnwindToState@__FrameHandler4@@SAXPEA_KPEAU_xDISPATCHER_CONTEXT@@PEAUFuncInfo4@FH4@@H@Z@4HA 0000000180040e60     libvcruntime:frame.obj
 0002:0000ee68       $unwind$__scrt_is_nonwritable_in_current_image 0000000180040e68     LIBCMT:utility.obj
 0002:0000ee88       $unwind$__scrt_is_nonwritable_in_current_image$filt$0 0000000180040e88     LIBCMT:utility.obj
 0002:0000ee90       $unwind$__report_securityfailure 0000000180040e90     LIBCMT:gs_report.obj
 0002:0000ee98       $unwind$__report_gsfailure 0000000180040e98     LIBCMT:gs_report.obj
 0002:0000eea0       $unwind$capture_current_context 0000000180040ea0     LIBCMT:gs_report.obj
 0002:0000eeac       $unwind$capture_previous_context 0000000180040eac     LIBCMT:gs_report.obj
 0002:0000eeb8       $unwind$__scrt_fastfail    0000000180040eb8     LIBCMT:utility_desktop.obj
 0002:0000eec8       $unwind$__security_init_cookie 0000000180040ec8     LIBCMT:gs_support.obj
 0002:0000eed4       $unwind$__isa_available_init 0000000180040ed4     LIBCMT:cpu_disp.obj
 0002:0000eee8       $xdatasym                  0000000180040ee8     LIBCMT:guard_dispatch.obj
 0002:0000eef0       $xdatasym                  0000000180040ef0     LIBCMT:guard_xfg_dispatch.obj
 0002:0000eef4       $unwind$?DecompFuncInfo@FH4@@YA_JPEAEAEAUFuncInfo4@1@_KH_N@Z 0000000180040ef4     libvcruntime:risctrnsctrl.obj
 0002:0000ef0c       $unwind$?UnwindNestedFrames@__FrameHandler4@@SAXPEA_KPEAUEHExceptionRecord@@PEAU_CONTEXT@@0PEAXPEAUFuncInfo4@FH4@@HHPEAUHandlerType4@5@PEAU_xDISPATCHER_CONTEXT@@E@Z 0000000180040f0c     libvcruntime:risctrnsctrl.obj
 0002:0000ef20       $unwind$?GetRangeOfTrysToCheck@__FrameHandler4@@SA?AU?$pair@Viterator@TryBlockMap4@FH4@@V123@@std@@AEAVTryBlockMap4@FH4@@HPEAU_xDISPATCHER_CONTEXT@@PEAUFuncInfo4@5@H@Z 0000000180040f20     libvcruntime:risctrnsctrl.obj
 0002:0000ef3c       $unwind$__CxxFrameHandler4 0000000180040f3c     libvcruntime:risctrnsctrl.obj
 0002:0000ef50       $unwind$??$_CallSETranslator@V__FrameHandler4@@@@YAHPEAUEHExceptionRecord@@PEA_KPEAU_CONTEXT@@PEAU_xDISPATCHER_CONTEXT@@PEAUFuncInfo4@FH4@@K1H@Z 0000000180040f50     libvcruntime:risctrnsctrl.obj
 0002:0000ef70       $unwind$?filt$0@?0???$_CallSETranslator@V__FrameHandler4@@@@YAHPEAUEHExceptionRecord@@PEA_KPEAU_CONTEXT@@PEAU_xDISPATCHER_CONTEXT@@PEAUFuncInfo4@FH4@@K1H@Z@4HA 0000000180040f70     libvcruntime:risctrnsctrl.obj
 0002:0000ef80       $xdatasym                  0000000180040f80     libvcruntime:memcpy.obj
 0002:0000ef90       $unwind$wcsstr             0000000180040f90     libvcruntime:wcsstr.obj
 0002:0000efa0       $xdatasym                  0000000180040fa0     libvcruntime:memset.obj
 0002:0000efb0       $unwind$__DestructExceptionObject 0000000180040fb0     libvcruntime:ehhelpers.obj
 0002:0000efd0       $unwind$__DestructExceptionObject$filt$0 0000000180040fd0     libvcruntime:ehhelpers.obj
 0002:0000efd0       $unwind$?fin$1@?0??CxxCallCatchBlock@__FrameHandler4@@SAPEAXPEAU_EXCEPTION_RECORD@@@Z@4HA 0000000180040fd0     libvcruntime:frame.obj
 0002:0000efdc       $unwind$__std_exception_copy 0000000180040fdc     libvcruntime:std_exception.obj
 0002:0000efdc       $unwind$_free_osfhnd       0000000180040fdc     libucrt:osfinfo.obj
 0002:0000eff0       $unwind$_CxxThrowException 0000000180040ff0     libvcruntime:throw.obj
 0002:0000f000       $xdatasym                  0000000180041000     libvcruntime:memcmp.obj
 0002:0000f004       $unwind$__C_specific_handler 0000000180041004     libvcruntime:riscchandler.obj
 0002:0000f020       $unwind$?StateFromIp@__FrameHandler4@@SAHPEAUFuncInfo4@FH4@@PEAU_xDISPATCHER_CONTEXT@@_K@Z 0000000180041020     libvcruntime:ehstate.obj
 0002:0000f034       $unwind$?getStartStop@UWMap4@FH4@@QEAAXHHAEAViterator@12@0@Z 0000000180041034     libvcruntime:frame.obj
 0002:0000f04c       $unwind$?FrameUnwindToState@__FrameHandler4@@SAXPEA_KPEAU_xDISPATCHER_CONTEXT@@PEAUFuncInfo4@FH4@@H@Z 000000018004104c     libvcruntime:frame.obj
 0002:0000f094       $unwind$?CxxCallCatchBlock@__FrameHandler4@@SAPEAXPEAU_EXCEPTION_RECORD@@@Z 0000000180041094     libvcruntime:frame.obj
 0002:0000f0f0       $unwind$?IsInExceptionSpec@@YAEPEAUEHExceptionRecord@@PEBU_s_ESTypeList@@@Z 00000001800410f0     libvcruntime:frame.obj
 0002:0000f10c       $unwind$??$__InternalCxxFrameHandler@V__FrameHandler4@@@@YA?AW4_EXCEPTION_DISPOSITION@@PEAUEHExceptionRecord@@PEA_KPEAU_CONTEXT@@PEAU_xDISPATCHER_CONTEXT@@PEAUFuncInfo4@FH4@@H1E@Z 000000018004110c     libvcruntime:frame.obj
 0002:0000f124       $unwind$??$BuildCatchObjectHelperInternal@V__FrameHandler4@@@@YAHPEAUEHExceptionRecord@@PEAXPEAUHandlerType4@FH4@@PEBU_s_CatchableType@@@Z 0000000180041124     libvcruntime:frame.obj
 0002:0000f164       $unwind$??$BuildCatchObjectInternal@V__FrameHandler4@@@@YAXPEAUEHExceptionRecord@@PEAXPEAUHandlerType4@FH4@@PEBU_s_CatchableType@@@Z 0000000180041164     libvcruntime:frame.obj
 0002:0000f190       $unwind$??$FindHandler@V__FrameHandler4@@@@YAXPEAUEHExceptionRecord@@PEA_KPEAU_CONTEXT@@PEAU_xDISPATCHER_CONTEXT@@PEAUFuncInfo4@FH4@@EH1@Z 0000000180041190     libvcruntime:frame.obj
 0002:0000f1b0       $unwind$??$CatchIt@V__FrameHandler4@@@@YAXPEAUEHExceptionRecord@@PEA_KPEAU_CONTEXT@@PEAU_xDISPATCHER_CONTEXT@@PEAUFuncInfo4@FH4@@PEAUHandlerType4@4@PEBU_s_CatchableType@@PEAUTryBlockMapEntry4@4@H1EE@Z 00000001800411b0     libvcruntime:frame.obj
 0002:0000f1c8       $unwind$??$FindHandlerForForeignException@V__FrameHandler4@@@@YAXPEAUEHExceptionRecord@@PEA_KPEAU_CONTEXT@@PEAU_xDISPATCHER_CONTEXT@@PEAUFuncInfo4@FH4@@HH1@Z 00000001800411c8     libvcruntime:frame.obj
 0002:0000f1e8       $xdatasym                  00000001800411e8     libvcruntime:notify.obj
 0002:0000f1f8       $xdatasym                  00000001800411f8     libvcruntime:handlers.obj
 0002:0000f218       $unwind$??$common_vsprintf@Vstandard_base@__crt_stdio_output@@D@@YAH_KQEAD0QEBDQEAU__crt_locale_pointers@@1@Z 0000000180041218     libucrt:output.obj
 0002:0000f218       $unwind$??$common_vsprintf@Vstandard_base@__crt_stdio_output@@_W@@YAH_KQEA_W0QEB_WQEAU__crt_locale_pointers@@QEAD@Z 0000000180041218     libucrt:output.obj
 0002:0000f238       $unwind$?process@?$output_processor@DV?$string_output_adapter@D@__crt_stdio_output@@V?$standard_base@DV?$string_output_adapter@D@__crt_stdio_output@@@2@@__crt_stdio_output@@QEAAHXZ 0000000180041238     libucrt:output.obj
 0002:0000f248       $unwind$?parse_int_from_format_string@?$output_processor@DV?$string_output_adapter@D@__crt_stdio_output@@V?$standard_base@DV?$string_output_adapter@D@__crt_stdio_output@@@2@@__crt_stdio_output@@AEAA_NQEAH@Z 0000000180041248     libucrt:output.obj
 0002:0000f248       $unwind$?process@?$output_processor@_WV?$string_output_adapter@_W@__crt_stdio_output@@V?$standard_base@_WV?$string_output_adapter@_W@__crt_stdio_output@@@2@@__crt_stdio_output@@QEAAHXZ 0000000180041248     libucrt:output.obj
 0002:0000f25c       $unwind$?state_case_type@?$output_processor@DV?$string_output_adapter@D@__crt_stdio_output@@V?$standard_base@DV?$string_output_adapter@D@__crt_stdio_output@@@2@@__crt_stdio_output@@AEAA_NXZ 000000018004125c     libucrt:output.obj
 0002:0000f274       $unwind$__acrt_DownlevelLocaleNameToLCID 0000000180041274     libucrt:lcidtoname_downlevel.obj
 0002:0000f274       $unwind$??R<lambda_f03950bc5685219e0bcd2087efbe011e>@@QEBAHXZ 0000000180041274     libucrt:onexit.obj
 0002:0000f274       $unwind$?type_case_integer@?$output_processor@DV?$string_output_adapter@D@__crt_stdio_output@@V?$standard_base@DV?$string_output_adapter@D@__crt_stdio_output@@@2@@__crt_stdio_output@@AEAA_NI_N@Z 0000000180041274     libucrt:output.obj
 0002:0000f274       $unwind$?type_case_integer@?$output_processor@_WV?$string_output_adapter@_W@__crt_stdio_output@@V?$standard_base@_WV?$string_output_adapter@_W@__crt_stdio_output@@@2@@__crt_stdio_output@@AEAA_NI_N@Z 0000000180041274     libucrt:output.obj
 0002:0000f28c       $unwind$?write_stored_string_tchar@?$output_processor@DV?$string_output_adapter@D@__crt_stdio_output@@V?$standard_base@DV?$string_output_adapter@D@__crt_stdio_output@@@2@@__crt_stdio_output@@AEAA_ND@Z 000000018004128c     libucrt:output.obj
 0002:0000f2a4       $unwind$?write_string@?$string_output_adapter@_W@__crt_stdio_output@@QEBAXQEB_WHQEAHAEAV__crt_deferred_errno_cache@@@Z 00000001800412a4     libucrt:output.obj
 0002:0000f2bc       $unwind$?parse_int_from_format_string@?$output_processor@_WV?$string_output_adapter@_W@__crt_stdio_output@@V?$standard_base@_WV?$string_output_adapter@_W@__crt_stdio_output@@@2@@__crt_stdio_output@@AEAA_NQEAH@Z 00000001800412bc     libucrt:output.obj
 0002:0000f2d0       $unwind$?state_case_type@?$output_processor@_WV?$string_output_adapter@_W@__crt_stdio_output@@V?$standard_base@_WV?$string_output_adapter@_W@__crt_stdio_output@@@2@@__crt_stdio_output@@AEAA_NXZ 00000001800412d0     libucrt:output.obj
 0002:0000f2f4       $unwind$?type_case_c_tchar@?$output_processor@_WV?$string_output_adapter@_W@__crt_stdio_output@@V?$standard_base@_WV?$string_output_adapter@_W@__crt_stdio_output@@@2@@__crt_stdio_output@@AEAA_N_W@Z 00000001800412f4     libucrt:output.obj
 0002:0000f304       $unwind$?type_case_a@?$output_processor@_WV?$string_output_adapter@_W@__crt_stdio_output@@V?$standard_base@_WV?$string_output_adapter@_W@__crt_stdio_output@@@2@@__crt_stdio_output@@AEAA_NXZ 0000000180041304     libucrt:output.obj
 0002:0000f314       $unwind$?write_stored_string_tchar@?$output_processor@_WV?$string_output_adapter@_W@__crt_stdio_output@@V?$standard_base@_WV?$string_output_adapter@_W@__crt_stdio_output@@@2@@__crt_stdio_output@@AEAA_N_W@Z 0000000180041314     libucrt:output.obj
 0002:0000f328       $unwind$??$write_multiple_characters@V?$string_output_adapter@D@__crt_stdio_output@@D@__crt_stdio_output@@YAXAEBV?$string_output_adapter@D@0@DHQEAH@Z 0000000180041328     libucrt:output.obj
 0002:0000f328       $unwind$??$write_multiple_characters@V?$string_output_adapter@_W@__crt_stdio_output@@D@__crt_stdio_output@@YAXAEBV?$string_output_adapter@_W@0@DHQEAH@Z 0000000180041328     libucrt:output.obj
 0002:0000f334       $unwind$??$parse_integer@KV?$c_string_character_source@D@__crt_strtox@@@__crt_strtox@@YAKQEAU__crt_locale_pointers@@V?$c_string_character_source@D@0@H_N@Z 0000000180041334     libucrt:strtox.obj
 0002:0000f350       $unwind$??$parse_integer@KV?$c_string_character_source@_W@__crt_strtox@@@__crt_strtox@@YAKQEAU__crt_locale_pointers@@V?$c_string_character_source@_W@0@H_N@Z 0000000180041350     libucrt:strtox.obj
 0002:0000f368       $unwind$__acrt_call_reportfault 0000000180041368     libucrt:invalid_parameter.obj
 0002:0000f388       $unwind$?common_exit@@YAXHW4_crt_exit_cleanup_mode@@W4_crt_exit_return_mode@@@Z 0000000180041388     libucrt:exit.obj
 0002:0000f394       $unwind$??R<lambda_6e4b09c48022b2350581041d5f6b0c4c>@@QEBA@XZ 0000000180041394     libucrt:exit.obj
 0002:0000f3b4       $unwind$??$?RV<lambda_d80eeec6fff315bfe5c115232f3240e3>@@AEAV<lambda_6e4b09c48022b2350581041d5f6b0c4c>@@V<lambda_2358e3775559c9db80273638284d5e45>@@@?$__crt_seh_guarded_call@X@@QEAAX$$QEAV<lambda_d80eeec6fff315bfe5c115232f3240e3>@@AEAV<lambda_6e4b09c48022b2350581041d5f6b0c4c>@@$$QEAV<lambda_2358e3775559c9db80273638284d5e45>@@@Z 00000001800413b4     libucrt:exit.obj
 0002:0000f3d8       $unwind$_configure_narrow_argv 00000001800413d8     libucrt:argv_parsing.obj
 0002:0000f3ec       $unwind$_register_onexit_function 00000001800413ec     libucrt:onexit.obj
 0002:0000f3f4       $unwind$_execute_onexit_table 00000001800413f4     libucrt:onexit.obj
 0002:0000f3fc       $unwind$??R<lambda_22ebabd17bc4fa466a2aca6d8deb888d>@@QEBAHXZ 00000001800413fc     libucrt:onexit.obj
 0002:0000f414       $unwind$??$?RV<lambda_638799b9deba96c50f710eeac98168cd>@@AEAV<lambda_22ebabd17bc4fa466a2aca6d8deb888d>@@V<lambda_a6f7d7db0129f75315ebf26d50c089f1>@@@?$__crt_seh_guarded_call@H@@QEAAH$$QEAV<lambda_638799b9deba96c50f710eeac98168cd>@@AEAV<lambda_22ebabd17bc4fa466a2aca6d8deb888d>@@$$QEAV<lambda_a6f7d7db0129f75315ebf26d50c089f1>@@@Z 0000000180041414     libucrt:onexit.obj
 0002:0000f438       $unwind$??$?RV<lambda_7777bce6b2f8c936911f934f8298dc43>@@AEAV<lambda_f03950bc5685219e0bcd2087efbe011e>@@V<lambda_3883c3dff614d5e0c5f61bb1ac94921c>@@@?$__crt_seh_guarded_call@H@@QEAAH$$QEAV<lambda_7777bce6b2f8c936911f934f8298dc43>@@AEAV<lambda_f03950bc5685219e0bcd2087efbe011e>@@$$QEAV<lambda_3883c3dff614d5e0c5f61bb1ac94921c>@@@Z 0000000180041438     libucrt:onexit.obj
 0002:0000f45c       $unwind$terminate          000000018004145c     libucrt:terminate.obj
 0002:0000f480       $xdatasym                  0000000180041480     libucrt:strncmp.obj
 0002:0000f484       $unwind$_free_base         0000000180041484     libucrt:free_base.obj
 0002:0000f484       $unwind$?destroy_fls@@YAXPEAX@Z 0000000180041484     libucrt:per_thread_data.obj
 0002:0000f484       $unwind$__acrt_locale_free_numeric 0000000180041484     libucrt:initnum.obj
 0002:0000f484       $unwind$__acrt_locale_free_lc_time_if_unreferenced 0000000180041484     libucrt:locale_refcounting.obj
 0002:0000f48c       $unwind$?fp_format_e@@YAHQEBNQEAD_K12H_NIQEAU__crt_locale_pointers@@@Z 000000018004148c     libucrt:cvt.obj
 0002:0000f48c       $unwind$_mbtowc_l          000000018004148c     libucrt:mbtowc.obj
 0002:0000f48c       $unwind$__acrt_LCMapStringEx 000000018004148c     libucrt:winapi_thunks.obj
 0002:0000f4a0       $unwind$_wctomb_s_l        00000001800414a0     libucrt:wctomb.obj
 0002:0000f4b0       $unwind$?construct_ptd_array@@YAXQEAU__acrt_ptd@@@Z 00000001800414b0     libucrt:per_thread_data.obj
 0002:0000f4b8       $unwind$?destroy_ptd_array@@YAXQEAU__acrt_ptd@@@Z 00000001800414b8     libucrt:per_thread_data.obj
 0002:0000f4c0       $unwind$??$?RV<lambda_0ae27a3a962d80f24befdcbee591983d>@@AEAV<lambda_8d0ee55de4b1038c4002e0adecdf1839>@@V<lambda_dc504788e8f1664fe9b84e20bfb512f2>@@@?$__crt_seh_guarded_call@X@@QEAAX$$QEAV<lambda_0ae27a3a962d80f24befdcbee591983d>@@AEAV<lambda_8d0ee55de4b1038c4002e0adecdf1839>@@$$QEAV<lambda_dc504788e8f1664fe9b84e20bfb512f2>@@@Z 00000001800414c0     libucrt:per_thread_data.obj
 0002:0000f4e4       $unwind$??$?RV<lambda_aa87e3671a710a21b5dc78c0bdf72e11>@@AEAV<lambda_92619d2358a28f41a33ba319515a20b9>@@V<lambda_6992ecaafeb10aed2b74cb1fae11a551>@@@?$__crt_seh_guarded_call@X@@QEAAX$$QEAV<lambda_aa87e3671a710a21b5dc78c0bdf72e11>@@AEAV<lambda_92619d2358a28f41a33ba319515a20b9>@@$$QEAV<lambda_6992ecaafeb10aed2b74cb1fae11a551>@@@Z 00000001800414e4     libucrt:per_thread_data.obj
 0002:0000f508       $unwind$??$?RV<lambda_f2e299630e499de9f9a165e60fcd3db5>@@AEAV<lambda_2ae9d31cdba2644fcbeaf08da7c24588>@@V<lambda_40d01ff24d0e7b3814fdbdcee8eab3c7>@@@?$__crt_seh_guarded_call@X@@QEAAX$$QEAV<lambda_f2e299630e499de9f9a165e60fcd3db5>@@AEAV<lambda_2ae9d31cdba2644fcbeaf08da7c24588>@@$$QEAV<lambda_40d01ff24d0e7b3814fdbdcee8eab3c7>@@@Z 0000000180041508     libucrt:per_thread_data.obj
 0002:0000f52c       $unwind$??$?RV<lambda_2d41944a1d46af3157314b8a01080d33>@@AEAV<lambda_8f455de75cd7d7f24b4096f044d8b9e6>@@V<lambda_aa500f224e6afead328df44964fe2772>@@@?$__crt_seh_guarded_call@X@@QEAAX$$QEAV<lambda_2d41944a1d46af3157314b8a01080d33>@@AEAV<lambda_8f455de75cd7d7f24b4096f044d8b9e6>@@$$QEAV<lambda_aa500f224e6afead328df44964fe2772>@@@Z 000000018004152c     libucrt:per_thread_data.obj
 0002:0000f550       $unwind$__acrt_fp_format   0000000180041550     libucrt:cvt.obj
 0002:0000f564       $unwind$?fp_format_e_internal@@YAHQEAD_KH_NIQEAU_strflt@@2QEAU__crt_locale_pointers@@@Z 0000000180041564     libucrt:cvt.obj
 0002:0000f57c       $unwind$?fp_format_a@@YAHQEBNPEAD_KQEAD2H_NIQEAU__crt_locale_pointers@@@Z 000000018004157c     libucrt:cvt.obj
 0002:0000f598       $unwind$__dcrt_get_narrow_environment_from_os 0000000180041598     libucrt:get_environment_from_os.obj
 0002:0000f598       $unwind$?fp_format_f_internal@@YAHQEAD_KHQEAU_strflt@@_NQEAU__crt_locale_pointers@@@Z 0000000180041598     libucrt:cvt.obj
 0002:0000f598       $unwind$??$__acrt_wcs_to_mbs_cp@U__crt_win32_buffer_internal_dynamic_resizing@@@@YAHQEB_WAEAV?$__crt_win32_buffer@DU__crt_win32_buffer_internal_dynamic_resizing@@@@I@Z 0000000180041598     libucrt:argv_wildcards.obj
 0002:0000f5b0       $unwind$?fp_format_g@@YAHQEBNQEAD_K12H_NIQEAU__crt_locale_pointers@@@Z 00000001800415b0     libucrt:cvt.obj
 0002:0000f5c4       $unwind$__acrt_uninitialize_locale 00000001800415c4     libucrt:wsetlocale.obj
 0002:0000f5c4       $unwind$__acrt_get_sigabrt_handler 00000001800415c4     libucrt:signal.obj
 0002:0000f5cc       $unwind$??$?RV<lambda_410d79af7f07d98d83a3f525b3859a53>@@AEAV<lambda_3e16ef9562a7dcce91392c22ab16ea36>@@V<lambda_38119f0e861e05405d8a144b9b982f0a>@@@?$__crt_seh_guarded_call@X@@QEAAX$$QEAV<lambda_410d79af7f07d98d83a3f525b3859a53>@@AEAV<lambda_3e16ef9562a7dcce91392c22ab16ea36>@@$$QEAV<lambda_38119f0e861e05405d8a144b9b982f0a>@@@Z 00000001800415cc     libucrt:wsetlocale.obj
 0002:0000f5f4       $unwind$__acrt_initialize_lowio 00000001800415f4     libucrt:ioinit.obj
 0002:0000f614       $unwind$?initialize_inherited_file_handles_nolock@@YAXXZ 0000000180041614     libucrt:ioinit.obj
 0002:0000f630       $unwind$iswctype           0000000180041630     libucrt:iswctype.obj
 0002:0000f63c       $unwind$_isctype_l         000000018004163c     libucrt:isctype.obj
 0002:0000f658       $unwind$??$common_expand_argv_wildcards@D@@YAHQEAPEADQEAPEAPEAD@Z 0000000180041658     libucrt:argv_wildcards.obj
 0002:0000f670       $unwind$??$copy_and_add_argument_to_buffer@D@@YAHQEBD0_KAEAV?$argument_list@D@?A0x5f5c8891@@@Z 0000000180041670     libucrt:argv_wildcards.obj
 0002:0000f68c       $unwind$??$expand_argument_wildcards@D@@YAHQEAD0AEAV?$argument_list@D@?A0x5f5c8891@@@Z 000000018004168c     libucrt:argv_wildcards.obj
 0002:0000f6b0       $unwind$__acrt_GetModuleFileNameA 00000001800416b0     libucrt:getmodulefilenamea.obj
 0002:0000f6cc       $unwind$__dcrt_write_console 00000001800416cc     libucrt:initcon.obj
 0002:0000f6cc       $unwind$??$__acrt_wcs_to_mbs_cp@U__crt_win32_buffer_no_resizing@@@@YAHQEB_WAEAV?$__crt_win32_buffer@DU__crt_win32_buffer_no_resizing@@@@I@Z 00000001800416cc     libucrt:getmodulefilenamea.obj
 0002:0000f6e0       $unwind$_setmbcp_nolock    00000001800416e0     libucrt:mbctype.obj
 0002:0000f700       $unwind$?update_thread_multibyte_data_internal@@YAPEAU__crt_multibyte_data@@QEAU__acrt_ptd@@QEAPEAU1@@Z 0000000180041700     libucrt:mbctype.obj
 0002:0000f728       $unwind$?setmbcp_internal@@YAHH_NQEAU__acrt_ptd@@QEAPEAU__crt_multibyte_data@@@Z 0000000180041728     libucrt:mbctype.obj
 0002:0000f738       $unwind$?setSBUpLow@@YAXPEAU__crt_multibyte_data@@@Z 0000000180041738     libucrt:mbctype.obj
 0002:0000f754       $unwind$??$?RV<lambda_efdfa57d1f175319df784efa44bb7b81>@@AEAV<lambda_5f0a4c1567f8adc6734073e5d1e1b35c>@@V<lambda_2e8a7d3640ea6ccb4c2413664c2db6fd>@@@?$__crt_seh_guarded_call@X@@QEAAX$$QEAV<lambda_efdfa57d1f175319df784efa44bb7b81>@@AEAV<lambda_5f0a4c1567f8adc6734073e5d1e1b35c>@@$$QEAV<lambda_2e8a7d3640ea6ccb4c2413664c2db6fd>@@@Z 0000000180041754     libucrt:mbctype.obj
 0002:0000f778       $unwind$__acrt_initialize_winapi_thunks 0000000180041778     libucrt:winapi_thunks.obj
 0002:0000f780       $unwind$_query_new_handler 0000000180041780     libucrt:new_handler.obj
 0002:0000f7a0       $unwind$raise              00000001800417a0     libucrt:signal.obj
 0002:0000f7dc       $unwind$??$?RV<lambda_450d765d439847d4c735a33c368b5fc0>@@AEAV<lambda_44731a7d0e6d81c3e6aa82d741081786>@@V<lambda_601a2a7da3b7a96e9554ac7215c4b07c>@@@?$__crt_seh_guarded_call@P6AXH@Z@@QEAAP6AXH@Z$$QEAV<lambda_450d765d439847d4c735a33c368b5fc0>@@AEAV<lambda_44731a7d0e6d81c3e6aa82d741081786>@@$$QEAV<lambda_601a2a7da3b7a96e9554ac7215c4b07c>@@@Z 00000001800417dc     libucrt:signal.obj
 0002:0000f800       $unwind$?common_flush_all@@YAH_N@Z 0000000180041800     libucrt:fflush.obj
 0002:0000f808       $unwind$??$?RV<lambda_842d9ff0dc9ef11c61343bbaebe7f885>@@AEAV<lambda_c5860995281e5c4ce005b3de8f5874ee>@@V<lambda_d90129c13df834fdcbf8d2b88dafcf2d>@@@?$__crt_seh_guarded_call@X@@QEAAX$$QEAV<lambda_842d9ff0dc9ef11c61343bbaebe7f885>@@AEAV<lambda_c5860995281e5c4ce005b3de8f5874ee>@@$$QEAV<lambda_d90129c13df834fdcbf8d2b88dafcf2d>@@@Z 0000000180041808     libucrt:fflush.obj
 0002:0000f82c       $unwind$??$?RV<lambda_886d6c58226a84441f68b9f2b8217b83>@@AEAV<lambda_ab61a845afdef5b7c387490eaf3616ee>@@V<lambda_f7f22ab5edc0698d5f6905b0d3f44752>@@@?$__crt_seh_guarded_call@X@@QEAAX$$QEAV<lambda_886d6c58226a84441f68b9f2b8217b83>@@AEAV<lambda_ab61a845afdef5b7c387490eaf3616ee>@@$$QEAV<lambda_f7f22ab5edc0698d5f6905b0d3f44752>@@@Z 000000018004182c     libucrt:fflush.obj
 0002:0000f854       $unwind$?__mbsrtowcs_utf8@__crt_mbstring@@YA_KPEA_WPEAPEBD_KPEAU_Mbstatet@@@Z 0000000180041854     libucrt:mbrtowc.obj
 0002:0000f86c       $unwind$__acrt_update_thread_locale_data 000000018004186c     libucrt:locale_refcounting.obj
 0002:0000f890       $unwind$__acrt_fltout      0000000180041890     libucrt:cfout.obj
 0002:0000f8b0       $unwind$?divide@__crt_strtox@@YA_KAEAUbig_integer@1@AEBU21@@Z 00000001800418b0     libucrt:cfout.obj
 0002:0000f8c8       $chain$0$?divide@__crt_strtox@@YA_KAEAUbig_integer@1@AEBU21@@Z 00000001800418c8     libucrt:cfout.obj
 0002:0000f8dc       $chain$1$?divide@__crt_strtox@@YA_KAEAUbig_integer@1@AEBU21@@Z 00000001800418dc     libucrt:cfout.obj
 0002:0000f8ec       $unwind$_fcloseall         00000001800418ec     libucrt:closeall.obj
 0002:0000f910       $unwind$__acrt_locale_free_monetary 0000000180041910     libucrt:initmon.obj
 0002:0000f918       $unwind$__acrt_locale_free_time 0000000180041918     libucrt:inittime.obj
 0002:0000f928       $unwind$__acrt_GetStringTypeA 0000000180041928     libucrt:getstringtypea.obj
 0002:0000f950       $unwind$__acrt_lowio_destroy_handle_array 0000000180041950     libucrt:osfinfo.obj
 0002:0000f960       $unwind$__acrt_lowio_ensure_fh_exists 0000000180041960     libucrt:osfinfo.obj
 0002:0000f98c       $unwind$qsort              000000018004198c     libucrt:qsort.obj
 0002:0000f9a4       $chain$4$qsort             00000001800419a4     libucrt:qsort.obj
 0002:0000f9c8       $chain$5$qsort             00000001800419c8     libucrt:qsort.obj
 0002:0000f9d8       $unwind$__acrt_LCMapStringA 00000001800419d8     libucrt:lcmapstringa.obj
 0002:0000f9e8       $unwind$?__acrt_LCMapStringA_stat@@YAHPEAU__crt_locale_pointers@@PEB_WKPEBDHPEADHHH@Z 00000001800419e8     libucrt:lcmapstringa.obj
 0002:0000fa10       $unwind$_close             0000000180041a10     libucrt:close.obj
 0002:0000fa10       $unwind$_commit            0000000180041a10     libucrt:commit.obj
 0002:0000fa18       $unwind$??$?RV<lambda_a37b2b86f63e897a80ea819b0eb08c01>@@AEAV<lambda_38ce7e780aa69e748d6df282ebc68efe>@@V<lambda_99fb1378e971ab6e7edea83e3a7a83a2>@@@?$__crt_seh_guarded_call@H@@QEAAH$$QEAV<lambda_a37b2b86f63e897a80ea819b0eb08c01>@@AEAV<lambda_38ce7e780aa69e748d6df282ebc68efe>@@$$QEAV<lambda_99fb1378e971ab6e7edea83e3a7a83a2>@@@Z 0000000180041a18     libucrt:commit.obj
 0002:0000fa3c       $unwind$_write             0000000180041a3c     libucrt:write.obj
 0002:0000fa6c       $unwind$_write_nolock      0000000180041a6c     libucrt:write.obj
 0002:0000fa84       $unwind$?write_double_translated_ansi_nolock@@YA?AUwrite_result@?A0x17268360@@HQEBDI@Z 0000000180041a84     libucrt:write.obj
 0002:0000faa8       $unwind$?write_text_ansi_nolock@@YA?AUwrite_result@?A0x17268360@@HQEBDI@Z 0000000180041aa8     libucrt:write.obj
 0002:0000faa8       $unwind$?write_text_utf16le_nolock@@YA?AUwrite_result@?A0x17268360@@HQEBDI@Z 0000000180041aa8     libucrt:write.obj
 0002:0000fac8       $unwind$?write_text_utf8_nolock@@YA?AUwrite_result@?A0x17268360@@HQEBDI@Z 0000000180041ac8     libucrt:write.obj
 0002:0000faec       $unwind$?__mbrtoc32_utf8@__crt_mbstring@@YA_KPEA_UPEBD_KPEAU_Mbstatet@@@Z 0000000180041aec     libucrt:mbrtoc32.obj
 0002:0000fb08       $xdatasym                  0000000180041b08     libucrt:log10.obj
 0002:0000fb14       $unwind$fclose             0000000180041b14     libucrt:fclose.obj
 0002:0000fb38       $unwind$__acrt_fenv_set_control 0000000180041b38     libucrt:_fenvutils.obj
 0002:0000fb48       $unwind$_handle_error      0000000180041b48     libucrt:libm_error.obj
 0002:0000fb68       $unwind$__acrt_initialize_fma3 0000000180041b68     libucrt:fma3_available.obj
 0002:0000fb70       $unwind$_log_special_common 0000000180041b70     libucrt:log_special.obj
 0002:0000fb7c       $unwind$??$?RV<lambda_751a882b2c74d4b022dec766aa51a29a>@@AEAV<lambda_628dfdc04ba53c8bfc02c9951375f3f5>@@V<lambda_f6c7be5f7998530c34de24c7437d6b54>@@@?$__crt_seh_guarded_call@H@@QEAAH$$QEAV<lambda_751a882b2c74d4b022dec766aa51a29a>@@AEAV<lambda_628dfdc04ba53c8bfc02c9951375f3f5>@@$$QEAV<lambda_f6c7be5f7998530c34de24c7437d6b54>@@@Z 0000000180041b7c     libucrt:close.obj
 0002:0000fba0       $xdatasym                  0000000180041ba0     libucrt:fpsr.obj
 0002:0000fba8       $unwind$_raise_exc_ex      0000000180041ba8     libucrt:fpexcept.obj
 0002:0000fbbc       $unwind$_ctrlfp            0000000180041bbc     libucrt:fpctrl.obj
 0002:0000fbe4       $unwind$?apiGetConsoleFontSize@@YAHPEAXAEAH1AEAY0CA@_W@Z 0000000180041be4     common-kernel64:WConsole.obj
 0002:0000fc00       $unwind$?apiSetConsoleFontSize@@YAHPEAXHHPEB_W@Z 0000000180041c00     common-kernel64:WConsole.obj
 0002:0000fc1c       $unwind$_IsNonwritableInCurrentImage 0000000180041c1c     LIBCMT:pesect.obj
 0002:0000fe40       .edata                     0000000180041e40     ConEmu.x64.exp
 0002:0000fe68       rgpv                       0000000180041e68     ConEmu.x64.exp
 0002:0000fed4       rgszName                   0000000180041ed4     ConEmu.x64.exp
 0002:0000ff40       rgwOrd                     0000000180041f40     ConEmu.x64.exp
 0002:0000ff76       szName                     0000000180041f76     ConEmu.x64.exp
 0002:0000ff85       $N00001                    0000000180041f85     ConEmu.x64.exp
 0002:0000ff95       $N00002                    0000000180041f95     ConEmu.x64.exp
 0002:0000ff9d       $N00003                    0000000180041f9d     ConEmu.x64.exp
 0002:0000ffa9       $N00004                    0000000180041fa9     ConEmu.x64.exp
 0002:0000ffb4       $N00005                    0000000180041fb4     ConEmu.x64.exp
 0002:0000ffc2       $N00006                    0000000180041fc2     ConEmu.x64.exp
 0002:0000ffd3       $N00007                    0000000180041fd3     ConEmu.x64.exp
 0002:0000ffe1       $N00008                    0000000180041fe1     ConEmu.x64.exp
 0002:0000fff0       $N00009                    0000000180041ff0     ConEmu.x64.exp
 0002:00010000       $N00010                    0000000180042000     ConEmu.x64.exp
 0002:0001000b       $N00011                    000000018004200b     ConEmu.x64.exp
 0002:00010011       $N00012                    0000000180042011     ConEmu.x64.exp
 0002:00010024       $N00013                    0000000180042024     ConEmu.x64.exp
 0002:00010037       $N00014                    0000000180042037     ConEmu.x64.exp
 0002:0001004a       $N00015                    000000018004204a     ConEmu.x64.exp
 0002:0001005d       $N00016                    000000018004205d     ConEmu.x64.exp
 0002:0001006f       $N00017                    000000018004206f     ConEmu.x64.exp
 0002:0001007e       $N00018                    000000018004207e     ConEmu.x64.exp
 0002:0001008a       $N00019                    000000018004208a     ConEmu.x64.exp
 0002:00010093       $N00020                    0000000180042093     ConEmu.x64.exp
 0002:000100a2       $N00021                    00000001800420a2     ConEmu.x64.exp
 0002:000100b4       $N00022                    00000001800420b4     ConEmu.x64.exp
 0002:000100c0       $N00023                    00000001800420c0     ConEmu.x64.exp
 0002:000100d4       $N00024                    00000001800420d4     ConEmu.x64.exp
 0002:000100e8       $N00025                    00000001800420e8     ConEmu.x64.exp
 0002:000100fd       $N00026                    00000001800420fd     ConEmu.x64.exp
 0002:00010111       $N00027                    0000000180042111     ConEmu.x64.exp
 0002:00010842       .idata$6                   0000000180042842     version:VERSION.dll
 0002:00010d6c       .idata$6                   0000000180042d6c     kernel32:KERNEL32.dll
 0002:00010e7a       .idata$6                   0000000180042e7a     user32:USER32.dll
 0002:00010f1a       .idata$6                   0000000180042f1a     gdi32:GDI32.dll
 0002:00010f56       .idata$6                   0000000180042f56     advapi32:ADVAPI32.dll
 0003:00000140       ?rc@?CE@??Open@CPluginW2800@@UEAAPEAXPEBX@Z@4UFarMacroCall@@A 0000000180044140     ConEmuPlugin2800.obj
 0003:00000168       ?val@?CE@??Open@CPluginW2800@@UEAAPEAXPEBX@Z@4UFarMacroValue@@A 0000000180044168     ConEmuPlugin2800.obj
 0003:000002c0       ?__vcrt_flsindex@@3KA      00000001800442c0     libvcruntime:per_thread_data.obj
 0003:000002d0       ?errno_no_memory@@3HA      00000001800442d0     libucrt:errno.obj
 0003:000002d4       ?doserrno_no_memory@@3KA   00000001800442d4     libucrt:errno.obj
 0003:000002e0       ?__acrt_flsindex@@3KA      00000001800442e0     libucrt:per_thread_data.obj
 0003:000007b0       _mbctypes                  00000001800447b0     libucrt:mbctype.obj
 0003:000008c0       _mbcasemaps                00000001800448c0     libucrt:mbctype.obj
 0003:000009c0       ?__rgctypeflag@@3PADA      00000001800449c0     libucrt:mbctype.obj
 0003:000009d0       ?__rgcode_page_info@@3PAUcode_page_info@@A 00000001800449d0     libucrt:mbctype.obj
 0003:00000c70       ?__dcrt_lowio_console_output_handle@@3PEAXEA 0000000180044c70     libucrt:initcon.obj
 0003:00000c80       ?dazSupported@?1??_ctrlfp@@9@9 0000000180044c80     libucrt:fpctrl.obj
 0003:00000f90       ?store@?M@??GetPanelInfo@CPluginW1900@@UEAA_NKPEAUCEPanelInfo@@@Z@4UPanelInfo@@A 0000000180044f90     ConEmuPlugin1900.obj
 0003:00001000       ?szMenu@?1??GetPluginInfoPtr@CPluginW1900@@UEAAXPEAX@Z@4PAPEA_WA 0000000180045000     ConEmuPlugin1900.obj
 0003:00001010       ?szMenu1@?1??GetPluginInfoPtr@CPluginW1900@@UEAAXPEAX@Z@4PA_WA 0000000180045010     ConEmuPlugin1900.obj
 0003:00001210       ?WLastActive@?1??UpdateConEmuTabsApi@CPluginW1900@@UEAA_NH@Z@4UWindowInfo@@A 0000000180045210     ConEmuPlugin1900.obj
 0003:00001258       ?pwList@@3PEAV?$MArray@UWindowInfo@@@@EA 0000000180045258     ConEmuPlugin2800.obj
 0003:00001260       ?store@?M@??GetPanelInfo@CPluginW2800@@UEAA_NKPEAUCEPanelInfo@@@Z@4UPanelInfo@@A 0000000180045260     ConEmuPlugin2800.obj
 0003:000012c8       ?szMenu@?1??GetPluginInfoPtr@CPluginW2800@@UEAAXPEAX@Z@4PAPEA_WA 00000001800452c8     ConEmuPlugin2800.obj
 0003:000012d0       ?szMenu1@?1??GetPluginInfoPtr@CPluginW2800@@UEAAXPEAX@Z@4PA_WA 00000001800452d0     ConEmuPlugin2800.obj
 0003:000014d0       ?WLastActive@?1??UpdateConEmuTabsApi@CPluginW2800@@UEAA_NH@Z@4UWindowInfo@@A 00000001800454d0     ConEmuPlugin2800.obj
 0003:00001528       ?ghSyncDlg@@3PEAXEA        0000000180045528     ConEmuPlugin995.obj
 0003:00001530       ?store@?M@??GetPanelInfo@CPluginW995@@UEAA_NKPEAUCEPanelInfo@@@Z@4UPanelInfo@@A 0000000180045530     ConEmuPlugin995.obj
 0003:00001578       ?szMenu@?1??GetPluginInfoPtr@CPluginW995@@UEAAXPEAX@Z@4PAPEA_WA 0000000180045578     ConEmuPlugin995.obj
 0003:00001580       ?szMenu1@?1??GetPluginInfoPtr@CPluginW995@@UEAAXPEAX@Z@4PA_WA 0000000180045580     ConEmuPlugin995.obj
 0003:00001790       ?store@?M@??GetPanelInfo@CPluginAnsi@@UEAA_NKPEAUCEPanelInfo@@@Z@4UPanelInfo@@A 0000000180045790     ConEmuPluginA.obj
 0003:00001990       ?szMenu@?1??GetPluginInfoPtr@CPluginAnsi@@UEAAXPEAX@Z@4PAPEADA 0000000180045990     ConEmuPluginA.obj
 0003:000019a0       ?szMenu1@?1??GetPluginInfoPtr@CPluginAnsi@@UEAAXPEAX@Z@4PADA 00000001800459a0     ConEmuPluginA.obj
 0003:00002d1c       ?gbTryOpenMapHeader@@3HA   0000000180046d1c     ConEmuPluginBase.obj
 0003:00002d20       ?gbStartupHooksAfterMap@@3HA 0000000180046d20     ConEmuPluginBase.obj
 0003:00002d24       ?siEnabled@?1??CheckBufferEnabled@CPluginBase@@QEAA_NXZ@4HA 0000000180046d24     ConEmuPluginBase.obj
 0003:00002d28       ?dwLastTickCount@?7??CheckResources@CPluginBase@@QEAAX_N@Z@4KA 0000000180046d28     ConEmuPluginBase.obj
 0003:00002d2c       ?$TSS0@?7??CheckResources@CPluginBase@@QEAAX_N@Z@4HA 0000000180046d2c     ConEmuPluginBase.obj
 0003:00002d30       ?dwLastTickCount@?9??OnConsolePeekReadInput@CPluginBase@@SAX_N@Z@4KA 0000000180046d30     ConEmuPluginBase.obj
 0003:00002f98       ?gHeapInit@?A0x333b15f0@@3U?$atomic@H@std@@A 0000000180046f98     common-kernel64:Memory.obj
 0003:00002f9c       ?gHeapCounter@?A0x333b15f0@@3U?$atomic@H@std@@A 0000000180046f9c     common-kernel64:Memory.obj
 0003:00002fa0       ?ghHeap@?A0x333b15f0@@3PEAXEA 0000000180046fa0     common-kernel64:Memory.obj
 0003:00002fc0       ?szFile@?1??ModuleName@@YAPEB_WPEB_W@Z@4PA_WA 0000000180046fc0     common-kernel64:ConEmuCheck.obj
 0003:00003010       ?g_Threads@@3PAUConEmuThreadInfo@@A 0000000180047010     common-kernel64:WThreads.obj
 0003:0000b810       ?gh_UnknownTerminatedThread@@3PEAXEA 000000018004f810     common-kernel64:WThreads.obj
 0003:0000b81c       ?szNil@?1??GetCommand@CESERVER_REQ_NEWCMD@@QEAAPEA_WXZ@4PA_WA 000000018004f81c     common-kernel64:Common.obj
 0003:0000b830       ?rtlVerifyVersionInfo@?1??_VerifyVersionInfo@@YA_NPEAU_OSVERSIONINFOEXW@@K_K@Z@4P6AH0K1@ZEA 000000018004f830     common-kernel64:WObjects.obj
 0003:0000b838       ?hasRtl@?1??_VerifyVersionInfo@@YA_NPEAU_OSVERSIONINFOEXW@@K_K@Z@4HA 000000018004f838     common-kernel64:WObjects.obj
 0003:0000b83c       ?ibIsWin6@?1??IsWin6@@YA_NXZ@4HA 000000018004f83c     common-kernel64:WObjects.obj
 0003:0000b840       ?is64bitOs@?1??IsWindows64@@YA_NXZ@4_NA 000000018004f840     common-kernel64:WObjects.obj
 0003:0000b841       ?isOsChecked@?1??IsWindows64@@YA_NXZ@4_NA 000000018004f841     common-kernel64:WObjects.obj
 0003:0000b848       ?TerminalMode@?1??isTerminalMode@@YA_NXZ@4_NA 000000018004f848     common-kernel64:MProcess.obj
 0003:0000b849       ?TerminalChecked@?1??isTerminalMode@@YA_NXZ@4_NA 000000018004f849     common-kernel64:MProcess.obj
 0003:0000b84a       ?bSysInfoRetrieved@?1??IsModuleValid@@YA_NPEAUHINSTANCE__@@H@Z@4_NA 000000018004f84a     common-kernel64:WModuleCheck.obj
 0003:0000b850       ?si@?1??IsModuleValid@@YA_NPEAUHINSTANCE__@@H@Z@4U_SYSTEM_INFO@@A 000000018004f850     common-kernel64:WModuleCheck.obj
 0003:0000b898       ?g_tss_cv@@3U_RTL_CONDITION_VARIABLE@@A 000000018004f898     LIBCMT:thread_safe_statics.obj
 0003:0000b8a0       ?g_tss_event@@3PEAXEA      000000018004f8a0     LIBCMT:thread_safe_statics.obj
 0003:0000b8a8       ?g_tss_mutex@@3U_RTL_CRITICAL_SECTION@@A 000000018004f8a8     LIBCMT:thread_safe_statics.obj
 0003:0000b8d0       ?g_sleep_condition_variable_cs@@3P6AHPEAU_RTL_CONDITION_VARIABLE@@PEAU_RTL_CRITICAL_SECTION@@K@ZEA 000000018004f8d0     LIBCMT:thread_safe_statics.obj
 0003:0000b8d8       ?g_wake_all_condition_variable@@3P6AXPEAU_RTL_CONDITION_VARIABLE@@@ZEA 000000018004f8d8     LIBCMT:thread_safe_statics.obj
 0003:0000b8e0       ?__proc_attached@@3HA      000000018004f8e0     LIBCMT:dll_dllmain.obj
 0003:0000b8f8       ?is_initialized_as_dll@@3_NA 000000018004f8f8     LIBCMT:utility.obj
 0003:0000b8f9       ?module_local_atexit_table_initialized@@3_NA 000000018004f8f9     LIBCMT:utility.obj
 0003:0000b900       ?module_local_atexit_table@@3U_onexit_table_t@@A 000000018004f900     LIBCMT:utility.obj
 0003:0000b918       ?module_local_at_quick_exit_table@@3U_onexit_table_t@@A 000000018004f918     LIBCMT:utility.obj
 0003:0000b930       GS_ExceptionRecord         000000018004f930     LIBCMT:gs_report.obj
 0003:0000b9d0       GS_ContextRecord           000000018004f9d0     LIBCMT:gs_report.obj
 0003:0000bee0       ?__vcrt_startup_thread_ptd@@3U__vcrt_ptd@@A 000000018004fee0     libvcruntime:per_thread_data.obj
 0003:0000bf68       __vcrt_lock_table          000000018004ff68     libvcruntime:locks.obj
 0003:0000bf90       __vcrt_locks_initialized   000000018004ff90     libvcruntime:locks.obj
 0003:0000bfd8       ?heap@@3V_HeapManager@@A   000000018004ffd8     libvcruntime:undname.obj
 0003:0000c000       ?module_handles@@3PAPEAUHINSTANCE__@@A 0000000180050000     libvcruntime:winapi_downlevel.obj
 0003:0000c018       ?function_pointers@@3PAPEAXA 0000000180050018     libvcruntime:winapi_downlevel.obj
 0003:0000c040       ?__acrt_invalid_parameter_handler@@3V?$dual_state_global@P6AXPEB_W00I_K@Z@__crt_state_management@@A 0000000180050040     libucrt:invalid_parameter.obj
 0003:0000c048       ?c_termination_complete@@3JA 0000000180050048     libucrt:exit.obj
 0003:0000c050       ?thread_local_exit_callback_func@@3P6AXPEAXK0@ZEA 0000000180050050     libucrt:exit.obj
 0003:0000c060       ?program_name@?1???$common_configure_argv@D@@YAHW4_crt_argv_mode@@@Z@4PADA 0000000180050060     libucrt:argv_parsing.obj
 0003:0000c1b8       ?internal_state@?1??_mbtowc_l@@9@4U_Mbstatet@@A 00000001800501b8     libucrt:mbtowc.obj
 0003:0000c1d0       ?enable_percent_n@@3_KA    00000001800501d0     libucrt:printf_count_output.obj
 0003:0000c610       ?__acrt_lock_table@@3PAU_RTL_CRITICAL_SECTION@@A 0000000180050610     libucrt:locks.obj
 0003:0000c840       ?__acrt_locks_initialized@@3IA 0000000180050840     libucrt:locks.obj
 0003:0000c860       ?fSystemSet@@3HA           0000000180050860     libucrt:mbctype.obj
 0003:0000c864       ?initialized@?1??__acrt_initialize_multibyte@@9@4_NA 0000000180050864     libucrt:mbctype.obj
 0003:0000c8a0       ?module_handles@@3PAPEAUHINSTANCE__@@A 00000001800508a0     libucrt:winapi_thunks.obj
 0003:0000c940       ?encoded_function_pointers@@3PAPEAXA 0000000180050940     libucrt:winapi_thunks.obj
 0003:0000ca58       ?__acrt_new_handler@@3V?$dual_state_global@P6AH_K@Z@__crt_state_management@@A 0000000180050a58     libucrt:new_handler.obj
 0003:0000ca60       ?ctrlc_action@@3V?$dual_state_global@P6AXH@Z@__crt_state_management@@A 0000000180050a60     libucrt:signal.obj
 0003:0000ca68       ?ctrlbreak_action@@3V?$dual_state_global@P6AXH@Z@__crt_state_management@@A 0000000180050a68     libucrt:signal.obj
 0003:0000ca70       ?abort_action@@3V?$dual_state_global@P6AXH@Z@__crt_state_management@@A 0000000180050a70     libucrt:signal.obj
 0003:0000ca78       ?term_action@@3V?$dual_state_global@P6AXH@Z@__crt_state_management@@A 0000000180050a78     libucrt:signal.obj
 0003:0000ca80       ?user_matherr@@3V?$dual_state_global@P6AHPEAU_exception@@@Z@__crt_state_management@@A 0000000180050a80     libucrt:matherr.obj
 0003:0000ca88       ?__acrt_global_new_mode@@3V?$dual_state_global@J@__crt_state_management@@A 0000000180050a88     libucrt:new_mode.obj
 0003:0000ca98       ?internal_pst@?1??__mbrtoc32_utf8@__crt_mbstring@@YA_KPEA_UPEBD_KPEAU_Mbstatet@@@Z@4U3@A 0000000180050a98     libucrt:mbrtoc32.obj
 0003:0000caa0       ?__acrt_app_type@@3W4_crt_app_type@@A 0000000180050aa0     libucrt:report_runtime_error.obj
 0003:0000cb04       ?gbPauseConsoleWasRequested@@3_NA 0000000180050b04     common-kernel64:WConsole.obj
 0003:0000cb08       ?GetCurrentConsoleFontEx@?1??apiGetCurrentConsoleFontEx@@YAHPEAXHPEAUMY_CONSOLE_FONT_INFOEX@@@Z@4P6AH0H1@ZEA 0000000180050b08     common-kernel64:WConsole.obj
 0003:0000cb10       ?bFuncChecked@?1??apiGetCurrentConsoleFontEx@@YAHPEAXHPEAUMY_CONSOLE_FONT_INFOEX@@@Z@4_NA 0000000180050b10     common-kernel64:WConsole.obj
 0003:0000cb18       ?SetCurrentConsoleFontEx@?1??apiSetCurrentConsoleFontEx@@YAHPEAXHPEAUMY_CONSOLE_FONT_INFOEX@@@Z@4P6AH0H1@ZEA 0000000180050b18     common-kernel64:WConsole.obj
 0003:0000cb20       ?bFuncChecked@?1??apiSetCurrentConsoleFontEx@@YAHPEAXHPEAUMY_CONSOLE_FONT_INFOEX@@@Z@4_NA 0000000180050b20     common-kernel64:WConsole.obj
 0005:00000000       MoveSmall                  0000000180054000     libvcruntime:memcpy.obj
 0005:00000080       MsetTab                    0000000180054080     libvcruntime:memset.obj
 0006:000000a0       $R000000                   00000001800550a0     ConEmu.res
 0006:000003b0       $R000310                   00000001800553b0     ConEmu.res
